 mygame

 Timestamp is 6327efa2 (Mon Sep 19 12:27:14 2022)

 Preferred load address is 0000000140000000

 Start         Length     Name                   Class
 0001:00000000 0008d5e0H .text$mn                CODE
 0001:0008d5e0 00001040H .text$mn$00             CODE
 0001:0008e620 00001f3dH .text$x                 CODE
 0002:00000000 00000110H .CRT$XCA                DATA
 0002:00000110 00000110H .CRT$XCAA               DATA
 0002:00000220 00000110H .CRT$XCZ                DATA
 0002:00000330 00000110H .CRT$XIA                DATA
 0002:00000440 00000110H .CRT$XIAA               DATA
 0002:00000550 00000110H .CRT$XIAC               DATA
 0002:00000660 00000140H .CRT$XIC                DATA
 0002:000007a0 00000110H .CRT$XIZ                DATA
 0002:000008b0 00000110H .CRT$XPA                DATA
 0002:000009c0 00000120H .CRT$XPX                DATA
 0002:00000ae0 00000110H .CRT$XPXA               DATA
 0002:00000bf0 00000110H .CRT$XPZ                DATA
 0002:00000d00 00000110H .CRT$XTA                DATA
 0002:00000e10 00000110H .CRT$XTZ                DATA
 0002:00000f20 0000d9e0H .rdata                  DATA
 0002:0000e900 00000200H .rdata$CastGuardVftablesA DATA
 0002:0000eb00 000001a0H .rdata$CastGuardVftablesC DATA
 0002:0000eca0 0000060cH .rdata$r                DATA
 0002:0000f2ac 00000174H .rdata$zzzdbg           DATA
 0002:0000f420 00000110H .rtc$IAA                DATA
 0002:0000f530 00000110H .rtc$IZZ                DATA
 0002:0000f640 00000110H .rtc$TAA                DATA
 0002:0000f750 00000110H .rtc$TZZ                DATA
 0002:0000f860 00007d88H .xdata                  DATA
 0002:000175e8 00000196H .xdata$x                DATA
 0002:0001777e 00000000H .edata                  DATA
 0003:00000000 00003448H .data                   DATA
 0003:00003448 00000190H .data$r                 DATA
 0003:000035d8 00000228H .data$rs                DATA
 0003:00003800 000030a9H .bss                    DATA
 0004:00000000 000062acH .pdata                  DATA
 0005:00000000 00000468H .idata$5                DATA
 0005:00000468 00000028H .idata$2                DATA
 0005:00000490 00000018H .idata$3                DATA
 0005:000004a8 00000468H .idata$4                DATA
 0005:00000910 00000937H .idata$6                DATA
 0006:00000000 00000175H .00cfg                  DATA
 0007:00000000 0000029fH _RDATA                  DATA

  Address         Publics by Value              Rva+Base               Lib:Object

 0000:00000000       __AbsoluteZero             0000000000000000     <absolute>
 0000:00000000       ___safe_se_handler_count   0000000000000000     <absolute>
 0000:00000000       ___safe_se_handler_table   0000000000000000     <absolute>
 0000:00000000       __arm64x_extra_rfe_table   0000000000000000     <absolute>
 0000:00000000       __arm64x_extra_rfe_table_size 0000000000000000     <absolute>
 0000:00000000       __arm64x_native_entrypoint 0000000000000000     <absolute>
 0000:00000000       __arm64x_redirection_metadata 0000000000000000     <absolute>
 0000:00000000       __arm64x_redirection_metadata_count 0000000000000000     <absolute>
 0000:00000000       __dynamic_value_reloc_table 0000000000000000     <absolute>
 0000:00000000       __enclave_config           0000000000000000     <absolute>
 0000:00000000       __guard_check_icall_a64n_fptr 0000000000000000     <absolute>
 0000:00000000       __guard_eh_cont_count      0000000000000000     <absolute>
 0000:00000000       __guard_eh_cont_table      0000000000000000     <absolute>
 0000:00000000       __guard_fids_count         0000000000000000     <absolute>
 0000:00000000       __guard_fids_table         0000000000000000     <absolute>
 0000:00000000       __guard_iat_count          0000000000000000     <absolute>
 0000:00000000       __guard_iat_table          0000000000000000     <absolute>
 0000:00000000       __guard_longjmp_count      0000000000000000     <absolute>
 0000:00000000       __guard_longjmp_table      0000000000000000     <absolute>
 0000:00000000       __hybrid_auxiliary_iat     0000000000000000     <absolute>
 0000:00000000       __hybrid_auxiliary_iat_copy 0000000000000000     <absolute>
 0000:00000000       __hybrid_code_map          0000000000000000     <absolute>
 0000:00000000       __hybrid_code_map_count    0000000000000000     <absolute>
 0000:00000000       __volatile_metadata        0000000000000000     <absolute>
 0000:00000000       __x64_code_ranges_to_entry_points 0000000000000000     <absolute>
 0000:00000000       __x64_code_ranges_to_entry_points_count 0000000000000000     <absolute>
 0000:00000100       __guard_flags              0000000000000100     <absolute>
 0000:00000000       __ImageBase                0000000140000000     <linker-defined>
 0001:00007280       ?io_file_read@@YA?AUFile@@PEBD@Z 0000000140008280 f   main.obj
 0001:000075f0       ?render_shader_create@@YAIPEBD0@Z 00000001400085f0 f   main.obj
 0001:00007980       ?io_file_write@@YAHPEAX_KPEBD@Z 0000000140008980 f   main.obj
 0001:00007d30       ?config_init@@YAXXZ        0000000140008d30 f   main.obj
 0001:00008500       ?array_list_create@@YAPEAUArray_List@@_K0@Z 0000000140009500 f   main.obj
 0001:000085c0       ?array_list_append@@YA_KPEAUArray_List@@PEAX@Z 00000001400095c0 f   main.obj
 0001:000086f0       ?array_list_get@@YAPEAXPEAUArray_List@@_K@Z 00000001400096f0 f   main.obj
 0001:00008750       ?array_list_remove@@YAEPEAUArray_List@@_K@Z 0000000140009750 f   main.obj
 0001:00008850       ?time_init@@YAXIPEAUtime_stats@@@Z 0000000140009850 f   main.obj
 0001:00008890       ?time_update@@YAXPEAUtime_stats@@@Z 0000000140009890 f   main.obj
 0001:00008e00       ?physics_static_body_get@@YAPEAUBody@@_KPEAUphysics_types@@@Z 0000000140009e00 f   main.obj
 0001:00008e30       ?ray_intersect_aabb@@YA?AUHit@@QEAM0UAABB@@@Z 0000000140009e30 f   main.obj
 0001:00009960       ?physics_update@@YAXPEAUtime_stats@@PEAUphysics_types@@@Z 000000014000a960 f   main.obj
 0001:00009b20       ?physics_body_get@@YAPEAUBody@@_KPEAUphysics_types@@@Z 000000014000ab20 f   main.obj
 0001:00009b50       ?physics_static_body_create@@YA_KQEAM0PEAUphysics_types@@@Z 000000014000ab50 f   main.obj
 0001:0000a670       ?render_init_color_texture@@YAXPEAUshader_files@@@Z 000000014000b670 f   main.obj
 0001:0000ba50       main                       000000014000ca50 f   main.obj
 0001:0000c230       __local_stdio_printf_options 000000014000d230 f i main.obj
 0001:0000c240       _vfprintf_l                000000014000d240 f i main.obj
 0001:0000c2a0       fabsf                      000000014000d2a0 f i main.obj
 0001:0000c2d0       fprintf                    000000014000d2d0 f i main.obj
 0001:0000c340       printf                     000000014000d340 f i main.obj
 0001:0000c3d0       gladLoadGL                 000000014000d3d0 f   glad.obj
 0001:0000c410       gladLoadGLLoader           000000014000d410 f   glad.obj
 0001:0000f160       __local_stdio_scanf_options 0000000140010160 f i glad.obj
 0001:0000f170       _vsscanf_s_l               0000000140010170 f i glad.obj
 0001:0000f1e0       sscanf_s                   00000001400101e0 f i glad.obj
 0001:0000f240       vsscanf_s                  0000000140010240 f i glad.obj
 0001:0000f27a       SDL_GetError               000000014001027a f   SDL2:SDL2.dll
 0001:0000f280       SDL_CreateWindow           0000000140010280 f   SDL2:SDL2.dll
 0001:0000f286       SDL_GL_GetProcAddress      0000000140010286 f   SDL2:SDL2.dll
 0001:0000f28c       SDL_GL_SetAttribute        000000014001028c f   SDL2:SDL2.dll
 0001:0000f292       SDL_GL_CreateContext       0000000140010292 f   SDL2:SDL2.dll
 0001:0000f298       SDL_GL_SwapWindow          0000000140010298 f   SDL2:SDL2.dll
 0001:0000f29e       SDL_GetKeyboardState       000000014001029e f   SDL2:SDL2.dll
 0001:0000f2a4       SDL_GetScancodeFromName    00000001400102a4 f   SDL2:SDL2.dll
 0001:0000f2aa       SDL_GetMouseState          00000001400102aa f   SDL2:SDL2.dll
 0001:0000f2b0       SDL_ShowCursor             00000001400102b0 f   SDL2:SDL2.dll
 0001:0000f2b6       SDL_PollEvent              00000001400102b6 f   SDL2:SDL2.dll
 0001:0000f2bc       SDL_GetTicks               00000001400102bc f   SDL2:SDL2.dll
 0001:0000f2c2       SDL_Delay                  00000001400102c2 f   SDL2:SDL2.dll
 0001:0000f2c8       SDL_Init                   00000001400102c8 f   SDL2:SDL2.dll
 0001:0000f2d0       __GSHandlerCheck           00000001400102d0 f   LIBCMT:gshandler.obj
 0001:0000f2f4       __GSHandlerCheckCommon     00000001400102f4 f   LIBCMT:gshandler.obj
 0001:0000f380       __security_check_cookie    0000000140010380 f   LIBCMT:amdsecgs.obj
 0001:0000f6b8       ?configure_argv@__scrt_narrow_argv_policy@@SAHXZ 00000001400106b8 f i LIBCMT:exe_main.obj
 0001:0000f6d4       ?initialize_environment@__scrt_narrow_environment_policy@@SAHXZ 00000001400106d4 f i LIBCMT:exe_main.obj
 0001:0000f720       ?set_app_type@__scrt_main_policy@@SAXXZ 0000000140010720 f i LIBCMT:exe_main.obj
 0001:0000f72c       ?set_commode@__scrt_file_policy@@SAXXZ 000000014001072c f i LIBCMT:exe_main.obj
 0001:0000f74c       ?set_fmode@__scrt_file_policy@@SAXXZ 000000014001074c f i LIBCMT:exe_main.obj
 0001:0000f768       mainCRTStartup             0000000140010768 f   LIBCMT:exe_main.obj
 0001:0000f780       __raise_securityfailure    0000000140010780 f   LIBCMT:gs_report.obj
 0001:0000f7c4       __report_gsfailure         00000001400107c4 f   LIBCMT:gs_report.obj
 0001:0000f8cc       __report_rangecheckfailure 00000001400108cc f   LIBCMT:gs_report.obj
 0001:0000f8e4       __report_securityfailure   00000001400108e4 f   LIBCMT:gs_report.obj
 0001:0000f9a8       __report_securityfailureEx 00000001400109a8 f   LIBCMT:gs_report.obj
 0001:0000fcac       NtCurrentTeb               0000000140010cac f i LIBCMT:utility.obj
 0001:0000fcb8       __scrt_acquire_startup_lock 0000000140010cb8 f   LIBCMT:utility.obj
 0001:0000fd00       __scrt_dllmain_after_initialize_c 0000000140010d00 f   LIBCMT:utility.obj
 0001:0000fd44       __scrt_dllmain_before_initialize_c 0000000140010d44 f   LIBCMT:utility.obj
 0001:0000fd60       __scrt_dllmain_crt_thread_attach 0000000140010d60 f   LIBCMT:utility.obj
 0001:0000fd94       __scrt_dllmain_crt_thread_detach 0000000140010d94 f   LIBCMT:utility.obj
 0001:0000fdb0       __scrt_dllmain_exception_filter 0000000140010db0 f   LIBCMT:utility.obj
 0001:0000fe28       __scrt_dllmain_uninitialize_c 0000000140010e28 f   LIBCMT:utility.obj
 0001:0000fe64       __scrt_dllmain_uninitialize_critical 0000000140010e64 f   LIBCMT:utility.obj
 0001:0000fe80       __scrt_initialize_crt      0000000140010e80 f   LIBCMT:utility.obj
 0001:0000fedc       __scrt_initialize_onexit_tables 0000000140010edc f   LIBCMT:utility.obj
 0001:0000ff8c       __scrt_is_nonwritable_in_current_image 0000000140010f8c f   LIBCMT:utility.obj
 0001:0001004c       __scrt_release_startup_lock 000000014001104c f   LIBCMT:utility.obj
 0001:0001007c       __scrt_uninitialize_crt    000000014001107c f   LIBCMT:utility.obj
 0001:000100b0       _onexit                    00000001400110b0 f   LIBCMT:utility.obj
 0001:000100f8       at_quick_exit              00000001400110f8 f   LIBCMT:utility.obj
 0001:0001011c       atexit                     000000014001111c f   LIBCMT:utility.obj
 0001:000101c0       __security_init_cookie     00000001400111c0 f   LIBCMT:gs_support.obj
 0001:00010298       _matherr                   0000000140011298 f   LIBCMT:matherr.obj
 0001:0001029c       _get_startup_argv_mode     000000014001129c f   LIBCMT:argv_mode.obj
 0001:000102a4       _get_startup_commit_mode   00000001400112a4 f   LIBCMT:commit_mode.obj
 0001:000102a8       _get_startup_file_mode     00000001400112a8 f   LIBCMT:file_mode.obj
 0001:000102b0       _get_startup_new_mode      00000001400112b0 f   LIBCMT:new_mode.obj
 0001:000102b4       _get_startup_thread_locale_mode 00000001400112b4 f   LIBCMT:thread_locale.obj
 0001:000102b8       ?__scrt_initialize_type_info@@YAXXZ 00000001400112b8 f   LIBCMT:tncleanup.obj
 0001:000102cc       ?__scrt_uninitialize_type_info@@YAXXZ 00000001400112cc f   LIBCMT:tncleanup.obj
 0001:000102dc       _should_initialize_environment 00000001400112dc f   LIBCMT:env_mode.obj
 0001:000102e0       _initialize_invalid_parameter_handler 00000001400112e0 f   LIBCMT:invalid_parameter_handler.obj
 0001:000102e4       _initialize_denormal_control 00000001400112e4 f   LIBCMT:denormal_control.obj
 0001:000102e8       __scrt_initialize_default_local_stdio_options 00000001400112e8 f   LIBCMT:default_local_stdio_options.obj
 0001:0001030c       __scrt_is_user_matherr_present 000000014001130c f   LIBCMT:matherr_detection.obj
 0001:0001031c       __scrt_get_dyn_tls_init_callback 000000014001131c f   LIBCMT:dyn_tls_init.obj
 0001:00010328       __scrt_get_dyn_tls_dtor_callback 0000000140011328 f   LIBCMT:dyn_tls_dtor.obj
 0001:00010334       __crt_debugger_hook        0000000140011334 f   LIBCMT:utility_desktop.obj
 0001:00010340       __scrt_fastfail            0000000140011340 f   LIBCMT:utility_desktop.obj
 0001:000104e0       __scrt_get_show_window_mode 00000001400114e0 f   LIBCMT:utility_desktop.obj
 0001:00010528       __scrt_initialize_mta      0000000140011528 f   LIBCMT:utility_desktop.obj
 0001:00010530       __scrt_initialize_winrt    0000000140011530 f   LIBCMT:utility_desktop.obj
 0001:00010534       __scrt_is_managed_app      0000000140011534 f   LIBCMT:utility_desktop.obj
 0001:0001059c       __scrt_set_unhandled_exception_filter 000000014001159c f   LIBCMT:utility_desktop.obj
 0001:000105b0       __scrt_exe_initialize_mta  00000001400115b0 f   LIBCMT:utility_desktop.obj
 0001:000105b0       __scrt_stub_for_initialize_mta 00000001400115b0 f   LIBCMT:utility_desktop.obj
 0001:000105b4       __scrt_unhandled_exception_filter 00000001400115b4 f   LIBCMT:utility_desktop.obj
 0001:00010628       _RTC_Initialize            0000000140011628 f   LIBCMT:initsect.obj
 0001:00010674       _RTC_Terminate             0000000140011674 f   LIBCMT:initsect.obj
 0001:000106c0       _guard_check_icall_nop     00000001400116c0 f i LIBCMT:guard_support.obj
 0001:000106c4       ReadNoFence64              00000001400116c4 f i LIBCMT:guard_support.obj
 0001:000106c8       ReadPointerNoFence         00000001400116c8 f i LIBCMT:guard_support.obj
 0001:000106cc       __castguard_check_failure_debugbreak 00000001400116cc f i LIBCMT:guard_support.obj
 0001:000106f0       __castguard_check_failure_fastfail 00000001400116f0 f i LIBCMT:guard_support.obj
 0001:0001071c       __castguard_check_failure_nop 000000014001171c f i LIBCMT:guard_support.obj
 0001:00010720       __castguard_check_failure_os_handled 0000000140011720 f i LIBCMT:guard_support.obj
 0001:000107b4       __castguard_slow_path_check_debugbreak 00000001400117b4 f i LIBCMT:guard_support.obj
 0001:000107f8       __castguard_slow_path_check_fastfail 00000001400117f8 f i LIBCMT:guard_support.obj
 0001:00010840       __castguard_slow_path_check_nop 0000000140011840 f i LIBCMT:guard_support.obj
 0001:00010844       __castguard_slow_path_check_os_handled 0000000140011844 f i LIBCMT:guard_support.obj
 0001:000108cc       _guard_icall_checks_enforced 00000001400118cc f i LIBCMT:guard_support.obj
 0001:000108e8       _guard_rf_checks_enforced  00000001400118e8 f i LIBCMT:guard_support.obj
 0001:000108ec       __isa_available_init       00000001400118ec f   LIBCMT:cpu_disp.obj
 0001:00010b04       __scrt_is_ucrt_dll_in_use  0000000140011b04 f   LIBCMT:ucrt_detection.obj
 0001:00010b20       FreeLibrary                0000000140011b20 f   kernel32:KERNEL32.dll
 0001:00010b26       GetProcAddress             0000000140011b26 f   kernel32:KERNEL32.dll
 0001:00010b2c       LoadLibraryW               0000000140011b2c f   kernel32:KERNEL32.dll
 0001:00010b32       RtlCaptureContext          0000000140011b32 f   kernel32:KERNEL32.dll
 0001:00010b38       RtlLookupFunctionEntry     0000000140011b38 f   kernel32:KERNEL32.dll
 0001:00010b3e       RtlVirtualUnwind           0000000140011b3e f   kernel32:KERNEL32.dll
 0001:00010b44       UnhandledExceptionFilter   0000000140011b44 f   kernel32:KERNEL32.dll
 0001:00010b4a       SetUnhandledExceptionFilter 0000000140011b4a f   kernel32:KERNEL32.dll
 0001:00010b50       GetCurrentProcess          0000000140011b50 f   kernel32:KERNEL32.dll
 0001:00010b56       TerminateProcess           0000000140011b56 f   kernel32:KERNEL32.dll
 0001:00010b5c       IsProcessorFeaturePresent  0000000140011b5c f   kernel32:KERNEL32.dll
 0001:00010b62       QueryPerformanceCounter    0000000140011b62 f   kernel32:KERNEL32.dll
 0001:00010b68       GetCurrentProcessId        0000000140011b68 f   kernel32:KERNEL32.dll
 0001:00010b6e       GetCurrentThreadId         0000000140011b6e f   kernel32:KERNEL32.dll
 0001:00010b74       GetSystemTimeAsFileTime    0000000140011b74 f   kernel32:KERNEL32.dll
 0001:00010b7a       InitializeSListHead        0000000140011b7a f   kernel32:KERNEL32.dll
 0001:00010b80       IsDebuggerPresent          0000000140011b80 f   kernel32:KERNEL32.dll
 0001:00010b86       GetStartupInfoW            0000000140011b86 f   kernel32:KERNEL32.dll
 0001:00010b8c       GetModuleHandleW           0000000140011b8c f   kernel32:KERNEL32.dll
 0001:00010bb0       memcpy_repmovs             0000000140011bb0 f   libvcruntime:memcpy.obj
 0001:00010bd0       memcpy                     0000000140011bd0 f   libvcruntime:memcpy.obj
 0001:00010bd0       memmove                    0000000140011bd0 f   libvcruntime:memcpy.obj
 0001:000113f0       strstr                     00000001400123f0 f   libvcruntime:strstr.obj
 0001:00011664       __C_specific_handler       0000000140012664 f   libvcruntime:riscchandler.obj
 0001:000118d8       __vcrt_initialize          00000001400128d8 f   libvcruntime:initialization.obj
 0001:0001190c       __vcrt_thread_attach       000000014001290c f   libvcruntime:initialization.obj
 0001:00011928       __vcrt_thread_detach       0000000140012928 f   libvcruntime:initialization.obj
 0001:00011940       __vcrt_uninitialize        0000000140012940 f   libvcruntime:initialization.obj
 0001:00011960       __vcrt_uninitialize_critical 0000000140012960 f   libvcruntime:initialization.obj
 0001:00011988       ??$?RD@__crt_internal_free_policy@@QEBAXQEBD@Z 0000000140012988 f i libvcruntime:std_type_info.obj
 0001:00011994       ??$?RX@__crt_internal_free_policy@@QEBAXQEBX@Z 0000000140012994 f i libvcruntime:std_type_info.obj
 0001:000119a0       ??$__crt_interlocked_compare_exchange_pointer@$$CBDPEAD$$T@@YAPEBDPEDSEBDQEAD$$T@Z 00000001400129a0 f i libvcruntime:std_type_info.obj
 0001:000119ac       ??$__crt_interlocked_read_pointer@$$CBD@@YAPEBDPEDSEBD@Z 00000001400129ac f i libvcruntime:std_type_info.obj
 0001:000119b4       ??0?$__crt_unique_heap_ptr@DU__crt_internal_free_policy@@@@QEAA@QEAD@Z 00000001400129b4 f i libvcruntime:std_type_info.obj
 0001:000119bc       ??0?$__crt_unique_heap_ptr@XU__crt_internal_free_policy@@@@QEAA@QEAX@Z 00000001400129bc f i libvcruntime:std_type_info.obj
 0001:000119c4       ??1?$__crt_unique_heap_ptr@DU__crt_internal_free_policy@@@@QEAA@XZ 00000001400129c4 f i libvcruntime:std_type_info.obj
 0001:000119e8       ??1?$__crt_unique_heap_ptr@XU__crt_internal_free_policy@@@@QEAA@XZ 00000001400129e8 f i libvcruntime:std_type_info.obj
 0001:00011a0c       ??B?$__crt_unique_heap_ptr@DU__crt_internal_free_policy@@@@QEBA_NXZ 0000000140012a0c f i libvcruntime:std_type_info.obj
 0001:00011a18       ??B?$__crt_unique_heap_ptr@XU__crt_internal_free_policy@@@@QEBA_NXZ 0000000140012a18 f i libvcruntime:std_type_info.obj
 0001:00011a54       ?__crt_interlocked_read_64@@YA_JPED_J@Z 0000000140012a54 f i libvcruntime:std_type_info.obj
 0001:00011a5c       ?detach@?$__crt_unique_heap_ptr@XU__crt_internal_free_policy@@@@QEAAPEAXXZ 0000000140012a5c f i libvcruntime:std_type_info.obj
 0001:00011a68       ?get@?$__crt_unique_heap_ptr@DU__crt_internal_free_policy@@@@QEBAPEADXZ 0000000140012a68 f i libvcruntime:std_type_info.obj
 0001:00011a6c       ?get@?$__crt_unique_heap_ptr@XU__crt_internal_free_policy@@@@QEBAPEAXXZ 0000000140012a6c f i libvcruntime:std_type_info.obj
 0001:00011a70       ?is_valid@?$__crt_unique_heap_ptr@DU__crt_internal_free_policy@@@@QEBA_NXZ 0000000140012a70 f i libvcruntime:std_type_info.obj
 0001:00011a7c       ?is_valid@?$__crt_unique_heap_ptr@XU__crt_internal_free_policy@@@@QEBA_NXZ 0000000140012a7c f i libvcruntime:std_type_info.obj
 0001:00011a88       ?release@?$__crt_unique_heap_ptr@DU__crt_internal_free_policy@@@@QEAAXXZ 0000000140012a88 f i libvcruntime:std_type_info.obj
 0001:00011aac       ?release@?$__crt_unique_heap_ptr@XU__crt_internal_free_policy@@@@QEAAXXZ 0000000140012aac f i libvcruntime:std_type_info.obj
 0001:00011ad0       __std_type_info_compare    0000000140012ad0 f   libvcruntime:std_type_info.obj
 0001:00011b00       __std_type_info_destroy_list 0000000140012b00 f   libvcruntime:std_type_info.obj
 0001:00011b34       __std_type_info_hash       0000000140012b34 f   libvcruntime:std_type_info.obj
 0001:00011b7c       __std_type_info_name       0000000140012b7c f   libvcruntime:std_type_info.obj
 0001:00011cdc       __DestructExceptionObject  0000000140012cdc f   libvcruntime:ehhelpers.obj
 0001:00011d64       ?_CallMemberFunction0@@YAXQEAX0@Z 0000000140012d64 f i libvcruntime:ehhelpers.obj
 0001:00011dd8       ?raw_name@type_info@@QEBAPEBDXZ 0000000140012dd8 f i libvcruntime:ehhelpers.obj
 0001:00011de0       _IsExceptionObjectToBeDestroyed 0000000140012de0 f   libvcruntime:ehhelpers.obj
 0001:00011e1c       _SetWinRTOutOfMemoryExceptionCallback 0000000140012e1c f   libvcruntime:ehhelpers.obj
 0001:00011e28       __AdjustPointer            0000000140012e28 f   libvcruntime:ehhelpers.obj
 0001:00011e54       __FrameUnwindFilter        0000000140012e54 f   libvcruntime:ehhelpers.obj
 0001:00011ed4       __GetPlatformExceptionInfo 0000000140012ed4 f   libvcruntime:ehhelpers.obj
 0001:00011f48       __current_exception        0000000140012f48 f   libvcruntime:ehhelpers.obj
 0001:00011f60       __current_exception_context 0000000140012f60 f   libvcruntime:ehhelpers.obj
 0001:00011f78       __processing_throw         0000000140012f78 f   libvcruntime:ehhelpers.obj
 0001:00011f90       __std_terminate            0000000140012f90 f   libvcruntime:ehhelpers.obj
 0001:00011f9c       _is_exception_typeof       0000000140012f9c f   libvcruntime:ehhelpers.obj
 0001:00012080       memset_repstos             0000000140013080 f   libvcruntime:memset.obj
 0001:000120a0       memset                     00000001400130a0 f   libvcruntime:memset.obj
 0001:00012530       _NLG_Notify                0000000140013530 f   libvcruntime:notify.obj
 0001:00012550       __NLG_Dispatch2            0000000140013550 f   libvcruntime:notify.obj
 0001:00012560       __NLG_Return2              0000000140013560 f   libvcruntime:notify.obj
 0001:0001257c       __except_validate_context_record 000000014001357c f   libvcruntime:jbcxrval.obj
 0001:000125c0       __except_validate_jump_buffer 00000001400135c0 f   libvcruntime:jbcxrval.obj
 0001:00012610       __except_validate_jump_buffer_common 0000000140013610 f i libvcruntime:jbcxrval.obj
 0001:00012684       ??$?RU__vcrt_ptd@@@__crt_internal_free_policy@@QEBAXQEBU__vcrt_ptd@@@Z 0000000140013684 f i libvcruntime:per_thread_data.obj
 0001:00012690       ??0?$__crt_unique_heap_ptr@U__vcrt_ptd@@U__crt_internal_free_policy@@@@QEAA@QEAU__vcrt_ptd@@@Z 0000000140013690 f i libvcruntime:per_thread_data.obj
 0001:000126b8       ??1?$__crt_unique_heap_ptr@U__vcrt_ptd@@U__crt_internal_free_policy@@@@QEAA@XZ 00000001400136b8 f i libvcruntime:per_thread_data.obj
 0001:000126e8       ??B?$__crt_unique_heap_ptr@U__vcrt_ptd@@U__crt_internal_free_policy@@@@QEBA_NXZ 00000001400136e8 f i libvcruntime:per_thread_data.obj
 0001:000126f4       ?detach@?$__crt_unique_heap_ptr@U__vcrt_ptd@@U__crt_internal_free_policy@@@@QEAAPEAU__vcrt_ptd@@XZ 00000001400136f4 f i libvcruntime:per_thread_data.obj
 0001:00012700       ?get@?$__crt_unique_heap_ptr@U__vcrt_ptd@@U__crt_internal_free_policy@@@@QEBAPEAU__vcrt_ptd@@XZ 0000000140013700 f i libvcruntime:per_thread_data.obj
 0001:00012704       ?is_valid@?$__crt_unique_heap_ptr@U__vcrt_ptd@@U__crt_internal_free_policy@@@@QEBA_NXZ 0000000140013704 f i libvcruntime:per_thread_data.obj
 0001:00012710       ?release@?$__crt_unique_heap_ptr@U__vcrt_ptd@@U__crt_internal_free_policy@@@@QEAAXXZ 0000000140013710 f i libvcruntime:per_thread_data.obj
 0001:00012768       __vcrt_freefls             0000000140013768 f   libvcruntime:per_thread_data.obj
 0001:00012790       __vcrt_freeptd             0000000140013790 f   libvcruntime:per_thread_data.obj
 0001:000127f0       __vcrt_getptd              00000001400137f0 f   libvcruntime:per_thread_data.obj
 0001:00012810       __vcrt_getptd_noexit       0000000140013810 f   libvcruntime:per_thread_data.obj
 0001:00012900       __vcrt_getptd_noinit       0000000140013900 f   libvcruntime:per_thread_data.obj
 0001:00012960       __vcrt_initialize_ptd      0000000140013960 f   libvcruntime:per_thread_data.obj
 0001:000129b8       __vcrt_uninitialize_ptd    00000001400139b8 f   libvcruntime:per_thread_data.obj
 0001:000129e4       __vcrt_initialize_locks    00000001400139e4 f   libvcruntime:locks.obj
 0001:00012a3c       __vcrt_lock                0000000140013a3c f   libvcruntime:locks.obj
 0001:00012a5c       __vcrt_uninitialize_locks  0000000140013a5c f   libvcruntime:locks.obj
 0001:00012aa0       __vcrt_unlock              0000000140013aa0 f   libvcruntime:locks.obj
 0001:00012ac0       ??$?0$00@DName@@QEAA@PEBDU?$StringLifeSelector@$00@@@Z 0000000140013ac0 f i libvcruntime:undname.obj
 0001:00012b10       ??$?0$00@pcharNode@@QEAA@PEBDHU?$StringLifeSelector@$00@@@Z 0000000140013b10 f i libvcruntime:undname.obj
 0001:00012b2c       ??$?0$01@DName@@QEAA@PEBDU?$StringLifeSelector@$01@@@Z 0000000140013b2c f i libvcruntime:undname.obj
 0001:00012b7c       ??$?0$01@pcharNode@@QEAA@PEBDHU?$StringLifeSelector@$01@@@Z 0000000140013b7c f i libvcruntime:undname.obj
 0001:00012c0c       ??$?0$0A@@DName@@QEAA@PEBDU?$StringLifeSelector@$0A@@@@Z 0000000140013c0c f i libvcruntime:undname.obj
 0001:00012c5c       ??$?0$0A@@pcharNode@@QEAA@PEBDHU?$StringLifeSelector@$0A@@@@Z 0000000140013c5c f i libvcruntime:undname.obj
 0001:00012cec       ??$?0_K$0A@@?$optional@_K@std@@QEAA@$$QEA_K@Z 0000000140013cec f i libvcruntime:undname.obj
 0001:00012d00       ??$?0_K@?$_Optional_construct_base@_K@std@@QEAA@Uin_place_t@1@$$QEA_K@Z 0000000140013d00 f i libvcruntime:undname.obj
 0001:00012d14       ??$?0_K@?$_Optional_destruct_base@_K$00@std@@QEAA@Uin_place_t@1@$$QEA_K@Z 0000000140013d14 f i libvcruntime:undname.obj
 0001:00012d28       ??$append@VDNameNode@@@DName@@AEAAXPEBVDNameNode@@@Z 0000000140013d28 f i libvcruntime:undname.obj
 0001:00012da4       ??$append@VDNameStatusNode@@@DName@@AEAAXPEBVDNameStatusNode@@@Z 0000000140013da4 f i libvcruntime:undname.obj
 0001:00012e20       ??$append@VcharNode@@@DName@@AEAAXPEBVcharNode@@@Z 0000000140013e20 f i libvcruntime:undname.obj
 0001:00012e9c       ??$append@VpDNameNode@@@DName@@AEAAXPEBVpDNameNode@@@Z 0000000140013e9c f i libvcruntime:undname.obj
 0001:00012f18       ??$append@VpcharNode@@@DName@@AEAAXPEBVpcharNode@@@Z 0000000140013f18 f i libvcruntime:undname.obj
 0001:00012f94       ??$doPchar@$00@DName@@AEAAXPEBDH@Z 0000000140013f94 f i libvcruntime:undname.obj
 0001:00013060       ??$doPchar@$01@DName@@AEAAXPEBDH@Z 0000000140014060 f i libvcruntime:undname.obj
 0001:0001311c       ??$doPchar@$0A@@DName@@AEAAXPEBDH@Z 000000014001411c f i libvcruntime:undname.obj
 0001:000131d8       ??$forward@_K@std@@YA$$QEA_KAEA_K@Z 00000001400141d8 f i libvcruntime:undname.obj
 0001:0001333c       ??$size@D$04@std@@YA_KAEAY04$$CBD@Z 000000014001433c f i libvcruntime:undname.obj
 0001:00013344       ??0?$_Optional_construct_base@_K@std@@QEAA@XZ 0000000140014344 f i libvcruntime:undname.obj
 0001:00013350       ??0?$_Optional_destruct_base@_K$00@std@@QEAA@XZ 0000000140014350 f i libvcruntime:undname.obj
 0001:0001335c       ??0?$optional@_K@std@@QEAA@XZ 000000014001435c f i libvcruntime:undname.obj
 0001:00013368       ??0Block@_HeapManager@@QEAA@XZ 0000000140014368 f i libvcruntime:undname.obj
 0001:00013374       ??0DName@@QEAA@AEAPEBDD@Z  0000000140014374 f   libvcruntime:undname.obj
 0001:00013450       ??0DName@@QEAA@AEBUStringLiteral@@@Z 0000000140014450 f   libvcruntime:undname.obj
 0001:00013488       ??0DName@@QEAA@AEBV0@@Z    0000000140014488 f i libvcruntime:undname.obj
 0001:0001349c       ??0DName@@QEAA@D@Z         000000014001449c f   libvcruntime:undname.obj
 0001:000134c4       ??0DName@@QEAA@PEAV0@@Z    00000001400144c4 f   libvcruntime:undname.obj
 0001:00013568       ??0DName@@QEAA@W4DNameStatus@@@Z 0000000140014568 f   libvcruntime:undname.obj
 0001:000135a0       ??0DName@@QEAA@XZ          00000001400145a0 f i libvcruntime:undname.obj
 0001:000135b0       ??0DName@@QEAA@_J@Z        00000001400145b0 f   libvcruntime:undname.obj
 0001:00013680       ??0DName@@QEAA@_K@Z        0000000140014680 f   libvcruntime:undname.obj
 0001:0001372c       ??0DNameNode@@IEAA@XZ      000000014001472c f i libvcruntime:undname.obj
 0001:00013740       ??0Replicator@@QEAA@XZ     0000000140014740 f i libvcruntime:undname.obj
 0001:00013754       ??0UnDecorator@@QEAA@PEBDP6APEADJ@ZK@Z 0000000140014754 f i libvcruntime:undname.obj
 0001:000137b8       ??0_Nontrivial_dummy_type@std@@QEAA@XZ 00000001400147b8 f i libvcruntime:undname.obj
 0001:000137bc       ??0charNode@@QEAA@D@Z      00000001400147bc f i libvcruntime:undname.obj
 0001:000137d4       ??0pDNameNode@@QEAA@PEAVDName@@@Z 00000001400147d4 f   libvcruntime:undname.obj
 0001:00013804       ??0pairNode@@QEAA@PEBVDNameNode@@0@Z 0000000140014804 f i libvcruntime:undname.obj
 0001:0001382c       ??2@YAPEAX_KAEAV_HeapManager@@H@Z 000000014001482c f   libvcruntime:undname.obj
 0001:00013860       ??4DName@@QEAAAEAV0@AEBUStringLiteral@@@Z 0000000140014860 f   libvcruntime:undname.obj
 0001:00013890       ??4DName@@QEAAAEAV0@AEBV0@@Z 0000000140014890 f   libvcruntime:undname.obj
 0001:000138a4       ??4DName@@QEAAAEAV0@D@Z    00000001400148a4 f i libvcruntime:undname.obj
 0001:000138cc       ??4DName@@QEAAAEAV0@PEAV0@@Z 00000001400148cc f   libvcruntime:undname.obj
 0001:00013960       ??4DName@@QEAAAEAV0@W4DNameStatus@@@Z 0000000140014960 f   libvcruntime:undname.obj
 0001:0001399c       ??AReplicator@@QEBA?AVDName@@H@Z 000000014001499c f   libvcruntime:undname.obj
 0001:000139ec       ??B?$optional@_K@std@@QEBA_NXZ 00000001400149ec f i libvcruntime:undname.obj
 0001:000139f0       ??D?$_Optional_construct_base@_K@std@@QEGAAAEA_KXZ 00000001400149f0 f i libvcruntime:undname.obj
 0001:000139f4       ??H@YA?AVDName@@AEBUStringLiteral@@AEBV0@@Z 00000001400149f4 f i libvcruntime:undname.obj
 0001:00013a38       ??H@YA?AVDName@@DAEBV0@@Z  0000000140014a38 f i libvcruntime:undname.obj
 0001:00013a8c       ??H@YA?AVDName@@W4DNameStatus@@AEBV0@@Z 0000000140014a8c f i libvcruntime:undname.obj
 0001:00013ae8       ??HDName@@QEBA?AV0@AEBUStringLiteral@@@Z 0000000140014ae8 f   libvcruntime:undname.obj
 0001:00013b1c       ??HDName@@QEBA?AV0@AEBV0@@Z 0000000140014b1c f   libvcruntime:undname.obj
 0001:00013b50       ??HDName@@QEBA?AV0@D@Z     0000000140014b50 f   libvcruntime:undname.obj
 0001:00013b84       ??HDName@@QEBA?AV0@PEAV0@@Z 0000000140014b84 f   libvcruntime:undname.obj
 0001:00013bb8       ??HDName@@QEBA?AV0@W4DNameStatus@@@Z 0000000140014bb8 f   libvcruntime:undname.obj
 0001:00013bec       ??HStringLiteral@@QEBA?AU0@H@Z 0000000140014bec f i libvcruntime:undname.obj
 0001:00013c08       ??YDName@@QEAAAEAV0@AEBUStringLiteral@@@Z 0000000140014c08 f   libvcruntime:undname.obj
 0001:00013ca8       ??YDName@@QEAAAEAV0@AEBV0@@Z 0000000140014ca8 f   libvcruntime:undname.obj
 0001:00013d18       ??YDName@@QEAAAEAV0@D@Z    0000000140014d18 f   libvcruntime:undname.obj
 0001:00013da0       ??YDName@@QEAAAEAV0@PEAV0@@Z 0000000140014da0 f   libvcruntime:undname.obj
 0001:00013e58       ??YDName@@QEAAAEAV0@W4DNameStatus@@@Z 0000000140014e58 f   libvcruntime:undname.obj
 0001:00013ec4       ??YReplicator@@QEAAAEAV0@AEBVDName@@@Z 0000000140014ec4 f   libvcruntime:undname.obj
 0001:00013f34       ??_5DName@@QEAAAEAV0@AEBV0@@Z 0000000140014f34 f   libvcruntime:undname.obj
 0001:00013f50       ??__K_l@@YA?AUStringLiteral@@PEBD_K@Z 0000000140014f50 f i libvcruntime:undname.obj
 0001:00013f60       ?Constructor@_HeapManager@@QEAAXP6APEAX_K@ZP6AXPEAX@Z@Z 0000000140014f60 f i libvcruntime:undname.obj
 0001:00013f7c       ?Destructor@_HeapManager@@QEAAXXZ 0000000140014f7c f i libvcruntime:undname.obj
 0001:00013fd8       ?UScore@UnDecorator@@SA?AUStringLiteral@@W4Tokens@@@Z 0000000140014fd8 f   libvcruntime:undname.obj
 0001:00014038       ?composeDeclaration@UnDecorator@@CA?AVDName@@AEBV2@@Z 0000000140015038 f i libvcruntime:undname.obj
 0001:00015274       ?doAccessSpecifiers@UnDecorator@@SAHXZ 0000000140016274 f i libvcruntime:undname.obj
 0001:00015288       ?doAllocationLanguage@UnDecorator@@SAHXZ 0000000140016288 f i libvcruntime:undname.obj
 0001:0001529c       ?doAllocationModel@UnDecorator@@SAHXZ 000000014001629c f i libvcruntime:undname.obj
 0001:000152b0       ?doEcsu@UnDecorator@@SAHXZ 00000001400162b0 f i libvcruntime:undname.obj
 0001:000152c4       ?doEllipsis@UnDecorator@@SAHXZ 00000001400162c4 f i libvcruntime:undname.obj
 0001:000152d8       ?doFunctionReturns@UnDecorator@@SAHXZ 00000001400162d8 f i libvcruntime:undname.obj
 0001:000152ec       ?doMSKeywords@UnDecorator@@SAHXZ 00000001400162ec f i libvcruntime:undname.obj
 0001:00015300       ?doMemberTypes@UnDecorator@@SAHXZ 0000000140016300 f i libvcruntime:undname.obj
 0001:00015314       ?doNameOnly@UnDecorator@@SAHXZ 0000000140016314 f i libvcruntime:undname.obj
 0001:00015324       ?doNoIdentCharCheck@UnDecorator@@SAHXZ 0000000140016324 f i libvcruntime:undname.obj
 0001:00015334       ?doPchar@DName@@AEAAXD@Z   0000000140016334 f   libvcruntime:undname.obj
 0001:00015398       ?doPtr64@UnDecorator@@SAHXZ 0000000140016398 f i libvcruntime:undname.obj
 0001:000153ac       ?doRestrictionSpec@UnDecorator@@SAHXZ 00000001400163ac f i libvcruntime:undname.obj
 0001:000153c0       ?doThisTypes@UnDecorator@@SAHXZ 00000001400163c0 f i libvcruntime:undname.obj
 0001:000153d8       ?doThrowTypes@UnDecorator@@SAHXZ 00000001400163d8 f i libvcruntime:undname.obj
 0001:000153ec       ?doTypeOnly@UnDecorator@@SAHXZ 00000001400163ec f i libvcruntime:undname.obj
 0001:000153fc       ?doUnderScore@UnDecorator@@SAHXZ 00000001400163fc f i libvcruntime:undname.obj
 0001:0001540c       ?getAddressOf@UnDecorator@@CA?AVDName@@XZ 000000014001640c f   libvcruntime:undname.obj
 0001:000154c0       ?getArgumentList@UnDecorator@@CA?AVDName@@XZ 00000001400164c0 f   libvcruntime:undname.obj
 0001:000156e4       ?getArgumentTypes@UnDecorator@@CA?AVDName@@XZ 00000001400166e4 f   libvcruntime:undname.obj
 0001:00015884       ?getArrayAccess@UnDecorator@@CA?AVDName@@XZ 0000000140016884 f   libvcruntime:undname.obj
 0001:00015944       ?getArrayObject@UnDecorator@@CA?AVDName@@XZ 0000000140016944 f   libvcruntime:undname.obj
 0001:00015a2c       ?getArrayType@UnDecorator@@CA?AVDName@@AEBV2@@Z 0000000140016a2c f i libvcruntime:undname.obj
 0001:00015d04       ?getBasedType@UnDecorator@@CA?AVDName@@XZ 0000000140016d04 f   libvcruntime:undname.obj
 0001:00015e38       ?getBasicDataType@UnDecorator@@CA?AVDName@@AEBV2@@Z 0000000140016e38 f   libvcruntime:undname.obj
 0001:000165b8       ?getCHPEName@UnDecorator@@QEAAPEADPEADH@Z 00000001400175b8 f i libvcruntime:undname.obj
 0001:0001671c       ?getCallIndex@UnDecorator@@CA?AVDName@@XZ 000000014001771c f i libvcruntime:undname.obj
 0001:0001673c       ?getCallingConvention@UnDecorator@@CA?AVDName@@XZ 000000014001773c f   libvcruntime:undname.obj
 0001:000168dc       ?getDataIndirectType@UnDecorator@@CA?AVDName@@AEBV2@W4IndirectionKind@@0H@Z 00000001400178dc f   libvcruntime:undname.obj
 0001:000173d4       ?getDataIndirectType@UnDecorator@@CA?AVDName@@XZ 00000001400183d4 f i libvcruntime:undname.obj
 0001:0001741c       ?getDataType@UnDecorator@@CA?AVDName@@PEAV2@@Z 000000014001841c f   libvcruntime:undname.obj
 0001:00017574       ?getDecoratedName@UnDecorator@@CA?AVDName@@XZ 0000000140018574 f   libvcruntime:undname.obj
 0001:00017914       ?getDimension@UnDecorator@@CA?AVDName@@_N@Z 0000000140018914 f   libvcruntime:undname.obj
 0001:00017ab0       ?getDispatchTarget@UnDecorator@@CA?AVDName@@XZ 0000000140018ab0 f   libvcruntime:undname.obj
 0001:00017b10       ?getDisplacement@UnDecorator@@CA?AVDName@@XZ 0000000140018b10 f i libvcruntime:undname.obj
 0001:00017b30       ?getECSUDataType@UnDecorator@@CA?AVDName@@XZ 0000000140018b30 f   libvcruntime:undname.obj
 0001:00017d88       ?getECSUName@UnDecorator@@CA?AVDName@@XZ 0000000140018d88 f i libvcruntime:undname.obj
 0001:00017da4       ?getEnumType@UnDecorator@@CA?AVDName@@XZ 0000000140018da4 f i libvcruntime:undname.obj
 0001:00017f20       ?getExtendedDataIndirectType@UnDecorator@@CA?AVDName@@AEAW4IndirectionKind@@AEA_NH@Z 0000000140018f20 f   libvcruntime:undname.obj
 0001:000181a4       ?getExternalDataType@UnDecorator@@CA?AVDName@@AEBV2@@Z 00000001400191a4 f i libvcruntime:undname.obj
 0001:00018294       ?getFloatingPoint@UnDecorator@@CA?AVDName@@H@Z 0000000140019294 f   libvcruntime:undname.obj
 0001:00018454       ?getFunctionIndirectType@UnDecorator@@CA?AVDName@@AEBV2@@Z 0000000140019454 f   libvcruntime:undname.obj
 0001:00018ac4       ?getGuardNumber@UnDecorator@@CA?AVDName@@XZ 0000000140019ac4 f i libvcruntime:undname.obj
 0001:00018ae4       ?getLastChar@DName@@QEBADXZ 0000000140019ae4 f i libvcruntime:undname.obj
 0001:00018b04       ?getLastChar@DNameStatusNode@@UEBADXZ 0000000140019b04 f i libvcruntime:undname.obj
 0001:00018b14       ?getLastChar@charNode@@UEBADXZ 0000000140019b14 f i libvcruntime:undname.obj
 0001:00018b18       ?getLastChar@pDNameNode@@UEBADXZ 0000000140019b18 f i libvcruntime:undname.obj
 0001:00018b4c       ?getLastChar@pairNode@@UEBADXZ 0000000140019b4c f i libvcruntime:undname.obj
 0001:00018b90       ?getLastChar@pcharNode@@UEBADXZ 0000000140019b90 f i libvcruntime:undname.obj
 0001:00018bac       ?getLexicalFrame@UnDecorator@@CA?AVDName@@XZ 0000000140019bac f i libvcruntime:undname.obj
 0001:00018c28       ?getMemberAccess@UnDecorator@@CA?AVDName@@XZ 0000000140019c28 f   libvcruntime:undname.obj
 0001:00018ce0       ?getMemoryWithBuffer@_HeapManager@@QEAAPEAX_K@Z 0000000140019ce0 f   libvcruntime:undname.obj
 0001:00018d94       ?getMemoryWithoutBuffer@_HeapManager@@QEAAPEAX_K@Z 0000000140019d94 f   libvcruntime:undname.obj
 0001:00018dac       ?getNoexcept@UnDecorator@@CA?AVDName@@XZ 0000000140019dac f   libvcruntime:undname.obj
 0001:00018e28       ?getNumberOfDimensions@UnDecorator@@CAHXZ 0000000140019e28 f   libvcruntime:undname.obj
 0001:00018eac       ?getOperatorName@UnDecorator@@CA?AVDName@@_NPEA_N@Z 0000000140019eac f i libvcruntime:undname.obj
 0001:00019b38       ?getPointerToMember@UnDecorator@@CA?AVDName@@XZ 000000014001ab38 f   libvcruntime:undname.obj
 0001:00019c6c       ?getPointerType@UnDecorator@@CA?AVDName@@AEBV2@0@Z 000000014001ac6c f i libvcruntime:undname.obj
 0001:00019c90       ?getPointerTypeArray@UnDecorator@@CA?AVDName@@AEBV2@0@Z 000000014001ac90 f i libvcruntime:undname.obj
 0001:00019cb0       ?getPrimaryDataType@UnDecorator@@CA?AVDName@@AEBV2@@Z 000000014001acb0 f   libvcruntime:undname.obj
 0001:0001a018       ?getPtrRefDataType@UnDecorator@@CA?AVDName@@AEBV2@H@Z 000000014001b018 f   libvcruntime:undname.obj
 0001:0001a258       ?getPtrRefType@UnDecorator@@CA?AVDName@@AEBV2@0W4IndirectionKind@@@Z 000000014001b258 f   libvcruntime:undname.obj
 0001:0001a4a4       ?getReferenceType@UnDecorator@@CA?AVDName@@AEBV2@0W4IndirectionKind@@@Z 000000014001b4a4 f i libvcruntime:undname.obj
 0001:0001a4c0       ?getRestrictionSpec@UnDecorator@@CA?AVDName@@XZ 000000014001b4c0 f   libvcruntime:undname.obj
 0001:0001a710       ?getReturnType@UnDecorator@@CA?AVDName@@PEAV2@@Z 000000014001b710 f   libvcruntime:undname.obj
 0001:0001a754       ?getScope@UnDecorator@@CA?AVDName@@XZ 000000014001b754 f   libvcruntime:undname.obj
 0001:0001ad3c       ?getScopedName@UnDecorator@@CA?AVDName@@XZ 000000014001bd3c f   libvcruntime:undname.obj
 0001:0001aec8       ?getSignedDimension@UnDecorator@@CA?AVDName@@XZ 000000014001bec8 f   libvcruntime:undname.obj
 0001:0001af70       ?getStorageConvention@UnDecorator@@CA?AVDName@@XZ 000000014001bf70 f i libvcruntime:undname.obj
 0001:0001afb8       ?getString@DName@@QEBAPEADPEAD0@Z 000000014001bfb8 f i libvcruntime:undname.obj
 0001:0001afd8       ?getString@DName@@QEBAPEADPEADH@Z 000000014001bfd8 f i libvcruntime:undname.obj
 0001:0001b090       ?getString@DNameStatusNode@@UEBAPEADPEAD0@Z 000000014001c090 f i libvcruntime:undname.obj
 0001:0001b0e8       ?getString@charNode@@UEBAPEADPEAD0@Z 000000014001c0e8 f i libvcruntime:undname.obj
 0001:0001b100       ?getString@pDNameNode@@UEBAPEADPEAD0@Z 000000014001c100 f i libvcruntime:undname.obj
 0001:0001b138       ?getString@pairNode@@UEBAPEADPEAD0@Z 000000014001c138 f i libvcruntime:undname.obj
 0001:0001b198       ?getString@pcharNode@@UEBAPEADPEAD0@Z 000000014001c198 f i libvcruntime:undname.obj
 0001:0001b1dc       ?getStringEncoding@UnDecorator@@CA?AVDName@@W4PrefixKind@@H@Z 000000014001c1dc f   libvcruntime:undname.obj
 0001:0001b308       ?getStringHelper@@YAPEADPEADPEBD1H@Z 000000014001c308 f i libvcruntime:undname.obj
 0001:0001b340       ?getStringObject@UnDecorator@@CA?AVDName@@XZ 000000014001c340 f   libvcruntime:undname.obj
 0001:0001b3c4       ?getSymbolName@UnDecorator@@CA?AVDName@@XZ 000000014001c3c4 f i libvcruntime:undname.obj
 0001:0001b424       ?getTemplateArgumentList@UnDecorator@@CA?AVDName@@XZ 000000014001c424 f   libvcruntime:undname.obj
 0001:0001b6c8       ?getTemplateName@UnDecorator@@CA?AVDName@@_N@Z 000000014001c6c8 f   libvcruntime:undname.obj
 0001:0001ba00       ?getTemplateNonTypeArgument@UnDecorator@@CA?AVDName@@XZ 000000014001ca00 f   libvcruntime:undname.obj
 0001:0001c0a4       ?getTemplateTypeArgument@UnDecorator@@CA?AVDName@@XZ 000000014001d0a4 f   libvcruntime:undname.obj
 0001:0001c268       ?getThisType@UnDecorator@@CA?AVDName@@XZ 000000014001d268 f i libvcruntime:undname.obj
 0001:0001c2b8       ?getThrowTypes@UnDecorator@@CA?AVDName@@XZ 000000014001d2b8 f   libvcruntime:undname.obj
 0001:0001c2e4       ?getTypeEncoding@UnDecorator@@CAHXZ 000000014001d2e4 f i libvcruntime:undname.obj
 0001:0001c764       ?getUndecoratedName@UnDecorator@@QEAAPEADPEADH@Z 000000014001d764 f i libvcruntime:undname.obj
 0001:0001c90c       ?getUnionObject@UnDecorator@@CA?AVDName@@XZ 000000014001d90c f   libvcruntime:undname.obj
 0001:0001ca18       ?getVCallThunkType@UnDecorator@@CA?AVDName@@XZ 000000014001da18 f i libvcruntime:undname.obj
 0001:0001caac       ?getValue@UnDecorator@@CA?AV?$optional@_K@std@@XZ 000000014001daac f   libvcruntime:undname.obj
 0001:0001cb3c       ?getValueObject@UnDecorator@@CA?AVDName@@XZ 000000014001db3c f   libvcruntime:undname.obj
 0001:0001cccc       ?getVbTableType@UnDecorator@@CA?AVDName@@AEBV2@@Z 000000014001dccc f i libvcruntime:undname.obj
 0001:0001cce8       ?getVdispMapType@UnDecorator@@CA?AVDName@@AEBV2@@Z 000000014001dce8 f i libvcruntime:undname.obj
 0001:0001cd84       ?getVfTableType@UnDecorator@@CA?AVDName@@AEBV2@@Z 000000014001dd84 f i libvcruntime:undname.obj
 0001:0001d010       ?getZName@UnDecorator@@CA?AVDName@@_N0@Z 000000014001e010 f   libvcruntime:undname.obj
 0001:0001d3a8       ?haveTemplateParameters@UnDecorator@@SAHXZ 000000014001e3a8 f i libvcruntime:undname.obj
 0001:0001d3b8       ?isArray@DName@@QEBAHXZ    000000014001e3b8 f i libvcruntime:undname.obj
 0001:0001d3c4       ?isComArray@DName@@QEBAHXZ 000000014001e3c4 f i libvcruntime:undname.obj
 0001:0001d3d0       ?isEmpty@DName@@QEBAHXZ    000000014001e3d0 f i libvcruntime:undname.obj
 0001:0001d3dc       ?isFull@Replicator@@QEBAHXZ 000000014001e3dc f i libvcruntime:undname.obj
 0001:0001d3e8       ?isNoTE@DName@@QEBAHXZ     000000014001e3e8 f i libvcruntime:undname.obj
 0001:0001d3f4       ?isPinPtr@DName@@QEBAHXZ   000000014001e3f4 f i libvcruntime:undname.obj
 0001:0001d400       ?isPtrRef@DName@@QEBAHXZ   000000014001e400 f i libvcruntime:undname.obj
 0001:0001d40c       ?isUDC@DName@@QEBAHXZ      000000014001e40c f i libvcruntime:undname.obj
 0001:0001d428       ?isUDTThunk@DName@@QEBAHXZ 000000014001e428 f i libvcruntime:undname.obj
 0001:0001d444       ?isVCallThunk@DName@@QEBAHXZ 000000014001e444 f i libvcruntime:undname.obj
 0001:0001d450       ?isValid@DName@@QEBAHXZ    000000014001e450 f i libvcruntime:undname.obj
 0001:0001d45c       ?length@DName@@QEBAHXZ     000000014001e45c f i libvcruntime:undname.obj
 0001:0001d47c       ?length@DNameStatusNode@@UEBAHXZ 000000014001e47c f i libvcruntime:undname.obj
 0001:0001d480       ?length@charNode@@UEBAHXZ  000000014001e480 f i libvcruntime:undname.obj
 0001:0001d488       ?length@pDNameNode@@UEBAHXZ 000000014001e488 f i libvcruntime:undname.obj
 0001:0001d4bc       ?length@pairNode@@UEBAHXZ  000000014001e4bc f i libvcruntime:undname.obj
 0001:0001d514       ?length@pcharNode@@UEBAHXZ 000000014001e514 f i libvcruntime:undname.obj
 0001:0001d518       ?make@DNameStatusNode@@SAPEBV1@W4DNameStatus@@@Z 000000014001e518 f i libvcruntime:undname.obj
 0001:0001d540       ?parseDecoratedName@UnDecorator@@CA?AVDName@@XZ 000000014001e540 f   libvcruntime:undname.obj
 0001:0001d698       ?raw_length@DNameStatusNode@@UEBAHXZ 000000014001e698 f i libvcruntime:undname.obj
 0001:0001d69c       ?raw_length@charNode@@UEBAHXZ 000000014001e69c f i libvcruntime:undname.obj
 0001:0001d6a4       ?raw_length@pDNameNode@@UEBAHXZ 000000014001e6a4 f i libvcruntime:undname.obj
 0001:0001d6a8       ?raw_length@pairNode@@UEBAHXZ 000000014001e6a8 f i libvcruntime:undname.obj
 0001:0001d6ac       ?raw_length@pcharNode@@UEBAHXZ 000000014001e6ac f i libvcruntime:undname.obj
 0001:0001d6b0       ?setIsArray@DName@@QEAAXXZ 000000014001e6b0 f i libvcruntime:undname.obj
 0001:0001d6b8       ?setIsComArray@DName@@QEAAXXZ 000000014001e6b8 f i libvcruntime:undname.obj
 0001:0001d6c0       ?setIsNoTE@DName@@QEAAXXZ  000000014001e6c0 f i libvcruntime:undname.obj
 0001:0001d6c8       ?setIsPinPtr@DName@@QEAAXXZ 000000014001e6c8 f i libvcruntime:undname.obj
 0001:0001d6d0       ?setIsUDC@DName@@QEAAXXZ   000000014001e6d0 f i libvcruntime:undname.obj
 0001:0001d6e0       ?setIsVCallThunk@DName@@QEAAXXZ 000000014001e6e0 f i libvcruntime:undname.obj
 0001:0001d6e8       ?setPtrRef@DName@@QEAAAEAV1@XZ 000000014001e6e8 f i libvcruntime:undname.obj
 0001:0001d6f4       ?status@DName@@QEBA?AW4DNameStatus@@XZ 000000014001e6f4 f i libvcruntime:undname.obj
 0001:0001d76c       __unDName                  000000014001e76c f   libvcruntime:undname.obj
 0001:0001d79c       __unDNameEx                000000014001e79c f   libvcruntime:undname.obj
 0001:0001d91c       _vsprintf_s_l              000000014001e91c f i libvcruntime:undname.obj
 0001:0001d998       snprintf                   000000014001e998 f i libvcruntime:undname.obj
 0001:0001da04       sprintf_s                  000000014001ea04 f i libvcruntime:undname.obj
 0001:0001da6c       unDNameGenerateCHPE        000000014001ea6c f   libvcruntime:undname.obj
 0001:0001dbb4       vsnprintf                  000000014001ebb4 f i libvcruntime:undname.obj
 0001:0001dc30       ??$__crt_interlocked_exchange_pointer@UHINSTANCE__@@PEAU1@@@YAPEAUHINSTANCE__@@PEDSEAU0@QEAU0@@Z 000000014001ec30 f i libvcruntime:winapi_downlevel.obj
 0001:0001dc38       ??$__crt_interlocked_exchange_pointer@UHINSTANCE__@@PEAX@@YAPEAUHINSTANCE__@@PEDSEAU0@QEAX@Z 000000014001ec38 f i libvcruntime:winapi_downlevel.obj
 0001:0001dc40       ??$__crt_interlocked_exchange_pointer@XPEAX@@YAPEAXPEDSEAXQEAX@Z 000000014001ec40 f i libvcruntime:winapi_downlevel.obj
 0001:0001dc48       ??$__crt_interlocked_read_pointer@UHINSTANCE__@@@@YAPEAUHINSTANCE__@@PEDSEAU0@@Z 000000014001ec48 f i libvcruntime:winapi_downlevel.obj
 0001:0001dc50       ??$__crt_interlocked_read_pointer@X@@YAPEAXPEDSEAX@Z 000000014001ec50 f i libvcruntime:winapi_downlevel.obj
 0001:0001e2d8       __vcrt_FlsAlloc            000000014001f2d8 f   libvcruntime:winapi_downlevel.obj
 0001:0001e330       __vcrt_FlsFree             000000014001f330 f   libvcruntime:winapi_downlevel.obj
 0001:0001e388       __vcrt_FlsGetValue         000000014001f388 f   libvcruntime:winapi_downlevel.obj
 0001:0001e3e0       __vcrt_FlsSetValue         000000014001f3e0 f   libvcruntime:winapi_downlevel.obj
 0001:0001e448       __vcrt_InitializeCriticalSectionEx 000000014001f448 f   libvcruntime:winapi_downlevel.obj
 0001:0001e4c4       ??$__crt_interlocked_exchange_pointer@$$A6AXXZP6AXXZ@@YAP6AXXZPEDS6AXXZQ6AXXZ@Z 000000014001f4c4 f i libvcruntime:purevirt.obj
 0001:0001e4cc       ??$__crt_interlocked_read_pointer@$$A6AXXZ@@YAP6AXXZPEDS6AXXZ@Z 000000014001f4cc f i libvcruntime:purevirt.obj
 0001:0001e4d4       _get_purecall_handler      000000014001f4d4 f   libvcruntime:purevirt.obj
 0001:0001e4e0       _purecall                  000000014001f4e0 f   libvcruntime:purevirt.obj
 0001:0001e500       _set_purecall_handler      000000014001f500 f   libvcruntime:purevirt.obj
 0001:0001e510       ??$?0AEAViterator@TryBlockMap4@FH4@@AEAV012@$0A@@?$pair@Viterator@TryBlockMap4@FH4@@V123@@std@@QEAA@AEAViterator@TryBlockMap4@FH4@@0@Z 000000014001f510 f i libvcruntime:risctrnsctrl.obj
 0001:0001e52c       ??$?0AEAViterator@TryBlockMap@__FrameHandler3@@AEAV012@$0A@@?$pair@Viterator@TryBlockMap@__FrameHandler3@@V123@@std@@QEAA@AEAViterator@TryBlockMap@__FrameHandler3@@0@Z 000000014001f52c f i libvcruntime:risctrnsctrl.obj
 0001:0001e6d4       ??$_CallSETranslator@V__FrameHandler3@@@@YAHPEAUEHExceptionRecord@@PEA_KPEAU_CONTEXT@@PEAU_xDISPATCHER_CONTEXT@@PEBU_s_FuncInfo@@K1H@Z 000000014001f6d4 f i libvcruntime:risctrnsctrl.obj
 0001:0001e73c       ??$_CallSETranslator@V__FrameHandler4@@@@YAHPEAUEHExceptionRecord@@PEA_KPEAU_CONTEXT@@PEAU_xDISPATCHER_CONTEXT@@PEAUFuncInfo4@FH4@@K1H@Z 000000014001f73c f i libvcruntime:risctrnsctrl.obj
 0001:0001e7a4       ??$forward@AEAViterator@TryBlockMap4@FH4@@@std@@YAAEAViterator@TryBlockMap4@FH4@@AEAV123@@Z 000000014001f7a4 f i libvcruntime:risctrnsctrl.obj
 0001:0001e7a8       ??$forward@AEAViterator@TryBlockMap@__FrameHandler3@@@std@@YAAEAViterator@TryBlockMap@__FrameHandler3@@AEAV123@@Z 000000014001f7a8 f i libvcruntime:risctrnsctrl.obj
 0001:0001e7ac       ??0FuncInfo4@FH4@@QEAA@XZ  000000014001f7ac f i libvcruntime:risctrnsctrl.obj
 0001:0001e7c4       ??0FuncInfoHeader@FH4@@QEAA@XZ 000000014001f7c4 f i libvcruntime:risctrnsctrl.obj
 0001:0001e7cc       ??0iterator@TryBlockMap4@FH4@@QEAA@AEAV12@I@Z 000000014001f7cc f i libvcruntime:risctrnsctrl.obj
 0001:0001e7dc       ??0iterator@TryBlockMap@__FrameHandler3@@QEAA@AEAV12@I@Z 000000014001f7dc f i libvcruntime:risctrnsctrl.obj
 0001:0001e7ec       ??4iterator@TryBlockMap4@FH4@@QEAAAEAV012@AEBV012@@Z 000000014001f7ec f i libvcruntime:risctrnsctrl.obj
 0001:0001e7f8       ??9iterator@TryBlockMap4@FH4@@QEBA_NAEBV012@@Z 000000014001f7f8 f i libvcruntime:risctrnsctrl.obj
 0001:0001e804       ??Diterator@TryBlockMap4@FH4@@QEAA?AUTryBlockMapEntry4@2@XZ 000000014001f804 f i libvcruntime:risctrnsctrl.obj
 0001:0001e818       ??Eiterator@TryBlockMap4@FH4@@QEAAAEAV012@XZ 000000014001f818 f i libvcruntime:risctrnsctrl.obj
 0001:0001e8dc       ?CatchTryBlock@__FrameHandler3@@SAPEBU_s_TryBlockMapEntry@@PEBU_s_FuncInfo@@H@Z 000000014001f8dc f   libvcruntime:risctrnsctrl.obj
 0001:0001e958       ?DecompFuncInfo@FH4@@YA_JPEAEAEAUFuncInfo4@1@_KH@Z 000000014001f958 f i libvcruntime:risctrnsctrl.obj
 0001:0001e970       ?DecompFuncInfo@FH4@@YA_JPEAEAEAUFuncInfo4@1@_KH_N@Z 000000014001f970 f i libvcruntime:risctrnsctrl.obj
 0001:0001eadc       ?DecompTryBlock@TryBlockMap4@FH4@@AEAAXXZ 000000014001fadc f i libvcruntime:risctrnsctrl.obj
 0001:0001eb94       ?ExecutionInCatch@__FrameHandler3@@SA_NPEAU_xDISPATCHER_CONTEXT@@PEBU_s_FuncInfo@@@Z 000000014001fb94 f   libvcruntime:risctrnsctrl.obj
 0001:0001ebc8       ?ExecutionInCatch@__FrameHandler4@@SA_NPEAU_xDISPATCHER_CONTEXT@@PEAUFuncInfo4@FH4@@@Z 000000014001fbc8 f   libvcruntime:risctrnsctrl.obj
 0001:0001ebd0       ?FrameUnwindToEmptyState@__FrameHandler3@@SAXPEA_KPEAU_xDISPATCHER_CONTEXT@@PEBU_s_FuncInfo@@@Z 000000014001fbd0 f   libvcruntime:risctrnsctrl.obj
 0001:0001ec50       ?FrameUnwindToEmptyState@__FrameHandler4@@SAXPEA_KPEAU_xDISPATCHER_CONTEXT@@PEAUFuncInfo4@FH4@@@Z 000000014001fc50 f   libvcruntime:risctrnsctrl.obj
 0001:0001ec90       ?GetEstablisherFrame@__FrameHandler3@@SAPEA_KPEA_KPEAU_xDISPATCHER_CONTEXT@@PEBU_s_FuncInfo@@0@Z 000000014001fc90 f   libvcruntime:risctrnsctrl.obj
 0001:0001ed90       ?GetEstablisherFrame@__FrameHandler4@@SAPEA_KPEA_KPEAU_xDISPATCHER_CONTEXT@@PEAUFuncInfo4@FH4@@0@Z 000000014001fd90 f   libvcruntime:risctrnsctrl.obj
 0001:0001edbc       ?GetRangeOfTrysToCheck@__FrameHandler3@@SA?AU?$pair@Viterator@TryBlockMap@__FrameHandler3@@V123@@std@@AEAVTryBlockMap@1@HPEAU_xDISPATCHER_CONTEXT@@PEBU_s_FuncInfo@@H@Z 000000014001fdbc f   libvcruntime:risctrnsctrl.obj
 0001:0001ef4c       ?GetRangeOfTrysToCheck@__FrameHandler4@@SA?AU?$pair@Viterator@TryBlockMap4@FH4@@V123@@std@@AEAVTryBlockMap4@FH4@@HPEAU_xDISPATCHER_CONTEXT@@PEAUFuncInfo4@5@H@Z 000000014001ff4c f   libvcruntime:risctrnsctrl.obj
 0001:0001f110       ?ReadInt@FH4@@YAHPEAPEAE@Z 0000000140020110 f i libvcruntime:risctrnsctrl.obj
 0001:0001f120       ?ReadUnsigned@FH4@@YAIPEAPEAE@Z 0000000140020120 f i libvcruntime:risctrnsctrl.obj
 0001:0001f15c       ?UnwindNestedFrames@__FrameHandler3@@SAXPEA_KPEAUEHExceptionRecord@@PEAU_CONTEXT@@0PEAXPEBU_s_FuncInfo@@HHPEBU_s_HandlerType@@PEAU_xDISPATCHER_CONTEXT@@E@Z 000000014002015c f   libvcruntime:risctrnsctrl.obj
 0001:0001f2a0       ?UnwindNestedFrames@__FrameHandler4@@SAXPEA_KPEAUEHExceptionRecord@@PEAU_CONTEXT@@0PEAXPEAUFuncInfo4@FH4@@HHPEAUHandlerType4@5@PEAU_xDISPATCHER_CONTEXT@@E@Z 00000001400202a0 f   libvcruntime:risctrnsctrl.obj
 0001:0001f408       ?begin@TryBlockMap4@FH4@@QEAA?AViterator@12@XZ 0000000140020408 f i libvcruntime:risctrnsctrl.obj
 0001:0001f418       ?end@TryBlockMap4@FH4@@QEAA?AViterator@12@XZ 0000000140020418 f i libvcruntime:risctrnsctrl.obj
 0001:0001f428       ?imageRelToByteBuffer@FH4@@YAPEAE_KH@Z 0000000140020428 f i libvcruntime:risctrnsctrl.obj
 0001:0001f430       ?incrementToSentinel@iterator@TryBlockMap4@FH4@@QEAAXXZ 0000000140020430 f i libvcruntime:risctrnsctrl.obj
 0001:0001f434       ?setBuffer@TryBlockMap4@FH4@@QEAAXViterator@12@@Z 0000000140020434 f i libvcruntime:risctrnsctrl.obj
 0001:0001f668       _CreateFrameInfo           0000000140020668 f   libvcruntime:risctrnsctrl.obj
 0001:0001f6b0       _FindAndUnlinkFrame        00000001400206b0 f   libvcruntime:risctrnsctrl.obj
 0001:0001f718       _GetImageBase              0000000140020718 f   libvcruntime:risctrnsctrl.obj
 0001:0001f730       _GetThrowImageBase         0000000140020730 f   libvcruntime:risctrnsctrl.obj
 0001:0001f748       _SetImageBase              0000000140020748 f   libvcruntime:risctrnsctrl.obj
 0001:0001f768       _SetThrowImageBase         0000000140020768 f   libvcruntime:risctrnsctrl.obj
 0001:0001f788       __CxxFrameHandler          0000000140020788 f   libvcruntime:risctrnsctrl.obj
 0001:0001f790       __CxxFrameHandler2         0000000140020790 f   libvcruntime:risctrnsctrl.obj
 0001:0001f798       __CxxFrameHandler3         0000000140020798 f   libvcruntime:risctrnsctrl.obj
 0001:0001f840       __CxxFrameHandler4         0000000140020840 f   libvcruntime:risctrnsctrl.obj
 0001:0001f930       ?GetCurrentState@__FrameHandler3@@SAHPEA_KPEAU_xDISPATCHER_CONTEXT@@PEBU_s_FuncInfo@@@Z 0000000140020930 f   libvcruntime:ehstate.obj
 0001:0001f960       ?GetUnwindTryBlock@__FrameHandler3@@SAHPEA_KPEAU_xDISPATCHER_CONTEXT@@PEBU_s_FuncInfo@@@Z 0000000140020960 f   libvcruntime:ehstate.obj
 0001:0001f994       ?SetState@__FrameHandler3@@SAXPEA_KPEBU_s_FuncInfo@@H@Z 0000000140020994 f   libvcruntime:ehstate.obj
 0001:0001f9a4       ?SetUnwindTryBlock@__FrameHandler3@@SAXPEA_KPEAU_xDISPATCHER_CONTEXT@@PEBU_s_FuncInfo@@H@Z 00000001400209a4 f   libvcruntime:ehstate.obj
 0001:0001f9f0       ?StateFromControlPc@__FrameHandler3@@SAHPEBU_s_FuncInfo@@PEAU_xDISPATCHER_CONTEXT@@@Z 00000001400209f0 f   libvcruntime:ehstate.obj
 0001:0001f9fc       ?StateFromControlPc@__FrameHandler4@@SAHPEAUFuncInfo4@FH4@@PEAU_xDISPATCHER_CONTEXT@@@Z 00000001400209fc f   libvcruntime:ehstate.obj
 0001:0001fa08       ?StateFromIp@__FrameHandler3@@SAHPEBU_s_FuncInfo@@PEAU_xDISPATCHER_CONTEXT@@_K@Z 0000000140020a08 f   libvcruntime:ehstate.obj
 0001:0001fa88       ?StateFromIp@__FrameHandler4@@SAHPEAUFuncInfo4@FH4@@PEAU_xDISPATCHER_CONTEXT@@_K@Z 0000000140020a88 f   libvcruntime:ehstate.obj
 0001:0001fbb0       ?__FuncRelToRealOffset@@YA_KPEAU_xDISPATCHER_CONTEXT@@I@Z 0000000140020bb0 f i libvcruntime:ehstate.obj
 0001:0001fbc4       ?__RVAtoRealOffset@@YA_KPEAU_xDISPATCHER_CONTEXT@@H@Z 0000000140020bc4 f i libvcruntime:ehstate.obj
 0001:00021760       ??$TypeMatchHelper@V__FrameHandler3@@@@YAHPEBU_s_HandlerType@@PEBU_s_CatchableType@@PEBU_s_ThrowInfo@@@Z 0000000140022760 f i libvcruntime:frame.obj
 0001:000218ec       ??$TypeMatchHelper@V__FrameHandler4@@@@YAHPEAUHandlerType4@FH4@@PEBU_s_CatchableType@@PEBU_s_ThrowInfo@@@Z 00000001400228ec f i libvcruntime:frame.obj
 0001:00021a80       ??$__InternalCxxFrameHandler@V__FrameHandler3@@@@YA?AW4_EXCEPTION_DISPOSITION@@PEAUEHExceptionRecord@@PEA_KPEAU_CONTEXT@@PEAU_xDISPATCHER_CONTEXT@@PEBU_s_FuncInfo@@H1E@Z 0000000140022a80 f i libvcruntime:frame.obj
 0001:00021d44       ??$__InternalCxxFrameHandler@V__FrameHandler4@@@@YA?AW4_EXCEPTION_DISPOSITION@@PEAUEHExceptionRecord@@PEA_KPEAU_CONTEXT@@PEAU_xDISPATCHER_CONTEXT@@PEAUFuncInfo4@FH4@@H1E@Z 0000000140022d44 f i libvcruntime:frame.obj
 0001:00022080       ??0HandlerMap4@FH4@@QEAA@PEBUTryBlockMapEntry4@1@_KH@Z 0000000140023080 f i libvcruntime:frame.obj
 0001:00022118       ??0HandlerMap@__FrameHandler3@@QEAA@PEBU_s_TryBlockMapEntry@@_KI@Z 0000000140023118 f i libvcruntime:frame.obj
 0001:00022134       ??0HandlerType4@FH4@@QEAA@XZ 0000000140023134 f i libvcruntime:frame.obj
 0001:00022150       ??0TryBlockMap4@FH4@@QEAA@PEBUFuncInfo4@1@_K@Z 0000000140023150 f i libvcruntime:frame.obj
 0001:0002225c       ??0TryBlockMap@__FrameHandler3@@QEAA@PEBU_s_FuncInfo@@_K@Z 000000014002325c f i libvcruntime:frame.obj
 0001:0002226c       ??0UWMap4@FH4@@QEAA@PEBUFuncInfo4@1@_K@Z 000000014002326c f i libvcruntime:frame.obj
 0001:000222c0       ??0bad_exception@std@@QEAA@AEBV01@@Z 00000001400232c0 f i libvcruntime:frame.obj
 0001:0002230c       ??0bad_exception@std@@QEAA@XZ 000000014002330c f i libvcruntime:frame.obj
 0001:00022334       ??0exception@std@@QEAA@AEBV01@@Z 0000000140023334 f i libvcruntime:frame.obj
 0001:00022374       ??0exception@std@@QEAA@QEBDH@Z 0000000140023374 f i libvcruntime:frame.obj
 0001:00022390       ??0iterator@HandlerMap4@FH4@@QEAA@AEAV12@I@Z 0000000140023390 f i libvcruntime:frame.obj
 0001:000223a0       ??0iterator@HandlerMap@__FrameHandler3@@QEAA@AEAV12@I@Z 00000001400233a0 f i libvcruntime:frame.obj
 0001:000223b0       ??0iterator@UWMap4@FH4@@QEAA@AEAV12@PEAE@Z 00000001400233b0 f i libvcruntime:frame.obj
 0001:000223c0       ??1bad_exception@std@@UEAA@XZ 00000001400233c0 f i libvcruntime:frame.obj
 0001:000223d8       ??1exception@std@@UEAA@XZ  00000001400233d8 f i libvcruntime:frame.obj
 0001:000223f0       ??4iterator@UWMap4@FH4@@QEAAAEAV012@AEBV012@@Z 00000001400233f0 f i libvcruntime:frame.obj
 0001:00022418       ??8iterator@HandlerMap4@FH4@@QEBA_NAEBV012@@Z 0000000140023418 f i libvcruntime:frame.obj
 0001:00022424       ??8iterator@HandlerMap@__FrameHandler3@@QEBA_NAEBV012@@Z 0000000140023424 f i libvcruntime:frame.obj
 0001:00022430       ??8type_info@@QEBA_NAEBV0@@Z 0000000140023430 f i libvcruntime:frame.obj
 0001:00022454       ??9iterator@HandlerMap4@FH4@@QEBA_NAEBV012@@Z 0000000140023454 f i libvcruntime:frame.obj
 0001:00022460       ??9iterator@HandlerMap@__FrameHandler3@@QEBA_NAEBV012@@Z 0000000140023460 f i libvcruntime:frame.obj
 0001:0002246c       ??Diterator@HandlerMap4@FH4@@QEAA?AUHandlerType4@2@XZ 000000014002346c f i libvcruntime:frame.obj
 0001:00022494       ??Diterator@HandlerMap@__FrameHandler3@@QEAA?BU_s_HandlerType@@XZ 0000000140023494 f i libvcruntime:frame.obj
 0001:000224c0       ??Diterator@TryBlockMap@__FrameHandler3@@QEAA?BU_s_TryBlockMapEntry@@XZ 00000001400234c0 f i libvcruntime:frame.obj
 0001:000224f8       ??Diterator@UWMap4@FH4@@QEAA?AUUnwindMapEntry4@2@XZ 00000001400234f8 f i libvcruntime:frame.obj
 0001:00022560       ??Eiterator@HandlerMap4@FH4@@QEAAAEAV012@XZ 0000000140023560 f i libvcruntime:frame.obj
 0001:00022584       ??Eiterator@HandlerMap@__FrameHandler3@@QEAAAEAV012@XZ 0000000140023584 f i libvcruntime:frame.obj
 0001:0002258c       ??Eiterator@TryBlockMap@__FrameHandler3@@QEAAAEAV012@XZ 000000014002358c f i libvcruntime:frame.obj
 0001:00022594       ??Eiterator@UWMap4@FH4@@QEAAAEAV012@XZ 0000000140023594 f i libvcruntime:frame.obj
 0001:000225bc       ??Giterator@UWMap4@FH4@@QEBA_JAEBV012@@Z 00000001400235bc f i libvcruntime:frame.obj
 0001:000225c8       ??Miterator@TryBlockMap4@FH4@@QEBA_NAEBV012@@Z 00000001400235c8 f i libvcruntime:frame.obj
 0001:000225d4       ??Miterator@TryBlockMap@__FrameHandler3@@QEBA_NAEBV012@@Z 00000001400235d4 f i libvcruntime:frame.obj
 0001:000225e0       ??Oiterator@UWMap4@FH4@@QEBA_NAEBV012@@Z 00000001400235e0 f i libvcruntime:frame.obj
 0001:000225f0       ??Piterator@UWMap4@FH4@@QEBA_NAEBV012@@Z 00000001400235f0 f i libvcruntime:frame.obj
 0001:00022600       ??_Ebad_exception@std@@UEAAPEAXI@Z 0000000140023600 f i libvcruntime:frame.obj
 0001:00022600       ??_Gbad_exception@std@@UEAAPEAXI@Z 0000000140023600 f i libvcruntime:frame.obj
 0001:00022654       ??_Eexception@std@@UEAAPEAXI@Z 0000000140023654 f i libvcruntime:frame.obj
 0001:00022654       ??_Gexception@std@@UEAAPEAXI@Z 0000000140023654 f i libvcruntime:frame.obj
 0001:000226a8       ?BuildCatchObject@__FrameHandler3@@SAXPEAUEHExceptionRecord@@PEAXPEBU_s_HandlerType@@PEBU_s_CatchableType@@@Z 00000001400236a8 f   libvcruntime:frame.obj
 0001:000226b0       ?BuildCatchObject@__FrameHandler4@@SAXPEAUEHExceptionRecord@@PEAXPEAUHandlerType4@FH4@@PEBU_s_CatchableType@@@Z 00000001400236b0 f   libvcruntime:frame.obj
 0001:000226b8       ?BuildCatchObjectHelper@__FrameHandler3@@SAHPEAUEHExceptionRecord@@PEAXPEBU_s_HandlerType@@PEBU_s_CatchableType@@@Z 00000001400236b8 f   libvcruntime:frame.obj
 0001:000226c0       ?BuildCatchObjectHelper@__FrameHandler4@@SAHPEAUEHExceptionRecord@@PEAXPEAUHandlerType4@FH4@@PEBU_s_CatchableType@@@Z 00000001400236c0 f   libvcruntime:frame.obj
 0001:000226c8       ?CxxCallCatchBlock@__FrameHandler3@@SAPEAXPEAU_EXCEPTION_RECORD@@@Z 00000001400236c8 f   libvcruntime:frame.obj
 0001:0002292c       ?CxxCallCatchBlock@__FrameHandler4@@SAPEAXPEAU_EXCEPTION_RECORD@@@Z 000000014002392c f   libvcruntime:frame.obj
 0001:00022c10       ?DecompHandler@HandlerMap4@FH4@@AEAAXXZ 0000000140023c10 f i libvcruntime:frame.obj
 0001:00022ef0       ?FrameUnwindToState@__FrameHandler3@@SAXPEA_KPEAU_xDISPATCHER_CONTEXT@@PEBU_s_FuncInfo@@H@Z 0000000140023ef0 f   libvcruntime:frame.obj
 0001:000230dc       ?FrameUnwindToState@__FrameHandler4@@SAXPEA_KPEAU_xDISPATCHER_CONTEXT@@PEAUFuncInfo4@FH4@@H@Z 00000001400240dc f   libvcruntime:frame.obj
 0001:00023494       ?GetHandlerSearchState@__FrameHandler3@@SAHPEA_KPEAU_xDISPATCHER_CONTEXT@@PEBU_s_FuncInfo@@@Z 0000000140024494 f i libvcruntime:frame.obj
 0001:00023550       ?GetHandlerSearchState@__FrameHandler4@@SAHPEA_KPEAU_xDISPATCHER_CONTEXT@@PEAUFuncInfo4@FH4@@@Z 0000000140024550 f i libvcruntime:frame.obj
 0001:000235cc       ?GetMaxState@__FrameHandler3@@SAHPEAU_xDISPATCHER_CONTEXT@@PEBU_s_FuncInfo@@@Z 00000001400245cc f i libvcruntime:frame.obj
 0001:000235d0       ?GetMaxState@__FrameHandler4@@SAHPEAU_xDISPATCHER_CONTEXT@@PEAUFuncInfo4@FH4@@@Z 00000001400245d0 f i libvcruntime:frame.obj
 0001:000237ec       ?ReadEntry@UWMap4@FH4@@AEAAXPEAPEAE@Z 00000001400247ec f i libvcruntime:frame.obj
 0001:000238b0       ?TypeMatch@__FrameHandler3@@SAHPEBU_s_HandlerType@@PEBU_s_CatchableType@@PEBU_s_ThrowInfo@@@Z 00000001400248b0 f   libvcruntime:frame.obj
 0001:000238b8       ?TypeMatch@__FrameHandler4@@SAHPEAUHandlerType4@FH4@@PEBU_s_CatchableType@@PEBU_s_ThrowInfo@@@Z 00000001400248b8 f   libvcruntime:frame.obj
 0001:000238c0       ?WalkBack@UWMap4@FH4@@AEAAXPEAPEAE@Z 00000001400248c0 f i libvcruntime:frame.obj
 0001:00023904       ?WalkBack@iterator@UWMap4@FH4@@QEAAXXZ 0000000140024904 f i libvcruntime:frame.obj
 0001:00023950       ?WalkForward@UWMap4@FH4@@AEAAXPEAPEAE@Z 0000000140024950 f i libvcruntime:frame.obj
 0001:00023958       ?_CallMemberFunction1@@YAXQEAX00@Z 0000000140024958 f i libvcruntime:frame.obj
 0001:00023964       ?_CallMemberFunction2@@YAXQEAX00H@Z 0000000140024964 f i libvcruntime:frame.obj
 0001:00023994       ?begin@HandlerMap4@FH4@@QEAA?AViterator@12@XZ 0000000140024994 f i libvcruntime:frame.obj
 0001:000239a4       ?begin@HandlerMap@__FrameHandler3@@QEAA?AViterator@12@XZ 00000001400249a4 f i libvcruntime:frame.obj
 0001:000239b4       ?begin@UWMap4@FH4@@QEAA?AViterator@12@XZ 00000001400249b4 f i libvcruntime:frame.obj
 0001:000239c8       ?end@HandlerMap4@FH4@@QEAA?AViterator@12@XZ 00000001400249c8 f i libvcruntime:frame.obj
 0001:000239d8       ?end@HandlerMap@__FrameHandler3@@QEAA?AViterator@12@XZ 00000001400249d8 f i libvcruntime:frame.obj
 0001:000239e8       ?getESTypes@__FrameHandler3@@SAPEBU_s_ESTypeList@@PEBU_s_FuncInfo@@@Z 00000001400249e8 f i libvcruntime:frame.obj
 0001:00023a1c       ?getESTypes@__FrameHandler4@@SAPEBU_s_ESTypeList@@PEAUFuncInfo4@FH4@@@Z 0000000140024a1c f i libvcruntime:frame.obj
 0001:00023a20       ?getLastEntry@HandlerMap4@FH4@@QEAAPEAUHandlerType4@2@XZ 0000000140024a20 f i libvcruntime:frame.obj
 0001:00023a84       ?getLastEntry@HandlerMap@__FrameHandler3@@QEAAPEBU_s_HandlerType@@XZ 0000000140024a84 f i libvcruntime:frame.obj
 0001:00023a9c       ?getMagicNum@__FrameHandler3@@SAIPEBU_s_FuncInfo@@@Z 0000000140024a9c f i libvcruntime:frame.obj
 0001:00023aa8       ?getMagicNum@__FrameHandler4@@SAIPEAUFuncInfo4@FH4@@@Z 0000000140024aa8 f i libvcruntime:frame.obj
 0001:00023ab0       ?getNumTryBlocks@TryBlockMap4@FH4@@QEAAIXZ 0000000140024ab0 f i libvcruntime:frame.obj
 0001:00023ab4       ?getNumTryBlocks@TryBlockMap@__FrameHandler3@@QEAAIXZ 0000000140024ab4 f i libvcruntime:frame.obj
 0001:00023abc       ?getStartStop@UWMap4@FH4@@QEAAXHHAEAViterator@12@0@Z 0000000140024abc f i libvcruntime:frame.obj
 0001:00023bc0       ?getStateFromIterators@UWMap4@FH4@@SAHAEBViterator@12@H0H0@Z 0000000140024bc0 f i libvcruntime:frame.obj
 0001:00023cc0       ?isEHs@__FrameHandler3@@SA_NPEBU_s_FuncInfo@@@Z 0000000140024cc0 f i libvcruntime:frame.obj
 0001:00023cc8       ?isEHs@__FrameHandler4@@SA_NPEAUFuncInfo4@FH4@@@Z 0000000140024cc8 f i libvcruntime:frame.obj
 0001:00023cd4       ?isNoExcept@__FrameHandler3@@SA_NPEBU_s_FuncInfo@@@Z 0000000140024cd4 f i libvcruntime:frame.obj
 0001:00023ce0       ?isNoExcept@__FrameHandler4@@SA_NPEAUFuncInfo4@FH4@@@Z 0000000140024ce0 f i libvcruntime:frame.obj
 0001:00023cec       ?reset@HandlerType4@FH4@@QEAAXXZ 0000000140024cec f i libvcruntime:frame.obj
 0001:00023d08       ?resetBuffer@HandlerMap4@FH4@@QEAAXXZ 0000000140024d08 f i libvcruntime:frame.obj
 0001:00023d18       ?setBuffer@HandlerMap4@FH4@@QEAAXI@Z 0000000140024d18 f i libvcruntime:frame.obj
 0001:00023d60       ?what@exception@std@@UEBAPEBDXZ 0000000140024d60 f i libvcruntime:frame.obj
 0001:00023d78       __BuildCatchObject         0000000140024d78 f   libvcruntime:frame.obj
 0001:00023d80       __BuildCatchObjectHelper   0000000140024d80 f   libvcruntime:frame.obj
 0001:00023d88       __TypeMatch                0000000140024d88 f   libvcruntime:frame.obj
 0001:00023d90       __vcrt_EncodePointer       0000000140024d90 f i libvcruntime:frame.obj
 0001:00023db0       _CallSettingFrame          0000000140024db0 f   libvcruntime:handlers.obj
 0001:00023e00       _CallSettingFrame_LookupContinuationIndex 0000000140024e00 f   libvcruntime:handlers.obj
 0001:00023e30       _CallSettingFrame_NotifyContinuationAddr 0000000140024e30 f   libvcruntime:handlers.obj
 0001:00023e60       _CallSettingFrameEncoded   0000000140024e60 f   libvcruntime:handlers.obj
 0001:00023ee8       ??$?RD@__crt_public_free_policy@@QEBAXQEBD@Z 0000000140024ee8 f i libvcruntime:std_exception.obj
 0001:00023ef4       ??0?$__crt_unique_heap_ptr@DU__crt_public_free_policy@@@@QEAA@QEAD@Z 0000000140024ef4 f i libvcruntime:std_exception.obj
 0001:00023efc       ??1?$__crt_unique_heap_ptr@DU__crt_public_free_policy@@@@QEAA@XZ 0000000140024efc f i libvcruntime:std_exception.obj
 0001:00023f20       ??B?$__crt_unique_heap_ptr@DU__crt_public_free_policy@@@@QEBA_NXZ 0000000140024f20 f i libvcruntime:std_exception.obj
 0001:00023f2c       ?detach@?$__crt_unique_heap_ptr@DU__crt_public_free_policy@@@@QEAAPEADXZ 0000000140024f2c f i libvcruntime:std_exception.obj
 0001:00023f38       ?get@?$__crt_unique_heap_ptr@DU__crt_public_free_policy@@@@QEBAPEADXZ 0000000140024f38 f i libvcruntime:std_exception.obj
 0001:00023f3c       ?is_valid@?$__crt_unique_heap_ptr@DU__crt_public_free_policy@@@@QEBA_NXZ 0000000140024f3c f i libvcruntime:std_exception.obj
 0001:00023f48       ?release@?$__crt_unique_heap_ptr@DU__crt_public_free_policy@@@@QEAAXXZ 0000000140024f48 f i libvcruntime:std_exception.obj
 0001:00023f6c       __std_exception_copy       0000000140024f6c f   libvcruntime:std_exception.obj
 0001:0002401c       __std_exception_destroy    000000014002501c f   libvcruntime:std_exception.obj
 0001:0002404c       _CxxThrowException         000000014002504c f   libvcruntime:throw.obj
 0001:00024114       __acrt_errno_from_os_error 0000000140025114 f   libucrt:errno.obj
 0001:0002416c       __acrt_errno_map_os_error  000000014002516c f   libucrt:errno.obj
 0001:000241d0       __doserrno                 00000001400251d0 f   libucrt:errno.obj
 0001:000241f8       _errno                     00000001400251f8 f   libucrt:errno.obj
 0001:00024220       _get_doserrno              0000000140025220 f   libucrt:errno.obj
 0001:0002426c       _get_errno                 000000014002526c f   libucrt:errno.obj
 0001:000242b8       _set_doserrno              00000001400252b8 f   libucrt:errno.obj
 0001:00024300       _set_errno                 0000000140025300 f   libucrt:errno.obj
 0001:00024348       free                       0000000140025348 f   libucrt:free.obj
 0001:00024360       malloc                     0000000140025360 f   libucrt:malloc.obj
 0001:00024368       realloc                    0000000140025368 f   libucrt:realloc.obj
 0001:0002437c       fabs                       000000014002537c f   libucrt:fabs.obj
 0001:00024388       fmaxf                      0000000140025388 f   libucrt:fmaxf.obj
 0001:00024408       fminf                      0000000140025408 f   libucrt:fminf.obj
 0001:00024488       ??$?B$$A6AXPEAXK0@Z@__crt_fast_encoded_nullptr_t@@QEBAP6AXPEAXK0@ZXZ 0000000140025488 f i libucrt:exit.obj
 0001:0002450c       ??$__crt_fast_decode_pointer@P6AXPEAXK0@Z@@YAP6AXPEAXK0@ZQ6AX0K0@Z@Z 000000014002550c f i libucrt:exit.obj
 0001:00024528       ??$__crt_fast_encode_pointer@P6AXPEAXK0@Z@@YAP6AXPEAXK0@ZQ6AX0K0@Z@Z 0000000140025528 f i libucrt:exit.obj
 0001:00024550       ??$__crt_get_proc_address@P6AXI@Z@@YAP6AXI@ZQEAUHINSTANCE__@@QEBD@Z 0000000140025550 f i libucrt:exit.obj
 0001:00024558       ??$__crt_interlocked_read@J@@YAJPEDJ@Z 0000000140025558 f i libucrt:exit.obj
 0001:00024588       ??0?$__crt_unique_handle_t@U__crt_hmodule_traits@@@@QEAA@QEAUHINSTANCE__@@@Z 0000000140025588 f i libucrt:exit.obj
 0001:00024590       ??1?$__crt_unique_handle_t@U__crt_hmodule_traits@@@@QEAA@XZ 0000000140025590 f i libucrt:exit.obj
 0001:000246c0       ?__acrt_select_exit_lock@@YA?AW4__acrt_lock_id@@XZ 00000001400256c0 f i libucrt:exit.obj
 0001:000246c8       ?__crt_fast_encode_pointer@@YA?AU__crt_fast_encoded_nullptr_t@@$$T@Z 00000001400256c8 f i libucrt:exit.obj
 0001:000246d0       ?__crt_interlocked_read_32@@YAHPEDH@Z 00000001400256d0 f i libucrt:exit.obj
 0001:000246d4       ?__crt_rotate_pointer_value@@YA_K_KH@Z 00000001400256d4 f i libucrt:exit.obj
 0001:000246f0       ?close@?$__crt_unique_handle_t@U__crt_hmodule_traits@@@@QEAAXXZ 00000001400256f0 f i libucrt:exit.obj
 0001:0002471c       ?close@__crt_hmodule_traits@@SA_NPEAUHINSTANCE__@@@Z 000000014002571c f i libucrt:exit.obj
 0001:00024880       ?get@?$__crt_unique_handle_t@U__crt_hmodule_traits@@@@QEBAPEAUHINSTANCE__@@XZ 0000000140025880 f i libucrt:exit.obj
 0001:00024884       ?get_address_of@?$__crt_unique_handle_t@U__crt_hmodule_traits@@@@QEAAPEAPEAUHINSTANCE__@@XZ 0000000140025884 f i libucrt:exit.obj
 0001:00024888       ?get_invalid_value@__crt_hmodule_traits@@SAPEAUHINSTANCE__@@XZ 0000000140025888 f i libucrt:exit.obj
 0001:000249a4       _Exit                      00000001400259a4 f   libucrt:exit.obj
 0001:000249b4       __acrt_initialize_thread_local_exit_callback 00000001400259b4 f   libucrt:exit.obj
 0001:000249c0       _c_exit                    00000001400259c0 f   libucrt:exit.obj
 0001:000249d4       _cexit                     00000001400259d4 f   libucrt:exit.obj
 0001:000249e4       _exit                      00000001400259e4 f   libucrt:exit.obj
 0001:000249f4       _is_c_termination_complete 00000001400259f4 f   libucrt:exit.obj
 0001:000249fc       _register_thread_local_exe_atexit_callback 00000001400259fc f   libucrt:exit.obj
 0001:00024a48       exit                       0000000140025a48 f   libucrt:exit.obj
 0001:00024a54       quick_exit                 0000000140025a54 f   libucrt:exit.obj
 0001:00024a64       ??$?RPEAU__crt_stdio_stream_data@@@__crt_internal_free_policy@@QEBAXQEBQEAU__crt_stdio_stream_data@@@Z 0000000140025a64 f i libucrt:_file.obj
 0001:00024a70       ??0?$__crt_unique_heap_ptr@PEAU__crt_stdio_stream_data@@U__crt_internal_free_policy@@@@QEAA@QEAPEAU__crt_stdio_stream_data@@@Z 0000000140025a70 f i libucrt:_file.obj
 0001:00024a78       ??0__crt_stdio_stream@@QEAA@QEAU_iobuf@@@Z 0000000140025a78 f i libucrt:_file.obj
 0001:00024a80       ??1?$__crt_unique_heap_ptr@PEAU__crt_stdio_stream_data@@U__crt_internal_free_policy@@@@QEAA@XZ 0000000140025a80 f i libucrt:_file.obj
 0001:00024aa4       ??C__crt_stdio_stream@@QEBAPEAU__crt_stdio_stream_data@@XZ 0000000140025aa4 f i libucrt:_file.obj
 0001:00024aa8       ?detach@?$__crt_unique_heap_ptr@PEAU__crt_stdio_stream_data@@U__crt_internal_free_policy@@@@QEAAPEAPEAU__crt_stdio_stream_data@@XZ 0000000140025aa8 f i libucrt:_file.obj
 0001:00024ab4       ?release@?$__crt_unique_heap_ptr@PEAU__crt_stdio_stream_data@@U__crt_internal_free_policy@@@@QEAAXXZ 0000000140025ab4 f i libucrt:_file.obj
 0001:00024ad8       __acrt_initialize_stdio    0000000140025ad8 f   libucrt:_file.obj
 0001:00024c40       __acrt_iob_func            0000000140025c40 f   libucrt:_file.obj
 0001:00024c58       __acrt_uninitialize_stdio  0000000140025c58 f   libucrt:_file.obj
 0001:00024ccc       _get_stream_buffer_pointers 0000000140025ccc f   libucrt:_file.obj
 0001:00024d24       _lock_file                 0000000140025d24 f   libucrt:_file.obj
 0001:00024d34       _unlock_file               0000000140025d34 f   libucrt:_file.obj
 0001:00024d44       ?get_flags@__crt_stdio_stream@@QEBAJXZ 0000000140025d44 f i libucrt:fclose.obj
 0001:00024d4c       ?is_in_use@__crt_stdio_stream@@QEBA_NXZ 0000000140025d4c f i libucrt:fclose.obj
 0001:00024d5c       ?is_string_backed@__crt_stdio_stream@@QEBA_NXZ 0000000140025d5c f i libucrt:fclose.obj
 0001:00024d6c       ?public_stream@__crt_stdio_stream@@QEBAPEAU_iobuf@@XZ 0000000140025d6c f i libucrt:fclose.obj
 0001:00024d70       ?valid@__crt_stdio_stream@@QEBA_NXZ 0000000140025d70 f i libucrt:fclose.obj
 0001:00024d7c       _fclose_nolock             0000000140025d7c f   libucrt:fclose.obj
 0001:00024e20       fclose                     0000000140025e20 f   libucrt:fclose.obj
 0001:00024e9c       ?eof@__crt_stdio_stream@@QEBA_NXZ 0000000140025e9c f i libucrt:feoferr.obj
 0001:00024eac       ?error@__crt_stdio_stream@@QEBA_NXZ 0000000140025eac f i libucrt:feoferr.obj
 0001:00024ebc       ?has_any_of@__crt_stdio_stream@@QEBA_NJ@Z 0000000140025ebc f i libucrt:feoferr.obj
 0001:00024ecc       feof                       0000000140025ecc f   libucrt:feoferr.obj
 0001:00024f04       ferror                     0000000140025f04 f   libucrt:feoferr.obj
 0001:000251f0       ??$open_file@AEBQEBDAEBQEBDAEBHPEAU_iobuf@@@?$__crt_char_traits@D@@SAPEAU_iobuf@@AEBQEBD0AEBH$$QEAPEAU1@@Z 00000001400261f0 f i libucrt:fopen.obj
 0001:00025208       ??$open_file@AEBQEB_WAEBQEB_WAEBHPEAU_iobuf@@@?$__crt_char_traits@_W@@SAPEAU_iobuf@@AEBQEB_W0AEBH$$QEAPEAU1@@Z 0000000140026208 f i libucrt:fopen.obj
 0001:00025220       ?unlock@__crt_stdio_stream@@QEBAXXZ 0000000140026220 f i libucrt:fopen.obj
 0001:0002522c       _fsopen                    000000014002622c f   libucrt:fopen.obj
 0001:00025234       _wfopen                    0000000140026234 f   libucrt:fopen.obj
 0001:00025244       _wfopen_s                  0000000140026244 f   libucrt:fopen.obj
 0001:000252b4       _wfsopen                   00000001400262b4 f   libucrt:fopen.obj
 0001:000252bc       fopen                      00000001400262bc f   libucrt:fopen.obj
 0001:000252cc       fopen_s                    00000001400262cc f   libucrt:fopen.obj
 0001:0002533c       ?__acrt_stdio_reset_buffer@@YAXV__crt_stdio_stream@@@Z 000000014002633c f i libucrt:fread.obj
 0001:0002534c       ?has_any_buffer@__crt_stdio_stream@@QEBA_NXZ 000000014002634c f i libucrt:fread.obj
 0001:00025360       ?set_flags@__crt_stdio_stream@@QEBA_NJ@Z 0000000140026360 f i libucrt:fread.obj
 0001:00025388       _fread_nolock              0000000140026388 f   libucrt:fread.obj
 0001:000253ac       _fread_nolock_s            00000001400263ac f   libucrt:fread.obj
 0001:000256a4       fread                      00000001400266a4 f   libucrt:fread.obj
 0001:000256c8       fread_s                    00000001400266c8 f   libucrt:fread.obj
 0001:000258fc       ??0__acrt_stdio_temporary_buffering_guard@@QEAA@QEAU_iobuf@@@Z 00000001400268fc f i libucrt:fwrite.obj
 0001:00025924       ??1__acrt_stdio_temporary_buffering_guard@@QEAA@XZ 0000000140026924 f i libucrt:fwrite.obj
 0001:000259cc       ?has_big_buffer@__crt_stdio_stream@@QEBA_NXZ 00000001400269cc f i libucrt:fwrite.obj
 0001:000259dc       _fwrite_nolock             00000001400269dc f   libucrt:fwrite.obj
 0001:00025bf0       fwrite                     0000000140026bf0 f   libucrt:fwrite.obj
 0001:00025c94       ??$?0AEBV?$stream_output_adapter@D@__crt_stdio_output@@AEB_KAEBQEBDAEBQEAU__crt_locale_pointers@@AEBQEAD@?$format_validation_base@DV?$stream_output_adapter@D@__crt_stdio_output@@@__crt_stdio_output@@IEAA@AEBV?$stream_output_adapter@D@1@AEB_KAEBQEBDAEBQEAU__crt_locale_pointers@@AEBQEAD@Z 0000000140026c94 f i libucrt:output.obj
 0001:00025d38       ??$?0AEBV?$stream_output_adapter@D@__crt_stdio_output@@AEB_KAEBQEBDAEBQEAU__crt_locale_pointers@@AEBQEAD@?$positional_parameter_base@DV?$stream_output_adapter@D@__crt_stdio_output@@@__crt_stdio_output@@IEAA@AEBV?$stream_output_adapter@D@1@AEB_KAEBQEBDAEBQEAU__crt_locale_pointers@@AEBQEAD@Z 0000000140026d38 f i libucrt:output.obj
 0001:00025e00       ??$?0AEBV?$stream_output_adapter@D@__crt_stdio_output@@AEB_KAEBQEBDAEBQEAU__crt_locale_pointers@@AEBQEAD@?$standard_base@DV?$stream_output_adapter@D@__crt_stdio_output@@@__crt_stdio_output@@IEAA@AEBV?$stream_output_adapter@D@1@AEB_KAEBQEBDAEBQEAU__crt_locale_pointers@@AEBQEAD@Z 0000000140026e00 f i libucrt:output.obj
 0001:00025ea4       ??$?0AEBV?$stream_output_adapter@_W@__crt_stdio_output@@AEB_KAEBQEB_WAEBQEAU__crt_locale_pointers@@AEBQEAD@?$format_validation_base@_WV?$stream_output_adapter@_W@__crt_stdio_output@@@__crt_stdio_output@@IEAA@AEBV?$stream_output_adapter@_W@1@AEB_KAEBQEB_WAEBQEAU__crt_locale_pointers@@AEBQEAD@Z 0000000140026ea4 f i libucrt:output.obj
 0001:00025f4c       ??$?0AEBV?$stream_output_adapter@_W@__crt_stdio_output@@AEB_KAEBQEB_WAEBQEAU__crt_locale_pointers@@AEBQEAD@?$positional_parameter_base@_WV?$stream_output_adapter@_W@__crt_stdio_output@@@__crt_stdio_output@@IEAA@AEBV?$stream_output_adapter@_W@1@AEB_KAEBQEB_WAEBQEAU__crt_locale_pointers@@AEBQEAD@Z 0000000140026f4c f i libucrt:output.obj
 0001:00026018       ??$?0AEBV?$stream_output_adapter@_W@__crt_stdio_output@@AEB_KAEBQEB_WAEBQEAU__crt_locale_pointers@@AEBQEAD@?$standard_base@_WV?$stream_output_adapter@_W@__crt_stdio_output@@@__crt_stdio_output@@IEAA@AEBV?$stream_output_adapter@_W@1@AEB_KAEBQEB_WAEBQEAU__crt_locale_pointers@@AEBQEAD@Z 0000000140027018 f i libucrt:output.obj
 0001:000260c0       ??$?0AEBV?$string_output_adapter@D@__crt_stdio_output@@AEB_KAEBQEBDAEBQEAU__crt_locale_pointers@@AEBQEAD@?$format_validation_base@DV?$string_output_adapter@D@__crt_stdio_output@@@__crt_stdio_output@@IEAA@AEBV?$string_output_adapter@D@1@AEB_KAEBQEBDAEBQEAU__crt_locale_pointers@@AEBQEAD@Z 00000001400270c0 f i libucrt:output.obj
 0001:00026164       ??$?0AEBV?$string_output_adapter@D@__crt_stdio_output@@AEB_KAEBQEBDAEBQEAU__crt_locale_pointers@@AEBQEAD@?$positional_parameter_base@DV?$string_output_adapter@D@__crt_stdio_output@@@__crt_stdio_output@@IEAA@AEBV?$string_output_adapter@D@1@AEB_KAEBQEBDAEBQEAU__crt_locale_pointers@@AEBQEAD@Z 0000000140027164 f i libucrt:output.obj
 0001:0002622c       ??$?0AEBV?$string_output_adapter@D@__crt_stdio_output@@AEB_KAEBQEBDAEBQEAU__crt_locale_pointers@@AEBQEAD@?$standard_base@DV?$string_output_adapter@D@__crt_stdio_output@@@__crt_stdio_output@@IEAA@AEBV?$string_output_adapter@D@1@AEB_KAEBQEBDAEBQEAU__crt_locale_pointers@@AEBQEAD@Z 000000014002722c f i libucrt:output.obj
 0001:000262d0       ??$?0AEBV?$string_output_adapter@_W@__crt_stdio_output@@AEB_KAEBQEB_WAEBQEAU__crt_locale_pointers@@AEBQEAD@?$format_validation_base@_WV?$string_output_adapter@_W@__crt_stdio_output@@@__crt_stdio_output@@IEAA@AEBV?$string_output_adapter@_W@1@AEB_KAEBQEB_WAEBQEAU__crt_locale_pointers@@AEBQEAD@Z 00000001400272d0 f i libucrt:output.obj
 0001:00026378       ??$?0AEBV?$string_output_adapter@_W@__crt_stdio_output@@AEB_KAEBQEB_WAEBQEAU__crt_locale_pointers@@AEBQEAD@?$positional_parameter_base@_WV?$string_output_adapter@_W@__crt_stdio_output@@@__crt_stdio_output@@IEAA@AEBV?$string_output_adapter@_W@1@AEB_KAEBQEB_WAEBQEAU__crt_locale_pointers@@AEBQEAD@Z 0000000140027378 f i libucrt:output.obj
 0001:00026444       ??$?0AEBV?$string_output_adapter@_W@__crt_stdio_output@@AEB_KAEBQEB_WAEBQEAU__crt_locale_pointers@@AEBQEAD@?$standard_base@_WV?$string_output_adapter@_W@__crt_stdio_output@@@__crt_stdio_output@@IEAA@AEBV?$string_output_adapter@_W@1@AEB_KAEBQEB_WAEBQEAU__crt_locale_pointers@@AEBQEAD@Z 0000000140027444 f i libucrt:output.obj
 0001:00027dcc       ??$count@D@formatting_buffer@__crt_stdio_output@@QEBA_KXZ 0000000140028dcc f i libucrt:output.obj
 0001:00027df0       ??$count@_W@formatting_buffer@__crt_stdio_output@@QEBA_KXZ 0000000140028df0 f i libucrt:output.obj
 0001:00027e14       ??$data@D@formatting_buffer@__crt_stdio_output@@QEAAPEADXZ 0000000140028e14 f i libucrt:output.obj
 0001:00027e28       ??$data@_W@formatting_buffer@__crt_stdio_output@@QEAAPEA_WXZ 0000000140028e28 f i libucrt:output.obj
 0001:00027e3c       ??$ensure_buffer_is_big_enough@D@formatting_buffer@__crt_stdio_output@@QEAA_N_K@Z 0000000140028e3c f i libucrt:output.obj
 0001:00027f0c       ??$ensure_buffer_is_big_enough@_W@formatting_buffer@__crt_stdio_output@@QEAA_N_K@Z 0000000140028f0c f i libucrt:output.obj
 0001:00027fe0       ??$extract_argument_from_va_list@C_J@?$positional_parameter_base@DV?$stream_output_adapter@D@__crt_stdio_output@@@__crt_stdio_output@@IEAA_NAEA_J@Z 0000000140028fe0 f i libucrt:output.obj
 0001:000280cc       ??$extract_argument_from_va_list@C_J@?$positional_parameter_base@DV?$string_output_adapter@D@__crt_stdio_output@@@__crt_stdio_output@@IEAA_NAEA_J@Z 00000001400290cc f i libucrt:output.obj
 0001:000281b8       ??$extract_argument_from_va_list@C_J@?$positional_parameter_base@_WV?$stream_output_adapter@_W@__crt_stdio_output@@@__crt_stdio_output@@IEAA_NAEA_J@Z 00000001400291b8 f i libucrt:output.obj
 0001:000282a8       ??$extract_argument_from_va_list@C_J@?$positional_parameter_base@_WV?$string_output_adapter@_W@__crt_stdio_output@@@__crt_stdio_output@@IEAA_NAEA_J@Z 00000001400292a8 f i libucrt:output.obj
 0001:00028398       ??$extract_argument_from_va_list@C_J@?$standard_base@DV?$stream_output_adapter@D@__crt_stdio_output@@@__crt_stdio_output@@IEAA_NAEA_J@Z 0000000140029398 f i libucrt:output.obj
 0001:000283b4       ??$extract_argument_from_va_list@C_J@?$standard_base@DV?$string_output_adapter@D@__crt_stdio_output@@@__crt_stdio_output@@IEAA_NAEA_J@Z 00000001400293b4 f i libucrt:output.obj
 0001:000283d0       ??$extract_argument_from_va_list@C_J@?$standard_base@_WV?$stream_output_adapter@_W@__crt_stdio_output@@@__crt_stdio_output@@IEAA_NAEA_J@Z 00000001400293d0 f i libucrt:output.obj
 0001:000283ec       ??$extract_argument_from_va_list@C_J@?$standard_base@_WV?$string_output_adapter@_W@__crt_stdio_output@@@__crt_stdio_output@@IEAA_NAEA_J@Z 00000001400293ec f i libucrt:output.obj
 0001:00028408       ??$extract_argument_from_va_list@E_J@?$positional_parameter_base@DV?$stream_output_adapter@D@__crt_stdio_output@@@__crt_stdio_output@@IEAA_NAEA_J@Z 0000000140029408 f i libucrt:output.obj
 0001:000284f4       ??$extract_argument_from_va_list@E_J@?$positional_parameter_base@DV?$string_output_adapter@D@__crt_stdio_output@@@__crt_stdio_output@@IEAA_NAEA_J@Z 00000001400294f4 f i libucrt:output.obj
 0001:000285e0       ??$extract_argument_from_va_list@E_J@?$positional_parameter_base@_WV?$stream_output_adapter@_W@__crt_stdio_output@@@__crt_stdio_output@@IEAA_NAEA_J@Z 00000001400295e0 f i libucrt:output.obj
 0001:000286cc       ??$extract_argument_from_va_list@E_J@?$positional_parameter_base@_WV?$string_output_adapter@_W@__crt_stdio_output@@@__crt_stdio_output@@IEAA_NAEA_J@Z 00000001400296cc f i libucrt:output.obj
 0001:000287b8       ??$extract_argument_from_va_list@E_J@?$standard_base@DV?$stream_output_adapter@D@__crt_stdio_output@@@__crt_stdio_output@@IEAA_NAEA_J@Z 00000001400297b8 f i libucrt:output.obj
 0001:000287d0       ??$extract_argument_from_va_list@E_J@?$standard_base@DV?$string_output_adapter@D@__crt_stdio_output@@@__crt_stdio_output@@IEAA_NAEA_J@Z 00000001400297d0 f i libucrt:output.obj
 0001:000287e8       ??$extract_argument_from_va_list@E_J@?$standard_base@_WV?$stream_output_adapter@_W@__crt_stdio_output@@@__crt_stdio_output@@IEAA_NAEA_J@Z 00000001400297e8 f i libucrt:output.obj
 0001:00028800       ??$extract_argument_from_va_list@E_J@?$standard_base@_WV?$string_output_adapter@_W@__crt_stdio_output@@@__crt_stdio_output@@IEAA_NAEA_J@Z 0000000140029800 f i libucrt:output.obj
 0001:00028818       ??$extract_argument_from_va_list@F_J@?$positional_parameter_base@DV?$stream_output_adapter@D@__crt_stdio_output@@@__crt_stdio_output@@IEAA_NAEA_J@Z 0000000140029818 f i libucrt:output.obj
 0001:00028904       ??$extract_argument_from_va_list@F_J@?$positional_parameter_base@DV?$string_output_adapter@D@__crt_stdio_output@@@__crt_stdio_output@@IEAA_NAEA_J@Z 0000000140029904 f i libucrt:output.obj
 0001:000289f0       ??$extract_argument_from_va_list@F_J@?$positional_parameter_base@_WV?$stream_output_adapter@_W@__crt_stdio_output@@@__crt_stdio_output@@IEAA_NAEA_J@Z 00000001400299f0 f i libucrt:output.obj
 0001:00028ae0       ??$extract_argument_from_va_list@F_J@?$positional_parameter_base@_WV?$string_output_adapter@_W@__crt_stdio_output@@@__crt_stdio_output@@IEAA_NAEA_J@Z 0000000140029ae0 f i libucrt:output.obj
 0001:00028bd0       ??$extract_argument_from_va_list@F_J@?$standard_base@DV?$stream_output_adapter@D@__crt_stdio_output@@@__crt_stdio_output@@IEAA_NAEA_J@Z 0000000140029bd0 f i libucrt:output.obj
 0001:00028bec       ??$extract_argument_from_va_list@F_J@?$standard_base@DV?$string_output_adapter@D@__crt_stdio_output@@@__crt_stdio_output@@IEAA_NAEA_J@Z 0000000140029bec f i libucrt:output.obj
 0001:00028c08       ??$extract_argument_from_va_list@F_J@?$standard_base@_WV?$stream_output_adapter@_W@__crt_stdio_output@@@__crt_stdio_output@@IEAA_NAEA_J@Z 0000000140029c08 f i libucrt:output.obj
 0001:00028c24       ??$extract_argument_from_va_list@F_J@?$standard_base@_WV?$string_output_adapter@_W@__crt_stdio_output@@@__crt_stdio_output@@IEAA_NAEA_J@Z 0000000140029c24 f i libucrt:output.obj
 0001:00028c40       ??$extract_argument_from_va_list@GD@?$positional_parameter_base@DV?$stream_output_adapter@D@__crt_stdio_output@@@__crt_stdio_output@@IEAA_NAEAD@Z 0000000140029c40 f i libucrt:output.obj
 0001:00028d28       ??$extract_argument_from_va_list@GD@?$positional_parameter_base@DV?$string_output_adapter@D@__crt_stdio_output@@@__crt_stdio_output@@IEAA_NAEAD@Z 0000000140029d28 f i libucrt:output.obj
 0001:00028e10       ??$extract_argument_from_va_list@GD@?$standard_base@DV?$stream_output_adapter@D@__crt_stdio_output@@@__crt_stdio_output@@IEAA_NAEAD@Z 0000000140029e10 f i libucrt:output.obj
 0001:00028e28       ??$extract_argument_from_va_list@GD@?$standard_base@DV?$string_output_adapter@D@__crt_stdio_output@@@__crt_stdio_output@@IEAA_NAEAD@Z 0000000140029e28 f i libucrt:output.obj
 0001:00028e40       ??$extract_argument_from_va_list@G_J@?$positional_parameter_base@DV?$stream_output_adapter@D@__crt_stdio_output@@@__crt_stdio_output@@IEAA_NAEA_J@Z 0000000140029e40 f i libucrt:output.obj
 0001:00028f2c       ??$extract_argument_from_va_list@G_J@?$positional_parameter_base@DV?$string_output_adapter@D@__crt_stdio_output@@@__crt_stdio_output@@IEAA_NAEA_J@Z 0000000140029f2c f i libucrt:output.obj
 0001:00029018       ??$extract_argument_from_va_list@G_J@?$positional_parameter_base@_WV?$stream_output_adapter@_W@__crt_stdio_output@@@__crt_stdio_output@@IEAA_NAEA_J@Z 000000014002a018 f i libucrt:output.obj
 0001:00029104       ??$extract_argument_from_va_list@G_J@?$positional_parameter_base@_WV?$string_output_adapter@_W@__crt_stdio_output@@@__crt_stdio_output@@IEAA_NAEA_J@Z 000000014002a104 f i libucrt:output.obj
 0001:000291f0       ??$extract_argument_from_va_list@G_J@?$standard_base@DV?$stream_output_adapter@D@__crt_stdio_output@@@__crt_stdio_output@@IEAA_NAEA_J@Z 000000014002a1f0 f i libucrt:output.obj
 0001:00029208       ??$extract_argument_from_va_list@G_J@?$standard_base@DV?$string_output_adapter@D@__crt_stdio_output@@@__crt_stdio_output@@IEAA_NAEA_J@Z 000000014002a208 f i libucrt:output.obj
 0001:00029220       ??$extract_argument_from_va_list@G_J@?$standard_base@_WV?$stream_output_adapter@_W@__crt_stdio_output@@@__crt_stdio_output@@IEAA_NAEA_J@Z 000000014002a220 f i libucrt:output.obj
 0001:00029238       ??$extract_argument_from_va_list@G_J@?$standard_base@_WV?$string_output_adapter@_W@__crt_stdio_output@@@__crt_stdio_output@@IEAA_NAEA_J@Z 000000014002a238 f i libucrt:output.obj
 0001:00029250       ??$extract_argument_from_va_list@H_J@?$positional_parameter_base@DV?$stream_output_adapter@D@__crt_stdio_output@@@__crt_stdio_output@@IEAA_NAEA_J@Z 000000014002a250 f i libucrt:output.obj
 0001:00029338       ??$extract_argument_from_va_list@H_J@?$positional_parameter_base@DV?$string_output_adapter@D@__crt_stdio_output@@@__crt_stdio_output@@IEAA_NAEA_J@Z 000000014002a338 f i libucrt:output.obj
 0001:00029420       ??$extract_argument_from_va_list@H_J@?$positional_parameter_base@_WV?$stream_output_adapter@_W@__crt_stdio_output@@@__crt_stdio_output@@IEAA_NAEA_J@Z 000000014002a420 f i libucrt:output.obj
 0001:0002950c       ??$extract_argument_from_va_list@H_J@?$positional_parameter_base@_WV?$string_output_adapter@_W@__crt_stdio_output@@@__crt_stdio_output@@IEAA_NAEA_J@Z 000000014002a50c f i libucrt:output.obj
 0001:000295f8       ??$extract_argument_from_va_list@H_J@?$standard_base@DV?$stream_output_adapter@D@__crt_stdio_output@@@__crt_stdio_output@@IEAA_NAEA_J@Z 000000014002a5f8 f i libucrt:output.obj
 0001:00029610       ??$extract_argument_from_va_list@H_J@?$standard_base@DV?$string_output_adapter@D@__crt_stdio_output@@@__crt_stdio_output@@IEAA_NAEA_J@Z 000000014002a610 f i libucrt:output.obj
 0001:00029628       ??$extract_argument_from_va_list@H_J@?$standard_base@_WV?$stream_output_adapter@_W@__crt_stdio_output@@@__crt_stdio_output@@IEAA_NAEA_J@Z 000000014002a628 f i libucrt:output.obj
 0001:00029640       ??$extract_argument_from_va_list@H_J@?$standard_base@_WV?$string_output_adapter@_W@__crt_stdio_output@@@__crt_stdio_output@@IEAA_NAEA_J@Z 000000014002a640 f i libucrt:output.obj
 0001:00029658       ??$extract_argument_from_va_list@I_J@?$positional_parameter_base@DV?$stream_output_adapter@D@__crt_stdio_output@@@__crt_stdio_output@@IEAA_NAEA_J@Z 000000014002a658 f i libucrt:output.obj
 0001:00029740       ??$extract_argument_from_va_list@I_J@?$positional_parameter_base@DV?$string_output_adapter@D@__crt_stdio_output@@@__crt_stdio_output@@IEAA_NAEA_J@Z 000000014002a740 f i libucrt:output.obj
 0001:00029828       ??$extract_argument_from_va_list@I_J@?$positional_parameter_base@_WV?$stream_output_adapter@_W@__crt_stdio_output@@@__crt_stdio_output@@IEAA_NAEA_J@Z 000000014002a828 f i libucrt:output.obj
 0001:00029914       ??$extract_argument_from_va_list@I_J@?$positional_parameter_base@_WV?$string_output_adapter@_W@__crt_stdio_output@@@__crt_stdio_output@@IEAA_NAEA_J@Z 000000014002a914 f i libucrt:output.obj
 0001:00029a00       ??$extract_argument_from_va_list@I_J@?$standard_base@DV?$stream_output_adapter@D@__crt_stdio_output@@@__crt_stdio_output@@IEAA_NAEA_J@Z 000000014002aa00 f i libucrt:output.obj
 0001:00029a18       ??$extract_argument_from_va_list@I_J@?$standard_base@DV?$string_output_adapter@D@__crt_stdio_output@@@__crt_stdio_output@@IEAA_NAEA_J@Z 000000014002aa18 f i libucrt:output.obj
 0001:00029a30       ??$extract_argument_from_va_list@I_J@?$standard_base@_WV?$stream_output_adapter@_W@__crt_stdio_output@@@__crt_stdio_output@@IEAA_NAEA_J@Z 000000014002aa30 f i libucrt:output.obj
 0001:00029a48       ??$extract_argument_from_va_list@I_J@?$standard_base@_WV?$string_output_adapter@_W@__crt_stdio_output@@@__crt_stdio_output@@IEAA_NAEA_J@Z 000000014002aa48 f i libucrt:output.obj
 0001:00029a60       ??$extract_argument_from_va_list@PEADPEAD@?$positional_parameter_base@DV?$stream_output_adapter@D@__crt_stdio_output@@@__crt_stdio_output@@IEAA_NAEAPEAD@Z 000000014002aa60 f i libucrt:output.obj
 0001:00029b48       ??$extract_argument_from_va_list@PEADPEAD@?$positional_parameter_base@DV?$string_output_adapter@D@__crt_stdio_output@@@__crt_stdio_output@@IEAA_NAEAPEAD@Z 000000014002ab48 f i libucrt:output.obj
 0001:00029c30       ??$extract_argument_from_va_list@PEADPEAD@?$positional_parameter_base@_WV?$stream_output_adapter@_W@__crt_stdio_output@@@__crt_stdio_output@@IEAA_NAEAPEAD@Z 000000014002ac30 f i libucrt:output.obj
 0001:00029d1c       ??$extract_argument_from_va_list@PEADPEAD@?$positional_parameter_base@_WV?$string_output_adapter@_W@__crt_stdio_output@@@__crt_stdio_output@@IEAA_NAEAPEAD@Z 000000014002ad1c f i libucrt:output.obj
 0001:00029e08       ??$extract_argument_from_va_list@PEADPEAD@?$standard_base@DV?$stream_output_adapter@D@__crt_stdio_output@@@__crt_stdio_output@@IEAA_NAEAPEAD@Z 000000014002ae08 f i libucrt:output.obj
 0001:00029e20       ??$extract_argument_from_va_list@PEADPEAD@?$standard_base@DV?$string_output_adapter@D@__crt_stdio_output@@@__crt_stdio_output@@IEAA_NAEAPEAD@Z 000000014002ae20 f i libucrt:output.obj
 0001:00029e38       ??$extract_argument_from_va_list@PEADPEAD@?$standard_base@_WV?$stream_output_adapter@_W@__crt_stdio_output@@@__crt_stdio_output@@IEAA_NAEAPEAD@Z 000000014002ae38 f i libucrt:output.obj
 0001:00029e50       ??$extract_argument_from_va_list@PEADPEAD@?$standard_base@_WV?$string_output_adapter@_W@__crt_stdio_output@@@__crt_stdio_output@@IEAA_NAEAPEAD@Z 000000014002ae50 f i libucrt:output.obj
 0001:00029e68       ??$extract_argument_from_va_list@PEAUansi_string@?1??type_case_Z@?$output_processor@DV?$stream_output_adapter@D@__crt_stdio_output@@V?$format_validation_base@DV?$stream_output_adapter@D@__crt_stdio_output@@@2@@__crt_stdio_output@@AEAA_NXZ@PEAU1?1??234@AEAA_NXZ@@?$standard_base@DV?$stream_output_adapter@D@__crt_stdio_output@@@__crt_stdio_output@@IEAA_NAEAPEAUansi_string@?1??type_case_Z@?$output_processor@DV?$stream_output_adapter@D@__crt_stdio_output@@V?$format_validation_base@DV?$stream_output_adapter@D@__crt_stdio_output@@@2@@1@AEAA_NXZ@@Z 000000014002ae68 f i libucrt:output.obj
 0001:00029e80       ??$extract_argument_from_va_list@PEAUansi_string@?1??type_case_Z@?$output_processor@DV?$stream_output_adapter@D@__crt_stdio_output@@V?$positional_parameter_base@DV?$stream_output_adapter@D@__crt_stdio_output@@@2@@__crt_stdio_output@@AEAA_NXZ@PEAU1?1??234@AEAA_NXZ@@?$positional_parameter_base@DV?$stream_output_adapter@D@__crt_stdio_output@@@__crt_stdio_output@@IEAA_NAEAPEAUansi_string@?1??type_case_Z@?$output_processor@DV?$stream_output_adapter@D@__crt_stdio_output@@V?$positional_parameter_base@DV?$stream_output_adapter@D@__crt_stdio_output@@@2@@1@AEAA_NXZ@@Z 000000014002ae80 f i libucrt:output.obj
 0001:00029f68       ??$extract_argument_from_va_list@PEAUansi_string@?1??type_case_Z@?$output_processor@DV?$stream_output_adapter@D@__crt_stdio_output@@V?$positional_parameter_base@DV?$stream_output_adapter@D@__crt_stdio_output@@@2@@__crt_stdio_output@@AEAA_NXZ@PEAU1?1??234@AEAA_NXZ@@?$standard_base@DV?$stream_output_adapter@D@__crt_stdio_output@@@__crt_stdio_output@@IEAA_NAEAPEAUansi_string@?1??type_case_Z@?$output_processor@DV?$stream_output_adapter@D@__crt_stdio_output@@V?$positional_parameter_base@DV?$stream_output_adapter@D@__crt_stdio_output@@@2@@1@AEAA_NXZ@@Z 000000014002af68 f i libucrt:output.obj
 0001:00029f80       ??$extract_argument_from_va_list@PEAUansi_string@?1??type_case_Z@?$output_processor@DV?$stream_output_adapter@D@__crt_stdio_output@@V?$standard_base@DV?$stream_output_adapter@D@__crt_stdio_output@@@2@@__crt_stdio_output@@AEAA_NXZ@PEAU1?1??234@AEAA_NXZ@@?$standard_base@DV?$stream_output_adapter@D@__crt_stdio_output@@@__crt_stdio_output@@IEAA_NAEAPEAUansi_string@?1??type_case_Z@?$output_processor@DV?$stream_output_adapter@D@__crt_stdio_output@@V?$standard_base@DV?$stream_output_adapter@D@__crt_stdio_output@@@2@@1@AEAA_NXZ@@Z 000000014002af80 f i libucrt:output.obj
 0001:00029f98       ??$extract_argument_from_va_list@PEAUansi_string@?1??type_case_Z@?$output_processor@DV?$string_output_adapter@D@__crt_stdio_output@@V?$format_validation_base@DV?$string_output_adapter@D@__crt_stdio_output@@@2@@__crt_stdio_output@@AEAA_NXZ@PEAU1?1??234@AEAA_NXZ@@?$standard_base@DV?$string_output_adapter@D@__crt_stdio_output@@@__crt_stdio_output@@IEAA_NAEAPEAUansi_string@?1??type_case_Z@?$output_processor@DV?$string_output_adapter@D@__crt_stdio_output@@V?$format_validation_base@DV?$string_output_adapter@D@__crt_stdio_output@@@2@@1@AEAA_NXZ@@Z 000000014002af98 f i libucrt:output.obj
 0001:00029fb0       ??$extract_argument_from_va_list@PEAUansi_string@?1??type_case_Z@?$output_processor@DV?$string_output_adapter@D@__crt_stdio_output@@V?$positional_parameter_base@DV?$string_output_adapter@D@__crt_stdio_output@@@2@@__crt_stdio_output@@AEAA_NXZ@PEAU1?1??234@AEAA_NXZ@@?$positional_parameter_base@DV?$string_output_adapter@D@__crt_stdio_output@@@__crt_stdio_output@@IEAA_NAEAPEAUansi_string@?1??type_case_Z@?$output_processor@DV?$string_output_adapter@D@__crt_stdio_output@@V?$positional_parameter_base@DV?$string_output_adapter@D@__crt_stdio_output@@@2@@1@AEAA_NXZ@@Z 000000014002afb0 f i libucrt:output.obj
 0001:0002a098       ??$extract_argument_from_va_list@PEAUansi_string@?1??type_case_Z@?$output_processor@DV?$string_output_adapter@D@__crt_stdio_output@@V?$positional_parameter_base@DV?$string_output_adapter@D@__crt_stdio_output@@@2@@__crt_stdio_output@@AEAA_NXZ@PEAU1?1??234@AEAA_NXZ@@?$standard_base@DV?$string_output_adapter@D@__crt_stdio_output@@@__crt_stdio_output@@IEAA_NAEAPEAUansi_string@?1??type_case_Z@?$output_processor@DV?$string_output_adapter@D@__crt_stdio_output@@V?$positional_parameter_base@DV?$string_output_adapter@D@__crt_stdio_output@@@2@@1@AEAA_NXZ@@Z 000000014002b098 f i libucrt:output.obj
 0001:0002a0b0       ??$extract_argument_from_va_list@PEAUansi_string@?1??type_case_Z@?$output_processor@DV?$string_output_adapter@D@__crt_stdio_output@@V?$standard_base@DV?$string_output_adapter@D@__crt_stdio_output@@@2@@__crt_stdio_output@@AEAA_NXZ@PEAU1?1??234@AEAA_NXZ@@?$standard_base@DV?$string_output_adapter@D@__crt_stdio_output@@@__crt_stdio_output@@IEAA_NAEAPEAUansi_string@?1??type_case_Z@?$output_processor@DV?$string_output_adapter@D@__crt_stdio_output@@V?$standard_base@DV?$string_output_adapter@D@__crt_stdio_output@@@2@@1@AEAA_NXZ@@Z 000000014002b0b0 f i libucrt:output.obj
 0001:0002a0c8       ??$extract_argument_from_va_list@PEAUansi_string@?1??type_case_Z@?$output_processor@_WV?$stream_output_adapter@_W@__crt_stdio_output@@V?$format_validation_base@_WV?$stream_output_adapter@_W@__crt_stdio_output@@@2@@__crt_stdio_output@@AEAA_NXZ@PEAU1?1??234@AEAA_NXZ@@?$standard_base@_WV?$stream_output_adapter@_W@__crt_stdio_output@@@__crt_stdio_output@@IEAA_NAEAPEAUansi_string@?1??type_case_Z@?$output_processor@_WV?$stream_output_adapter@_W@__crt_stdio_output@@V?$format_validation_base@_WV?$stream_output_adapter@_W@__crt_stdio_output@@@2@@1@AEAA_NXZ@@Z 000000014002b0c8 f i libucrt:output.obj
 0001:0002a0e0       ??$extract_argument_from_va_list@PEAUansi_string@?1??type_case_Z@?$output_processor@_WV?$stream_output_adapter@_W@__crt_stdio_output@@V?$positional_parameter_base@_WV?$stream_output_adapter@_W@__crt_stdio_output@@@2@@__crt_stdio_output@@AEAA_NXZ@PEAU1?1??234@AEAA_NXZ@@?$positional_parameter_base@_WV?$stream_output_adapter@_W@__crt_stdio_output@@@__crt_stdio_output@@IEAA_NAEAPEAUansi_string@?1??type_case_Z@?$output_processor@_WV?$stream_output_adapter@_W@__crt_stdio_output@@V?$positional_parameter_base@_WV?$stream_output_adapter@_W@__crt_stdio_output@@@2@@1@AEAA_NXZ@@Z 000000014002b0e0 f i libucrt:output.obj
 0001:0002a1cc       ??$extract_argument_from_va_list@PEAUansi_string@?1??type_case_Z@?$output_processor@_WV?$stream_output_adapter@_W@__crt_stdio_output@@V?$positional_parameter_base@_WV?$stream_output_adapter@_W@__crt_stdio_output@@@2@@__crt_stdio_output@@AEAA_NXZ@PEAU1?1??234@AEAA_NXZ@@?$standard_base@_WV?$stream_output_adapter@_W@__crt_stdio_output@@@__crt_stdio_output@@IEAA_NAEAPEAUansi_string@?1??type_case_Z@?$output_processor@_WV?$stream_output_adapter@_W@__crt_stdio_output@@V?$positional_parameter_base@_WV?$stream_output_adapter@_W@__crt_stdio_output@@@2@@1@AEAA_NXZ@@Z 000000014002b1cc f i libucrt:output.obj
 0001:0002a1e4       ??$extract_argument_from_va_list@PEAUansi_string@?1??type_case_Z@?$output_processor@_WV?$stream_output_adapter@_W@__crt_stdio_output@@V?$standard_base@_WV?$stream_output_adapter@_W@__crt_stdio_output@@@2@@__crt_stdio_output@@AEAA_NXZ@PEAU1?1??234@AEAA_NXZ@@?$standard_base@_WV?$stream_output_adapter@_W@__crt_stdio_output@@@__crt_stdio_output@@IEAA_NAEAPEAUansi_string@?1??type_case_Z@?$output_processor@_WV?$stream_output_adapter@_W@__crt_stdio_output@@V?$standard_base@_WV?$stream_output_adapter@_W@__crt_stdio_output@@@2@@1@AEAA_NXZ@@Z 000000014002b1e4 f i libucrt:output.obj
 0001:0002a1fc       ??$extract_argument_from_va_list@PEAUansi_string@?1??type_case_Z@?$output_processor@_WV?$string_output_adapter@_W@__crt_stdio_output@@V?$format_validation_base@_WV?$string_output_adapter@_W@__crt_stdio_output@@@2@@__crt_stdio_output@@AEAA_NXZ@PEAU1?1??234@AEAA_NXZ@@?$standard_base@_WV?$string_output_adapter@_W@__crt_stdio_output@@@__crt_stdio_output@@IEAA_NAEAPEAUansi_string@?1??type_case_Z@?$output_processor@_WV?$string_output_adapter@_W@__crt_stdio_output@@V?$format_validation_base@_WV?$string_output_adapter@_W@__crt_stdio_output@@@2@@1@AEAA_NXZ@@Z 000000014002b1fc f i libucrt:output.obj
 0001:0002a214       ??$extract_argument_from_va_list@PEAUansi_string@?1??type_case_Z@?$output_processor@_WV?$string_output_adapter@_W@__crt_stdio_output@@V?$positional_parameter_base@_WV?$string_output_adapter@_W@__crt_stdio_output@@@2@@__crt_stdio_output@@AEAA_NXZ@PEAU1?1??234@AEAA_NXZ@@?$positional_parameter_base@_WV?$string_output_adapter@_W@__crt_stdio_output@@@__crt_stdio_output@@IEAA_NAEAPEAUansi_string@?1??type_case_Z@?$output_processor@_WV?$string_output_adapter@_W@__crt_stdio_output@@V?$positional_parameter_base@_WV?$string_output_adapter@_W@__crt_stdio_output@@@2@@1@AEAA_NXZ@@Z 000000014002b214 f i libucrt:output.obj
 0001:0002a300       ??$extract_argument_from_va_list@PEAUansi_string@?1??type_case_Z@?$output_processor@_WV?$string_output_adapter@_W@__crt_stdio_output@@V?$positional_parameter_base@_WV?$string_output_adapter@_W@__crt_stdio_output@@@2@@__crt_stdio_output@@AEAA_NXZ@PEAU1?1??234@AEAA_NXZ@@?$standard_base@_WV?$string_output_adapter@_W@__crt_stdio_output@@@__crt_stdio_output@@IEAA_NAEAPEAUansi_string@?1??type_case_Z@?$output_processor@_WV?$string_output_adapter@_W@__crt_stdio_output@@V?$positional_parameter_base@_WV?$string_output_adapter@_W@__crt_stdio_output@@@2@@1@AEAA_NXZ@@Z 000000014002b300 f i libucrt:output.obj
 0001:0002a318       ??$extract_argument_from_va_list@PEAUansi_string@?1??type_case_Z@?$output_processor@_WV?$string_output_adapter@_W@__crt_stdio_output@@V?$standard_base@_WV?$string_output_adapter@_W@__crt_stdio_output@@@2@@__crt_stdio_output@@AEAA_NXZ@PEAU1?1??234@AEAA_NXZ@@?$standard_base@_WV?$string_output_adapter@_W@__crt_stdio_output@@@__crt_stdio_output@@IEAA_NAEAPEAUansi_string@?1??type_case_Z@?$output_processor@_WV?$string_output_adapter@_W@__crt_stdio_output@@V?$standard_base@_WV?$string_output_adapter@_W@__crt_stdio_output@@@2@@1@AEAA_NXZ@@Z 000000014002b318 f i libucrt:output.obj
 0001:0002a330       ??$extract_argument_from_va_list@PEAXPEAX@?$positional_parameter_base@DV?$stream_output_adapter@D@__crt_stdio_output@@@__crt_stdio_output@@IEAA_NAEAPEAX@Z 000000014002b330 f i libucrt:output.obj
 0001:0002a418       ??$extract_argument_from_va_list@PEAXPEAX@?$positional_parameter_base@DV?$string_output_adapter@D@__crt_stdio_output@@@__crt_stdio_output@@IEAA_NAEAPEAX@Z 000000014002b418 f i libucrt:output.obj
 0001:0002a500       ??$extract_argument_from_va_list@PEAXPEAX@?$positional_parameter_base@_WV?$stream_output_adapter@_W@__crt_stdio_output@@@__crt_stdio_output@@IEAA_NAEAPEAX@Z 000000014002b500 f i libucrt:output.obj
 0001:0002a5ec       ??$extract_argument_from_va_list@PEAXPEAX@?$positional_parameter_base@_WV?$string_output_adapter@_W@__crt_stdio_output@@@__crt_stdio_output@@IEAA_NAEAPEAX@Z 000000014002b5ec f i libucrt:output.obj
 0001:0002a6d8       ??$extract_argument_from_va_list@PEAXPEAX@?$standard_base@DV?$stream_output_adapter@D@__crt_stdio_output@@@__crt_stdio_output@@IEAA_NAEAPEAX@Z 000000014002b6d8 f i libucrt:output.obj
 0001:0002a6f0       ??$extract_argument_from_va_list@PEAXPEAX@?$standard_base@DV?$string_output_adapter@D@__crt_stdio_output@@@__crt_stdio_output@@IEAA_NAEAPEAX@Z 000000014002b6f0 f i libucrt:output.obj
 0001:0002a708       ??$extract_argument_from_va_list@PEAXPEAX@?$standard_base@_WV?$stream_output_adapter@_W@__crt_stdio_output@@@__crt_stdio_output@@IEAA_NAEAPEAX@Z 000000014002b708 f i libucrt:output.obj
 0001:0002a720       ??$extract_argument_from_va_list@PEAXPEAX@?$standard_base@_WV?$string_output_adapter@_W@__crt_stdio_output@@@__crt_stdio_output@@IEAA_NAEAPEAX@Z 000000014002b720 f i libucrt:output.obj
 0001:0002a738       ??$extract_argument_from_va_list@U_CRT_DOUBLE@@U1@@?$positional_parameter_base@DV?$stream_output_adapter@D@__crt_stdio_output@@@__crt_stdio_output@@IEAA_NAEAU_CRT_DOUBLE@@@Z 000000014002b738 f i libucrt:output.obj
 0001:0002a820       ??$extract_argument_from_va_list@U_CRT_DOUBLE@@U1@@?$positional_parameter_base@DV?$string_output_adapter@D@__crt_stdio_output@@@__crt_stdio_output@@IEAA_NAEAU_CRT_DOUBLE@@@Z 000000014002b820 f i libucrt:output.obj
 0001:0002a908       ??$extract_argument_from_va_list@U_CRT_DOUBLE@@U1@@?$positional_parameter_base@_WV?$stream_output_adapter@_W@__crt_stdio_output@@@__crt_stdio_output@@IEAA_NAEAU_CRT_DOUBLE@@@Z 000000014002b908 f i libucrt:output.obj
 0001:0002a9f4       ??$extract_argument_from_va_list@U_CRT_DOUBLE@@U1@@?$positional_parameter_base@_WV?$string_output_adapter@_W@__crt_stdio_output@@@__crt_stdio_output@@IEAA_NAEAU_CRT_DOUBLE@@@Z 000000014002b9f4 f i libucrt:output.obj
 0001:0002aae0       ??$extract_argument_from_va_list@U_CRT_DOUBLE@@U1@@?$standard_base@DV?$stream_output_adapter@D@__crt_stdio_output@@@__crt_stdio_output@@IEAA_NAEAU_CRT_DOUBLE@@@Z 000000014002bae0 f i libucrt:output.obj
 0001:0002aafc       ??$extract_argument_from_va_list@U_CRT_DOUBLE@@U1@@?$standard_base@DV?$string_output_adapter@D@__crt_stdio_output@@@__crt_stdio_output@@IEAA_NAEAU_CRT_DOUBLE@@@Z 000000014002bafc f i libucrt:output.obj
 0001:0002ab18       ??$extract_argument_from_va_list@U_CRT_DOUBLE@@U1@@?$standard_base@_WV?$stream_output_adapter@_W@__crt_stdio_output@@@__crt_stdio_output@@IEAA_NAEAU_CRT_DOUBLE@@@Z 000000014002bb18 f i libucrt:output.obj
 0001:0002ab34       ??$extract_argument_from_va_list@U_CRT_DOUBLE@@U1@@?$standard_base@_WV?$string_output_adapter@_W@__crt_stdio_output@@@__crt_stdio_output@@IEAA_NAEAU_CRT_DOUBLE@@@Z 000000014002bb34 f i libucrt:output.obj
 0001:0002ab50       ??$extract_argument_from_va_list@_J_J@?$positional_parameter_base@DV?$stream_output_adapter@D@__crt_stdio_output@@@__crt_stdio_output@@IEAA_NAEA_J@Z 000000014002bb50 f i libucrt:output.obj
 0001:0002ac38       ??$extract_argument_from_va_list@_J_J@?$positional_parameter_base@DV?$string_output_adapter@D@__crt_stdio_output@@@__crt_stdio_output@@IEAA_NAEA_J@Z 000000014002bc38 f i libucrt:output.obj
 0001:0002ad20       ??$extract_argument_from_va_list@_J_J@?$positional_parameter_base@_WV?$stream_output_adapter@_W@__crt_stdio_output@@@__crt_stdio_output@@IEAA_NAEA_J@Z 000000014002bd20 f i libucrt:output.obj
 0001:0002ae0c       ??$extract_argument_from_va_list@_J_J@?$positional_parameter_base@_WV?$string_output_adapter@_W@__crt_stdio_output@@@__crt_stdio_output@@IEAA_NAEA_J@Z 000000014002be0c f i libucrt:output.obj
 0001:0002aef8       ??$extract_argument_from_va_list@_J_J@?$standard_base@DV?$stream_output_adapter@D@__crt_stdio_output@@@__crt_stdio_output@@IEAA_NAEA_J@Z 000000014002bef8 f i libucrt:output.obj
 0001:0002af10       ??$extract_argument_from_va_list@_J_J@?$standard_base@DV?$string_output_adapter@D@__crt_stdio_output@@@__crt_stdio_output@@IEAA_NAEA_J@Z 000000014002bf10 f i libucrt:output.obj
 0001:0002af28       ??$extract_argument_from_va_list@_J_J@?$standard_base@_WV?$stream_output_adapter@_W@__crt_stdio_output@@@__crt_stdio_output@@IEAA_NAEA_J@Z 000000014002bf28 f i libucrt:output.obj
 0001:0002af40       ??$extract_argument_from_va_list@_J_J@?$standard_base@_WV?$string_output_adapter@_W@__crt_stdio_output@@@__crt_stdio_output@@IEAA_NAEA_J@Z 000000014002bf40 f i libucrt:output.obj
 0001:0002af58       ??$extract_argument_from_va_list@_K_J@?$positional_parameter_base@DV?$stream_output_adapter@D@__crt_stdio_output@@@__crt_stdio_output@@IEAA_NAEA_J@Z 000000014002bf58 f i libucrt:output.obj
 0001:0002b040       ??$extract_argument_from_va_list@_K_J@?$positional_parameter_base@DV?$string_output_adapter@D@__crt_stdio_output@@@__crt_stdio_output@@IEAA_NAEA_J@Z 000000014002c040 f i libucrt:output.obj
 0001:0002b128       ??$extract_argument_from_va_list@_K_J@?$positional_parameter_base@_WV?$stream_output_adapter@_W@__crt_stdio_output@@@__crt_stdio_output@@IEAA_NAEA_J@Z 000000014002c128 f i libucrt:output.obj
 0001:0002b214       ??$extract_argument_from_va_list@_K_J@?$positional_parameter_base@_WV?$string_output_adapter@_W@__crt_stdio_output@@@__crt_stdio_output@@IEAA_NAEA_J@Z 000000014002c214 f i libucrt:output.obj
 0001:0002b300       ??$extract_argument_from_va_list@_K_J@?$standard_base@DV?$stream_output_adapter@D@__crt_stdio_output@@@__crt_stdio_output@@IEAA_NAEA_J@Z 000000014002c300 f i libucrt:output.obj
 0001:0002b318       ??$extract_argument_from_va_list@_K_J@?$standard_base@DV?$string_output_adapter@D@__crt_stdio_output@@@__crt_stdio_output@@IEAA_NAEA_J@Z 000000014002c318 f i libucrt:output.obj
 0001:0002b330       ??$extract_argument_from_va_list@_K_J@?$standard_base@_WV?$stream_output_adapter@_W@__crt_stdio_output@@@__crt_stdio_output@@IEAA_NAEA_J@Z 000000014002c330 f i libucrt:output.obj
 0001:0002b348       ??$extract_argument_from_va_list@_K_J@?$standard_base@_WV?$string_output_adapter@_W@__crt_stdio_output@@@__crt_stdio_output@@IEAA_NAEA_J@Z 000000014002c348 f i libucrt:output.obj
 0001:0002b360       ??$extract_argument_from_va_list@_W_W@?$positional_parameter_base@DV?$stream_output_adapter@D@__crt_stdio_output@@@__crt_stdio_output@@IEAA_NAEA_W@Z 000000014002c360 f i libucrt:output.obj
 0001:0002b44c       ??$extract_argument_from_va_list@_W_W@?$positional_parameter_base@DV?$string_output_adapter@D@__crt_stdio_output@@@__crt_stdio_output@@IEAA_NAEA_W@Z 000000014002c44c f i libucrt:output.obj
 0001:0002b538       ??$extract_argument_from_va_list@_W_W@?$positional_parameter_base@_WV?$stream_output_adapter@_W@__crt_stdio_output@@@__crt_stdio_output@@IEAA_NAEA_W@Z 000000014002c538 f i libucrt:output.obj
 0001:0002b628       ??$extract_argument_from_va_list@_W_W@?$positional_parameter_base@_WV?$string_output_adapter@_W@__crt_stdio_output@@@__crt_stdio_output@@IEAA_NAEA_W@Z 000000014002c628 f i libucrt:output.obj
 0001:0002b718       ??$extract_argument_from_va_list@_W_W@?$standard_base@DV?$stream_output_adapter@D@__crt_stdio_output@@@__crt_stdio_output@@IEAA_NAEA_W@Z 000000014002c718 f i libucrt:output.obj
 0001:0002b730       ??$extract_argument_from_va_list@_W_W@?$standard_base@DV?$string_output_adapter@D@__crt_stdio_output@@@__crt_stdio_output@@IEAA_NAEA_W@Z 000000014002c730 f i libucrt:output.obj
 0001:0002b748       ??$extract_argument_from_va_list@_W_W@?$standard_base@_WV?$stream_output_adapter@_W@__crt_stdio_output@@@__crt_stdio_output@@IEAA_NAEA_W@Z 000000014002c748 f i libucrt:output.obj
 0001:0002b760       ??$extract_argument_from_va_list@_W_W@?$standard_base@_WV?$string_output_adapter@_W@__crt_stdio_output@@@__crt_stdio_output@@IEAA_NAEA_W@Z 000000014002c760 f i libucrt:output.obj
 0001:0002b778       ??$get_parameter_type@D@?$positional_parameter_base@DV?$stream_output_adapter@D@__crt_stdio_output@@@__crt_stdio_output@@CA?AW4parameter_type@01@PEAD@Z 000000014002c778 f i libucrt:output.obj
 0001:0002b780       ??$get_parameter_type@D@?$positional_parameter_base@DV?$string_output_adapter@D@__crt_stdio_output@@@__crt_stdio_output@@CA?AW4parameter_type@01@PEAD@Z 000000014002c780 f i libucrt:output.obj
 0001:0002b788       ??$get_parameter_type@D@?$positional_parameter_base@_WV?$stream_output_adapter@_W@__crt_stdio_output@@@__crt_stdio_output@@CA?AW4parameter_type@01@PEAD@Z 000000014002c788 f i libucrt:output.obj
 0001:0002b790       ??$get_parameter_type@D@?$positional_parameter_base@_WV?$string_output_adapter@_W@__crt_stdio_output@@@__crt_stdio_output@@CA?AW4parameter_type@01@PEAD@Z 000000014002c790 f i libucrt:output.obj
 0001:0002b798       ??$get_parameter_type@Uansi_string@?1??type_case_Z@?$output_processor@DV?$stream_output_adapter@D@__crt_stdio_output@@V?$positional_parameter_base@DV?$stream_output_adapter@D@__crt_stdio_output@@@2@@__crt_stdio_output@@AEAA_NXZ@@?$positional_parameter_base@DV?$stream_output_adapter@D@__crt_stdio_output@@@__crt_stdio_output@@CA?AW4parameter_type@01@PEAUansi_string@?1??type_case_Z@?$output_processor@DV?$stream_output_adapter@D@__crt_stdio_output@@V?$positional_parameter_base@DV?$stream_output_adapter@D@__crt_stdio_output@@@2@@1@AEAA_NXZ@@Z 000000014002c798 f i libucrt:output.obj
 0001:0002b7a0       ??$get_parameter_type@Uansi_string@?1??type_case_Z@?$output_processor@DV?$string_output_adapter@D@__crt_stdio_output@@V?$positional_parameter_base@DV?$string_output_adapter@D@__crt_stdio_output@@@2@@__crt_stdio_output@@AEAA_NXZ@@?$positional_parameter_base@DV?$string_output_adapter@D@__crt_stdio_output@@@__crt_stdio_output@@CA?AW4parameter_type@01@PEAUansi_string@?1??type_case_Z@?$output_processor@DV?$string_output_adapter@D@__crt_stdio_output@@V?$positional_parameter_base@DV?$string_output_adapter@D@__crt_stdio_output@@@2@@1@AEAA_NXZ@@Z 000000014002c7a0 f i libucrt:output.obj
 0001:0002b7a8       ??$get_parameter_type@Uansi_string@?1??type_case_Z@?$output_processor@_WV?$stream_output_adapter@_W@__crt_stdio_output@@V?$positional_parameter_base@_WV?$stream_output_adapter@_W@__crt_stdio_output@@@2@@__crt_stdio_output@@AEAA_NXZ@@?$positional_parameter_base@_WV?$stream_output_adapter@_W@__crt_stdio_output@@@__crt_stdio_output@@CA?AW4parameter_type@01@PEAUansi_string@?1??type_case_Z@?$output_processor@_WV?$stream_output_adapter@_W@__crt_stdio_output@@V?$positional_parameter_base@_WV?$stream_output_adapter@_W@__crt_stdio_output@@@2@@1@AEAA_NXZ@@Z 000000014002c7a8 f i libucrt:output.obj
 0001:0002b7b0       ??$get_parameter_type@Uansi_string@?1??type_case_Z@?$output_processor@_WV?$string_output_adapter@_W@__crt_stdio_output@@V?$positional_parameter_base@_WV?$string_output_adapter@_W@__crt_stdio_output@@@2@@__crt_stdio_output@@AEAA_NXZ@@?$positional_parameter_base@_WV?$string_output_adapter@_W@__crt_stdio_output@@@__crt_stdio_output@@CA?AW4parameter_type@01@PEAUansi_string@?1??type_case_Z@?$output_processor@_WV?$string_output_adapter@_W@__crt_stdio_output@@V?$positional_parameter_base@_WV?$string_output_adapter@_W@__crt_stdio_output@@@2@@1@AEAA_NXZ@@Z 000000014002c7b0 f i libucrt:output.obj
 0001:0002b7b8       ??$get_parameter_type@X@?$positional_parameter_base@DV?$stream_output_adapter@D@__crt_stdio_output@@@__crt_stdio_output@@CA?AW4parameter_type@01@PEAX@Z 000000014002c7b8 f i libucrt:output.obj
 0001:0002b7c0       ??$get_parameter_type@X@?$positional_parameter_base@DV?$string_output_adapter@D@__crt_stdio_output@@@__crt_stdio_output@@CA?AW4parameter_type@01@PEAX@Z 000000014002c7c0 f i libucrt:output.obj
 0001:0002b7c8       ??$get_parameter_type@X@?$positional_parameter_base@_WV?$stream_output_adapter@_W@__crt_stdio_output@@@__crt_stdio_output@@CA?AW4parameter_type@01@PEAX@Z 000000014002c7c8 f i libucrt:output.obj
 0001:0002b7d0       ??$get_parameter_type@X@?$positional_parameter_base@_WV?$string_output_adapter@_W@__crt_stdio_output@@@__crt_stdio_output@@CA?AW4parameter_type@01@PEAX@Z 000000014002c7d0 f i libucrt:output.obj
 0001:0002b7d8       ??$is_character_specifier@D@?$positional_parameter_base@DV?$stream_output_adapter@D@__crt_stdio_output@@@__crt_stdio_output@@CA_ND@Z 000000014002c7d8 f i libucrt:output.obj
 0001:0002b7e4       ??$is_character_specifier@D@?$positional_parameter_base@DV?$string_output_adapter@D@__crt_stdio_output@@@__crt_stdio_output@@CA_ND@Z 000000014002c7e4 f i libucrt:output.obj
 0001:0002b7f0       ??$is_character_specifier@_W@?$positional_parameter_base@_WV?$stream_output_adapter@_W@__crt_stdio_output@@@__crt_stdio_output@@CA_N_W@Z 000000014002c7f0 f i libucrt:output.obj
 0001:0002b804       ??$is_character_specifier@_W@?$positional_parameter_base@_WV?$string_output_adapter@_W@__crt_stdio_output@@@__crt_stdio_output@@CA_N_W@Z 000000014002c804 f i libucrt:output.obj
 0001:0002b818       ??$is_integral_specifier@D@?$positional_parameter_base@DV?$stream_output_adapter@D@__crt_stdio_output@@@__crt_stdio_output@@CA_ND@Z 000000014002c818 f i libucrt:output.obj
 0001:0002b844       ??$is_integral_specifier@D@?$positional_parameter_base@DV?$string_output_adapter@D@__crt_stdio_output@@@__crt_stdio_output@@CA_ND@Z 000000014002c844 f i libucrt:output.obj
 0001:0002b870       ??$is_integral_specifier@_W@?$positional_parameter_base@_WV?$stream_output_adapter@_W@__crt_stdio_output@@@__crt_stdio_output@@CA_N_W@Z 000000014002c870 f i libucrt:output.obj
 0001:0002b8a0       ??$is_integral_specifier@_W@?$positional_parameter_base@_WV?$string_output_adapter@_W@__crt_stdio_output@@@__crt_stdio_output@@CA_N_W@Z 000000014002c8a0 f i libucrt:output.obj
 0001:0002b8d0       ??$is_pointer_specifier@D@?$positional_parameter_base@DV?$stream_output_adapter@D@__crt_stdio_output@@@__crt_stdio_output@@CA_ND@Z 000000014002c8d0 f i libucrt:output.obj
 0001:0002b8d8       ??$is_pointer_specifier@D@?$positional_parameter_base@DV?$string_output_adapter@D@__crt_stdio_output@@@__crt_stdio_output@@CA_ND@Z 000000014002c8d8 f i libucrt:output.obj
 0001:0002b8e0       ??$is_pointer_specifier@_W@?$positional_parameter_base@_WV?$stream_output_adapter@_W@__crt_stdio_output@@@__crt_stdio_output@@CA_N_W@Z 000000014002c8e0 f i libucrt:output.obj
 0001:0002b8ec       ??$is_pointer_specifier@_W@?$positional_parameter_base@_WV?$string_output_adapter@_W@__crt_stdio_output@@@__crt_stdio_output@@CA_N_W@Z 000000014002c8ec f i libucrt:output.obj
 0001:0002b8f8       ??$is_string_specifier@D@?$positional_parameter_base@DV?$stream_output_adapter@D@__crt_stdio_output@@@__crt_stdio_output@@CA_ND@Z 000000014002c8f8 f i libucrt:output.obj
 0001:0002b904       ??$is_string_specifier@D@?$positional_parameter_base@DV?$string_output_adapter@D@__crt_stdio_output@@@__crt_stdio_output@@CA_ND@Z 000000014002c904 f i libucrt:output.obj
 0001:0002b910       ??$is_string_specifier@_W@?$positional_parameter_base@_WV?$stream_output_adapter@_W@__crt_stdio_output@@@__crt_stdio_output@@CA_N_W@Z 000000014002c910 f i libucrt:output.obj
 0001:0002b924       ??$is_string_specifier@_W@?$positional_parameter_base@_WV?$string_output_adapter@_W@__crt_stdio_output@@@__crt_stdio_output@@CA_N_W@Z 000000014002c924 f i libucrt:output.obj
 0001:0002b938       ??$is_wide_character_specifier@D@__crt_stdio_output@@YA_N_KDW4length_modifier@0@@Z 000000014002c938 f i libucrt:output.obj
 0001:0002b96c       ??$is_wide_character_specifier@_W@__crt_stdio_output@@YA_N_K_WW4length_modifier@0@@Z 000000014002c96c f i libucrt:output.obj
 0001:0002b9bc       ??$peek_va_arg@C@__crt_stdio_output@@YACPEAD@Z 000000014002c9bc f i libucrt:output.obj
 0001:0002b9c0       ??$peek_va_arg@E@__crt_stdio_output@@YAEPEAD@Z 000000014002c9c0 f i libucrt:output.obj
 0001:0002b9c4       ??$peek_va_arg@F@__crt_stdio_output@@YAFPEAD@Z 000000014002c9c4 f i libucrt:output.obj
 0001:0002b9c8       ??$peek_va_arg@G@__crt_stdio_output@@YAGPEAD@Z 000000014002c9c8 f i libucrt:output.obj
 0001:0002b9cc       ??$peek_va_arg@H@__crt_stdio_output@@YAHPEAD@Z 000000014002c9cc f i libucrt:output.obj
 0001:0002b9d0       ??$peek_va_arg@I@__crt_stdio_output@@YAIPEAD@Z 000000014002c9d0 f i libucrt:output.obj
 0001:0002b9d4       ??$peek_va_arg@PEAD@__crt_stdio_output@@YAPEADPEAD@Z 000000014002c9d4 f i libucrt:output.obj
 0001:0002b9d8       ??$peek_va_arg@PEAUansi_string@?1??type_case_Z@?$output_processor@DV?$stream_output_adapter@D@__crt_stdio_output@@V?$positional_parameter_base@DV?$stream_output_adapter@D@__crt_stdio_output@@@2@@__crt_stdio_output@@AEAA_NXZ@@__crt_stdio_output@@YAPEAUansi_string@?1??type_case_Z@?$output_processor@DV?$stream_output_adapter@D@__crt_stdio_output@@V?$positional_parameter_base@DV?$stream_output_adapter@D@__crt_stdio_output@@@2@@0@AEAA_NXZ@PEAD@Z 000000014002c9d8 f i libucrt:output.obj
 0001:0002b9dc       ??$peek_va_arg@PEAUansi_string@?1??type_case_Z@?$output_processor@DV?$string_output_adapter@D@__crt_stdio_output@@V?$positional_parameter_base@DV?$string_output_adapter@D@__crt_stdio_output@@@2@@__crt_stdio_output@@AEAA_NXZ@@__crt_stdio_output@@YAPEAUansi_string@?1??type_case_Z@?$output_processor@DV?$string_output_adapter@D@__crt_stdio_output@@V?$positional_parameter_base@DV?$string_output_adapter@D@__crt_stdio_output@@@2@@0@AEAA_NXZ@PEAD@Z 000000014002c9dc f i libucrt:output.obj
 0001:0002b9e0       ??$peek_va_arg@PEAUansi_string@?1??type_case_Z@?$output_processor@_WV?$stream_output_adapter@_W@__crt_stdio_output@@V?$positional_parameter_base@_WV?$stream_output_adapter@_W@__crt_stdio_output@@@2@@__crt_stdio_output@@AEAA_NXZ@@__crt_stdio_output@@YAPEAUansi_string@?1??type_case_Z@?$output_processor@_WV?$stream_output_adapter@_W@__crt_stdio_output@@V?$positional_parameter_base@_WV?$stream_output_adapter@_W@__crt_stdio_output@@@2@@0@AEAA_NXZ@PEAD@Z 000000014002c9e0 f i libucrt:output.obj
 0001:0002b9e4       ??$peek_va_arg@PEAUansi_string@?1??type_case_Z@?$output_processor@_WV?$string_output_adapter@_W@__crt_stdio_output@@V?$positional_parameter_base@_WV?$string_output_adapter@_W@__crt_stdio_output@@@2@@__crt_stdio_output@@AEAA_NXZ@@__crt_stdio_output@@YAPEAUansi_string@?1??type_case_Z@?$output_processor@_WV?$string_output_adapter@_W@__crt_stdio_output@@V?$positional_parameter_base@_WV?$string_output_adapter@_W@__crt_stdio_output@@@2@@0@AEAA_NXZ@PEAD@Z 000000014002c9e4 f i libucrt:output.obj
 0001:0002b9e8       ??$peek_va_arg@PEAX@__crt_stdio_output@@YAPEAXPEAD@Z 000000014002c9e8 f i libucrt:output.obj
 0001:0002b9ec       ??$peek_va_arg@U_CRT_DOUBLE@@@__crt_stdio_output@@YA?AU_CRT_DOUBLE@@PEAD@Z 000000014002c9ec f i libucrt:output.obj
 0001:0002b9f0       ??$peek_va_arg@_J@__crt_stdio_output@@YA_JPEAD@Z 000000014002c9f0 f i libucrt:output.obj
 0001:0002b9f4       ??$peek_va_arg@_K@__crt_stdio_output@@YA_KPEAD@Z 000000014002c9f4 f i libucrt:output.obj
 0001:0002b9f8       ??$peek_va_arg@_W@__crt_stdio_output@@YA_WPEAD@Z 000000014002c9f8 f i libucrt:output.obj
 0001:0002b9fc       ??$puttc_nolock@AEBDPEAU_iobuf@@@?$__crt_char_traits@D@@SAHAEBD$$QEAPEAU_iobuf@@@Z 000000014002c9fc f i libucrt:output.obj
 0001:0002ba0c       ??$puttc_nolock@AEB_WPEAU_iobuf@@@?$__crt_char_traits@_W@@SAGAEB_W$$QEAPEAU_iobuf@@@Z 000000014002ca0c f i libucrt:output.obj
 0001:0002ba1c       ??$read_va_arg@C@__crt_stdio_output@@YACAEAPEAD@Z 000000014002ca1c f i libucrt:output.obj
 0001:0002ba2c       ??$read_va_arg@E@__crt_stdio_output@@YAEAEAPEAD@Z 000000014002ca2c f i libucrt:output.obj
 0001:0002ba3c       ??$read_va_arg@F@__crt_stdio_output@@YAFAEAPEAD@Z 000000014002ca3c f i libucrt:output.obj
 0001:0002ba4c       ??$read_va_arg@G@__crt_stdio_output@@YAGAEAPEAD@Z 000000014002ca4c f i libucrt:output.obj
 0001:0002ba5c       ??$read_va_arg@H@__crt_stdio_output@@YAHAEAPEAD@Z 000000014002ca5c f i libucrt:output.obj
 0001:0002ba6c       ??$read_va_arg@I@__crt_stdio_output@@YAIAEAPEAD@Z 000000014002ca6c f i libucrt:output.obj
 0001:0002ba7c       ??$read_va_arg@PEAD@__crt_stdio_output@@YAPEADAEAPEAD@Z 000000014002ca7c f i libucrt:output.obj
 0001:0002ba8c       ??$read_va_arg@PEAUansi_string@?1??type_case_Z@?$output_processor@DV?$stream_output_adapter@D@__crt_stdio_output@@V?$format_validation_base@DV?$stream_output_adapter@D@__crt_stdio_output@@@2@@__crt_stdio_output@@AEAA_NXZ@@__crt_stdio_output@@YAPEAUansi_string@?1??type_case_Z@?$output_processor@DV?$stream_output_adapter@D@__crt_stdio_output@@V?$format_validation_base@DV?$stream_output_adapter@D@__crt_stdio_output@@@2@@0@AEAA_NXZ@AEAPEAD@Z 000000014002ca8c f i libucrt:output.obj
 0001:0002ba9c       ??$read_va_arg@PEAUansi_string@?1??type_case_Z@?$output_processor@DV?$stream_output_adapter@D@__crt_stdio_output@@V?$positional_parameter_base@DV?$stream_output_adapter@D@__crt_stdio_output@@@2@@__crt_stdio_output@@AEAA_NXZ@@__crt_stdio_output@@YAPEAUansi_string@?1??type_case_Z@?$output_processor@DV?$stream_output_adapter@D@__crt_stdio_output@@V?$positional_parameter_base@DV?$stream_output_adapter@D@__crt_stdio_output@@@2@@0@AEAA_NXZ@AEAPEAD@Z 000000014002ca9c f i libucrt:output.obj
 0001:0002baac       ??$read_va_arg@PEAUansi_string@?1??type_case_Z@?$output_processor@DV?$stream_output_adapter@D@__crt_stdio_output@@V?$standard_base@DV?$stream_output_adapter@D@__crt_stdio_output@@@2@@__crt_stdio_output@@AEAA_NXZ@@__crt_stdio_output@@YAPEAUansi_string@?1??type_case_Z@?$output_processor@DV?$stream_output_adapter@D@__crt_stdio_output@@V?$standard_base@DV?$stream_output_adapter@D@__crt_stdio_output@@@2@@0@AEAA_NXZ@AEAPEAD@Z 000000014002caac f i libucrt:output.obj
 0001:0002babc       ??$read_va_arg@PEAUansi_string@?1??type_case_Z@?$output_processor@DV?$string_output_adapter@D@__crt_stdio_output@@V?$format_validation_base@DV?$string_output_adapter@D@__crt_stdio_output@@@2@@__crt_stdio_output@@AEAA_NXZ@@__crt_stdio_output@@YAPEAUansi_string@?1??type_case_Z@?$output_processor@DV?$string_output_adapter@D@__crt_stdio_output@@V?$format_validation_base@DV?$string_output_adapter@D@__crt_stdio_output@@@2@@0@AEAA_NXZ@AEAPEAD@Z 000000014002cabc f i libucrt:output.obj
 0001:0002bacc       ??$read_va_arg@PEAUansi_string@?1??type_case_Z@?$output_processor@DV?$string_output_adapter@D@__crt_stdio_output@@V?$positional_parameter_base@DV?$string_output_adapter@D@__crt_stdio_output@@@2@@__crt_stdio_output@@AEAA_NXZ@@__crt_stdio_output@@YAPEAUansi_string@?1??type_case_Z@?$output_processor@DV?$string_output_adapter@D@__crt_stdio_output@@V?$positional_parameter_base@DV?$string_output_adapter@D@__crt_stdio_output@@@2@@0@AEAA_NXZ@AEAPEAD@Z 000000014002cacc f i libucrt:output.obj
 0001:0002badc       ??$read_va_arg@PEAUansi_string@?1??type_case_Z@?$output_processor@DV?$string_output_adapter@D@__crt_stdio_output@@V?$standard_base@DV?$string_output_adapter@D@__crt_stdio_output@@@2@@__crt_stdio_output@@AEAA_NXZ@@__crt_stdio_output@@YAPEAUansi_string@?1??type_case_Z@?$output_processor@DV?$string_output_adapter@D@__crt_stdio_output@@V?$standard_base@DV?$string_output_adapter@D@__crt_stdio_output@@@2@@0@AEAA_NXZ@AEAPEAD@Z 000000014002cadc f i libucrt:output.obj
 0001:0002baec       ??$read_va_arg@PEAUansi_string@?1??type_case_Z@?$output_processor@_WV?$stream_output_adapter@_W@__crt_stdio_output@@V?$format_validation_base@_WV?$stream_output_adapter@_W@__crt_stdio_output@@@2@@__crt_stdio_output@@AEAA_NXZ@@__crt_stdio_output@@YAPEAUansi_string@?1??type_case_Z@?$output_processor@_WV?$stream_output_adapter@_W@__crt_stdio_output@@V?$format_validation_base@_WV?$stream_output_adapter@_W@__crt_stdio_output@@@2@@0@AEAA_NXZ@AEAPEAD@Z 000000014002caec f i libucrt:output.obj
 0001:0002bafc       ??$read_va_arg@PEAUansi_string@?1??type_case_Z@?$output_processor@_WV?$stream_output_adapter@_W@__crt_stdio_output@@V?$positional_parameter_base@_WV?$stream_output_adapter@_W@__crt_stdio_output@@@2@@__crt_stdio_output@@AEAA_NXZ@@__crt_stdio_output@@YAPEAUansi_string@?1??type_case_Z@?$output_processor@_WV?$stream_output_adapter@_W@__crt_stdio_output@@V?$positional_parameter_base@_WV?$stream_output_adapter@_W@__crt_stdio_output@@@2@@0@AEAA_NXZ@AEAPEAD@Z 000000014002cafc f i libucrt:output.obj
 0001:0002bb0c       ??$read_va_arg@PEAUansi_string@?1??type_case_Z@?$output_processor@_WV?$stream_output_adapter@_W@__crt_stdio_output@@V?$standard_base@_WV?$stream_output_adapter@_W@__crt_stdio_output@@@2@@__crt_stdio_output@@AEAA_NXZ@@__crt_stdio_output@@YAPEAUansi_string@?1??type_case_Z@?$output_processor@_WV?$stream_output_adapter@_W@__crt_stdio_output@@V?$standard_base@_WV?$stream_output_adapter@_W@__crt_stdio_output@@@2@@0@AEAA_NXZ@AEAPEAD@Z 000000014002cb0c f i libucrt:output.obj
 0001:0002bb1c       ??$read_va_arg@PEAUansi_string@?1??type_case_Z@?$output_processor@_WV?$string_output_adapter@_W@__crt_stdio_output@@V?$format_validation_base@_WV?$string_output_adapter@_W@__crt_stdio_output@@@2@@__crt_stdio_output@@AEAA_NXZ@@__crt_stdio_output@@YAPEAUansi_string@?1??type_case_Z@?$output_processor@_WV?$string_output_adapter@_W@__crt_stdio_output@@V?$format_validation_base@_WV?$string_output_adapter@_W@__crt_stdio_output@@@2@@0@AEAA_NXZ@AEAPEAD@Z 000000014002cb1c f i libucrt:output.obj
 0001:0002bb2c       ??$read_va_arg@PEAUansi_string@?1??type_case_Z@?$output_processor@_WV?$string_output_adapter@_W@__crt_stdio_output@@V?$positional_parameter_base@_WV?$string_output_adapter@_W@__crt_stdio_output@@@2@@__crt_stdio_output@@AEAA_NXZ@@__crt_stdio_output@@YAPEAUansi_string@?1??type_case_Z@?$output_processor@_WV?$string_output_adapter@_W@__crt_stdio_output@@V?$positional_parameter_base@_WV?$string_output_adapter@_W@__crt_stdio_output@@@2@@0@AEAA_NXZ@AEAPEAD@Z 000000014002cb2c f i libucrt:output.obj
 0001:0002bb3c       ??$read_va_arg@PEAUansi_string@?1??type_case_Z@?$output_processor@_WV?$string_output_adapter@_W@__crt_stdio_output@@V?$standard_base@_WV?$string_output_adapter@_W@__crt_stdio_output@@@2@@__crt_stdio_output@@AEAA_NXZ@@__crt_stdio_output@@YAPEAUansi_string@?1??type_case_Z@?$output_processor@_WV?$string_output_adapter@_W@__crt_stdio_output@@V?$standard_base@_WV?$string_output_adapter@_W@__crt_stdio_output@@@2@@0@AEAA_NXZ@AEAPEAD@Z 000000014002cb3c f i libucrt:output.obj
 0001:0002bb4c       ??$read_va_arg@PEAX@__crt_stdio_output@@YAPEAXAEAPEAD@Z 000000014002cb4c f i libucrt:output.obj
 0001:0002bb5c       ??$read_va_arg@U_CRT_DOUBLE@@@__crt_stdio_output@@YA?AU_CRT_DOUBLE@@AEAPEAD@Z 000000014002cb5c f i libucrt:output.obj
 0001:0002bb6c       ??$read_va_arg@_J@__crt_stdio_output@@YA_JAEAPEAD@Z 000000014002cb6c f i libucrt:output.obj
 0001:0002bb7c       ??$read_va_arg@_K@__crt_stdio_output@@YA_KAEAPEAD@Z 000000014002cb7c f i libucrt:output.obj
 0001:0002bb8c       ??$read_va_arg@_W@__crt_stdio_output@@YA_WAEAPEAD@Z 000000014002cb8c f i libucrt:output.obj
 0001:0002bb9c       ??$scratch_count@D@formatting_buffer@__crt_stdio_output@@QEBA_KXZ 000000014002cb9c f i libucrt:output.obj
 0001:0002bbc0       ??$scratch_data@D@formatting_buffer@__crt_stdio_output@@QEAAPEADXZ 000000014002cbc0 f i libucrt:output.obj
 0001:0002bbec       ??$tcstol@AEAPEBDPEAPEADH@?$__crt_char_traits@D@@SAJAEAPEBD$$QEAPEAPEAD$$QEAH@Z 000000014002cbec f i libucrt:output.obj
 0001:0002bc00       ??$tcstol@AEAPEB_WPEAPEA_WH@?$__crt_char_traits@_W@@SAJAEAPEB_W$$QEAPEAPEA_W$$QEAH@Z 000000014002cc00 f i libucrt:output.obj
 0001:0002bc14       ??$tcstol@PEBDPEAPEADH@?$__crt_char_traits@D@@SAJ$$QEAPEBD$$QEAPEAPEAD$$QEAH@Z 000000014002cc14 f i libucrt:output.obj
 0001:0002bc28       ??$tcstol@PEB_WPEAPEA_WH@?$__crt_char_traits@_W@@SAJ$$QEAPEB_W$$QEAPEAPEA_W$$QEAH@Z 000000014002cc28 f i libucrt:output.obj
 0001:0002bc3c       ??$type_case_integer_parse_into_buffer@I@?$output_processor@DV?$stream_output_adapter@D@__crt_stdio_output@@V?$format_validation_base@DV?$stream_output_adapter@D@__crt_stdio_output@@@2@@__crt_stdio_output@@AEAAXII_N@Z 000000014002cc3c f i libucrt:output.obj
 0001:0002bce4       ??$type_case_integer_parse_into_buffer@I@?$output_processor@DV?$stream_output_adapter@D@__crt_stdio_output@@V?$positional_parameter_base@DV?$stream_output_adapter@D@__crt_stdio_output@@@2@@__crt_stdio_output@@AEAAXII_N@Z 000000014002cce4 f i libucrt:output.obj
 0001:0002bd8c       ??$type_case_integer_parse_into_buffer@I@?$output_processor@DV?$stream_output_adapter@D@__crt_stdio_output@@V?$standard_base@DV?$stream_output_adapter@D@__crt_stdio_output@@@2@@__crt_stdio_output@@AEAAXII_N@Z 000000014002cd8c f i libucrt:output.obj
 0001:0002be34       ??$type_case_integer_parse_into_buffer@I@?$output_processor@DV?$string_output_adapter@D@__crt_stdio_output@@V?$format_validation_base@DV?$string_output_adapter@D@__crt_stdio_output@@@2@@__crt_stdio_output@@AEAAXII_N@Z 000000014002ce34 f i libucrt:output.obj
 0001:0002bedc       ??$type_case_integer_parse_into_buffer@I@?$output_processor@DV?$string_output_adapter@D@__crt_stdio_output@@V?$positional_parameter_base@DV?$string_output_adapter@D@__crt_stdio_output@@@2@@__crt_stdio_output@@AEAAXII_N@Z 000000014002cedc f i libucrt:output.obj
 0001:0002bf84       ??$type_case_integer_parse_into_buffer@I@?$output_processor@DV?$string_output_adapter@D@__crt_stdio_output@@V?$standard_base@DV?$string_output_adapter@D@__crt_stdio_output@@@2@@__crt_stdio_output@@AEAAXII_N@Z 000000014002cf84 f i libucrt:output.obj
 0001:0002c02c       ??$type_case_integer_parse_into_buffer@I@?$output_processor@_WV?$stream_output_adapter@_W@__crt_stdio_output@@V?$format_validation_base@_WV?$stream_output_adapter@_W@__crt_stdio_output@@@2@@__crt_stdio_output@@AEAAXII_N@Z 000000014002d02c f i libucrt:output.obj
 0001:0002c0f8       ??$type_case_integer_parse_into_buffer@I@?$output_processor@_WV?$stream_output_adapter@_W@__crt_stdio_output@@V?$positional_parameter_base@_WV?$stream_output_adapter@_W@__crt_stdio_output@@@2@@__crt_stdio_output@@AEAAXII_N@Z 000000014002d0f8 f i libucrt:output.obj
 0001:0002c1c4       ??$type_case_integer_parse_into_buffer@I@?$output_processor@_WV?$stream_output_adapter@_W@__crt_stdio_output@@V?$standard_base@_WV?$stream_output_adapter@_W@__crt_stdio_output@@@2@@__crt_stdio_output@@AEAAXII_N@Z 000000014002d1c4 f i libucrt:output.obj
 0001:0002c290       ??$type_case_integer_parse_into_buffer@I@?$output_processor@_WV?$string_output_adapter@_W@__crt_stdio_output@@V?$format_validation_base@_WV?$string_output_adapter@_W@__crt_stdio_output@@@2@@__crt_stdio_output@@AEAAXII_N@Z 000000014002d290 f i libucrt:output.obj
 0001:0002c35c       ??$type_case_integer_parse_into_buffer@I@?$output_processor@_WV?$string_output_adapter@_W@__crt_stdio_output@@V?$positional_parameter_base@_WV?$string_output_adapter@_W@__crt_stdio_output@@@2@@__crt_stdio_output@@AEAAXII_N@Z 000000014002d35c f i libucrt:output.obj
 0001:0002c428       ??$type_case_integer_parse_into_buffer@I@?$output_processor@_WV?$string_output_adapter@_W@__crt_stdio_output@@V?$standard_base@_WV?$string_output_adapter@_W@__crt_stdio_output@@@2@@__crt_stdio_output@@AEAAXII_N@Z 000000014002d428 f i libucrt:output.obj
 0001:0002c4f4       ??$type_case_integer_parse_into_buffer@_K@?$output_processor@DV?$stream_output_adapter@D@__crt_stdio_output@@V?$format_validation_base@DV?$stream_output_adapter@D@__crt_stdio_output@@@2@@__crt_stdio_output@@AEAAX_KI_N@Z 000000014002d4f4 f i libucrt:output.obj
 0001:0002c5a4       ??$type_case_integer_parse_into_buffer@_K@?$output_processor@DV?$stream_output_adapter@D@__crt_stdio_output@@V?$positional_parameter_base@DV?$stream_output_adapter@D@__crt_stdio_output@@@2@@__crt_stdio_output@@AEAAX_KI_N@Z 000000014002d5a4 f i libucrt:output.obj
 0001:0002c654       ??$type_case_integer_parse_into_buffer@_K@?$output_processor@DV?$stream_output_adapter@D@__crt_stdio_output@@V?$standard_base@DV?$stream_output_adapter@D@__crt_stdio_output@@@2@@__crt_stdio_output@@AEAAX_KI_N@Z 000000014002d654 f i libucrt:output.obj
 0001:0002c704       ??$type_case_integer_parse_into_buffer@_K@?$output_processor@DV?$string_output_adapter@D@__crt_stdio_output@@V?$format_validation_base@DV?$string_output_adapter@D@__crt_stdio_output@@@2@@__crt_stdio_output@@AEAAX_KI_N@Z 000000014002d704 f i libucrt:output.obj
 0001:0002c7b4       ??$type_case_integer_parse_into_buffer@_K@?$output_processor@DV?$string_output_adapter@D@__crt_stdio_output@@V?$positional_parameter_base@DV?$string_output_adapter@D@__crt_stdio_output@@@2@@__crt_stdio_output@@AEAAX_KI_N@Z 000000014002d7b4 f i libucrt:output.obj
 0001:0002c864       ??$type_case_integer_parse_into_buffer@_K@?$output_processor@DV?$string_output_adapter@D@__crt_stdio_output@@V?$standard_base@DV?$string_output_adapter@D@__crt_stdio_output@@@2@@__crt_stdio_output@@AEAAX_KI_N@Z 000000014002d864 f i libucrt:output.obj
 0001:0002c914       ??$type_case_integer_parse_into_buffer@_K@?$output_processor@_WV?$stream_output_adapter@_W@__crt_stdio_output@@V?$format_validation_base@_WV?$stream_output_adapter@_W@__crt_stdio_output@@@2@@__crt_stdio_output@@AEAAX_KI_N@Z 000000014002d914 f i libucrt:output.obj
 0001:0002c9e4       ??$type_case_integer_parse_into_buffer@_K@?$output_processor@_WV?$stream_output_adapter@_W@__crt_stdio_output@@V?$positional_parameter_base@_WV?$stream_output_adapter@_W@__crt_stdio_output@@@2@@__crt_stdio_output@@AEAAX_KI_N@Z 000000014002d9e4 f i libucrt:output.obj
 0001:0002cab4       ??$type_case_integer_parse_into_buffer@_K@?$output_processor@_WV?$stream_output_adapter@_W@__crt_stdio_output@@V?$standard_base@_WV?$stream_output_adapter@_W@__crt_stdio_output@@@2@@__crt_stdio_output@@AEAAX_KI_N@Z 000000014002dab4 f i libucrt:output.obj
 0001:0002cb84       ??$type_case_integer_parse_into_buffer@_K@?$output_processor@_WV?$string_output_adapter@_W@__crt_stdio_output@@V?$format_validation_base@_WV?$string_output_adapter@_W@__crt_stdio_output@@@2@@__crt_stdio_output@@AEAAX_KI_N@Z 000000014002db84 f i libucrt:output.obj
 0001:0002cc54       ??$type_case_integer_parse_into_buffer@_K@?$output_processor@_WV?$string_output_adapter@_W@__crt_stdio_output@@V?$positional_parameter_base@_WV?$string_output_adapter@_W@__crt_stdio_output@@@2@@__crt_stdio_output@@AEAAX_KI_N@Z 000000014002dc54 f i libucrt:output.obj
 0001:0002cd24       ??$type_case_integer_parse_into_buffer@_K@?$output_processor@_WV?$string_output_adapter@_W@__crt_stdio_output@@V?$standard_base@_WV?$string_output_adapter@_W@__crt_stdio_output@@@2@@__crt_stdio_output@@AEAAX_KI_N@Z 000000014002dd24 f i libucrt:output.obj
 0001:0002cdf4       ??$write_multiple_characters@V?$stream_output_adapter@D@__crt_stdio_output@@D@__crt_stdio_output@@YAXAEBV?$stream_output_adapter@D@0@DHQEAH@Z 000000014002ddf4 f i libucrt:output.obj
 0001:0002cea4       ??$write_multiple_characters@V?$stream_output_adapter@_W@__crt_stdio_output@@D@__crt_stdio_output@@YAXAEBV?$stream_output_adapter@_W@0@DHQEAH@Z 000000014002dea4 f i libucrt:output.obj
 0001:0002cf5c       ??$write_multiple_characters@V?$string_output_adapter@D@__crt_stdio_output@@D@__crt_stdio_output@@YAXAEBV?$string_output_adapter@D@0@DHQEAH@Z 000000014002df5c f i libucrt:output.obj
 0001:0002cff0       ??$write_multiple_characters@V?$string_output_adapter@_W@__crt_stdio_output@@D@__crt_stdio_output@@YAXAEBV?$string_output_adapter@_W@0@DHQEAH@Z 000000014002dff0 f i libucrt:output.obj
 0001:0002d21c       ??0?$common_data@D@__crt_stdio_output@@IEAA@XZ 000000014002e21c f i libucrt:output.obj
 0001:0002d268       ??0?$common_data@_W@__crt_stdio_output@@IEAA@XZ 000000014002e268 f i libucrt:output.obj
 0001:0002d2b8       ??0?$output_adapter_data@DV?$stream_output_adapter@D@__crt_stdio_output@@@__crt_stdio_output@@IEAA@AEBV?$stream_output_adapter@D@1@_KQEBDQEAU__crt_locale_pointers@@QEAD@Z 000000014002e2b8 f i libucrt:output.obj
 0001:0002d330       ??0?$output_adapter_data@DV?$string_output_adapter@D@__crt_stdio_output@@@__crt_stdio_output@@IEAA@AEBV?$string_output_adapter@D@1@_KQEBDQEAU__crt_locale_pointers@@QEAD@Z 000000014002e330 f i libucrt:output.obj
 0001:0002d3a8       ??0?$output_adapter_data@_WV?$stream_output_adapter@_W@__crt_stdio_output@@@__crt_stdio_output@@IEAA@AEBV?$stream_output_adapter@_W@1@_KQEB_WQEAU__crt_locale_pointers@@QEAD@Z 000000014002e3a8 f i libucrt:output.obj
 0001:0002d424       ??0?$output_adapter_data@_WV?$string_output_adapter@_W@__crt_stdio_output@@@__crt_stdio_output@@IEAA@AEBV?$string_output_adapter@_W@1@_KQEB_WQEAU__crt_locale_pointers@@QEAD@Z 000000014002e424 f i libucrt:output.obj
 0001:0002d4a0       ??0?$output_processor@DV?$stream_output_adapter@D@__crt_stdio_output@@V?$format_validation_base@DV?$stream_output_adapter@D@__crt_stdio_output@@@2@@__crt_stdio_output@@QEAA@AEBV?$stream_output_adapter@D@1@_KQEBDQEAU__crt_locale_pointers@@QEAD@Z 000000014002e4a0 f i libucrt:output.obj
 0001:0002d528       ??0?$output_processor@DV?$stream_output_adapter@D@__crt_stdio_output@@V?$positional_parameter_base@DV?$stream_output_adapter@D@__crt_stdio_output@@@2@@__crt_stdio_output@@QEAA@AEBV?$stream_output_adapter@D@1@_KQEBDQEAU__crt_locale_pointers@@QEAD@Z 000000014002e528 f i libucrt:output.obj
 0001:0002d5d4       ??0?$output_processor@DV?$stream_output_adapter@D@__crt_stdio_output@@V?$standard_base@DV?$stream_output_adapter@D@__crt_stdio_output@@@2@@__crt_stdio_output@@QEAA@AEBV?$stream_output_adapter@D@1@_KQEBDQEAU__crt_locale_pointers@@QEAD@Z 000000014002e5d4 f i libucrt:output.obj
 0001:0002d65c       ??0?$output_processor@DV?$string_output_adapter@D@__crt_stdio_output@@V?$format_validation_base@DV?$string_output_adapter@D@__crt_stdio_output@@@2@@__crt_stdio_output@@QEAA@AEBV?$string_output_adapter@D@1@_KQEBDQEAU__crt_locale_pointers@@QEAD@Z 000000014002e65c f i libucrt:output.obj
 0001:0002d6e4       ??0?$output_processor@DV?$string_output_adapter@D@__crt_stdio_output@@V?$positional_parameter_base@DV?$string_output_adapter@D@__crt_stdio_output@@@2@@__crt_stdio_output@@QEAA@AEBV?$string_output_adapter@D@1@_KQEBDQEAU__crt_locale_pointers@@QEAD@Z 000000014002e6e4 f i libucrt:output.obj
 0001:0002d790       ??0?$output_processor@DV?$string_output_adapter@D@__crt_stdio_output@@V?$standard_base@DV?$string_output_adapter@D@__crt_stdio_output@@@2@@__crt_stdio_output@@QEAA@AEBV?$string_output_adapter@D@1@_KQEBDQEAU__crt_locale_pointers@@QEAD@Z 000000014002e790 f i libucrt:output.obj
 0001:0002d818       ??0?$output_processor@_WV?$stream_output_adapter@_W@__crt_stdio_output@@V?$format_validation_base@_WV?$stream_output_adapter@_W@__crt_stdio_output@@@2@@__crt_stdio_output@@QEAA@AEBV?$stream_output_adapter@_W@1@_KQEB_WQEAU__crt_locale_pointers@@QEAD@Z 000000014002e818 f i libucrt:output.obj
 0001:0002d8a4       ??0?$output_processor@_WV?$stream_output_adapter@_W@__crt_stdio_output@@V?$positional_parameter_base@_WV?$stream_output_adapter@_W@__crt_stdio_output@@@2@@__crt_stdio_output@@QEAA@AEBV?$stream_output_adapter@_W@1@_KQEB_WQEAU__crt_locale_pointers@@QEAD@Z 000000014002e8a4 f i libucrt:output.obj
 0001:0002d954       ??0?$output_processor@_WV?$stream_output_adapter@_W@__crt_stdio_output@@V?$standard_base@_WV?$stream_output_adapter@_W@__crt_stdio_output@@@2@@__crt_stdio_output@@QEAA@AEBV?$stream_output_adapter@_W@1@_KQEB_WQEAU__crt_locale_pointers@@QEAD@Z 000000014002e954 f i libucrt:output.obj
 0001:0002d9e0       ??0?$output_processor@_WV?$string_output_adapter@_W@__crt_stdio_output@@V?$format_validation_base@_WV?$string_output_adapter@_W@__crt_stdio_output@@@2@@__crt_stdio_output@@QEAA@AEBV?$string_output_adapter@_W@1@_KQEB_WQEAU__crt_locale_pointers@@QEAD@Z 000000014002e9e0 f i libucrt:output.obj
 0001:0002da6c       ??0?$output_processor@_WV?$string_output_adapter@_W@__crt_stdio_output@@V?$positional_parameter_base@_WV?$string_output_adapter@_W@__crt_stdio_output@@@2@@__crt_stdio_output@@QEAA@AEBV?$string_output_adapter@_W@1@_KQEB_WQEAU__crt_locale_pointers@@QEAD@Z 000000014002ea6c f i libucrt:output.obj
 0001:0002db1c       ??0?$output_processor@_WV?$string_output_adapter@_W@__crt_stdio_output@@V?$standard_base@_WV?$string_output_adapter@_W@__crt_stdio_output@@@2@@__crt_stdio_output@@QEAA@AEBV?$string_output_adapter@_W@1@_KQEB_WQEAU__crt_locale_pointers@@QEAD@Z 000000014002eb1c f i libucrt:output.obj
 0001:0002dba8       ??0?$stream_output_adapter@D@__crt_stdio_output@@QEAA@QEAU_iobuf@@@Z 000000014002eba8 f i libucrt:output.obj
 0001:0002dbb0       ??0?$stream_output_adapter@_W@__crt_stdio_output@@QEAA@QEAU_iobuf@@@Z 000000014002ebb0 f i libucrt:output.obj
 0001:0002dbb8       ??0?$string_output_adapter@D@__crt_stdio_output@@QEAA@QEAU?$string_output_adapter_context@D@1@@Z 000000014002ebb8 f i libucrt:output.obj
 0001:0002dbc0       ??0?$string_output_adapter@_W@__crt_stdio_output@@QEAA@QEAU?$string_output_adapter_context@_W@1@@Z 000000014002ebc0 f i libucrt:output.obj
 0001:0002dbc8       ??0_LocaleUpdate@@QEAA@QEAU__crt_locale_pointers@@@Z 000000014002ebc8 f i libucrt:output.obj
 0001:0002dc8c       ??0__crt_deferred_errno_cache@@QEAA@XZ 000000014002ec8c f i libucrt:output.obj
 0001:0002dc98       ??0__crt_errno_guard@@QEAA@QEAH@Z 000000014002ec98 f i libucrt:output.obj
 0001:0002dcb0       ??0formatting_buffer@__crt_stdio_output@@QEAA@XZ 000000014002ecb0 f i libucrt:output.obj
 0001:0002dccc       ??1?$common_data@D@__crt_stdio_output@@QEAA@XZ 000000014002eccc f i libucrt:output.obj
 0001:0002dcf8       ??1?$common_data@_W@__crt_stdio_output@@QEAA@XZ 000000014002ecf8 f i libucrt:output.obj
 0001:0002dd24       ??1?$format_validation_base@DV?$stream_output_adapter@D@__crt_stdio_output@@@__crt_stdio_output@@QEAA@XZ 000000014002ed24 f i libucrt:output.obj
 0001:0002dd50       ??1?$format_validation_base@DV?$string_output_adapter@D@__crt_stdio_output@@@__crt_stdio_output@@QEAA@XZ 000000014002ed50 f i libucrt:output.obj
 0001:0002dd7c       ??1?$format_validation_base@_WV?$stream_output_adapter@_W@__crt_stdio_output@@@__crt_stdio_output@@QEAA@XZ 000000014002ed7c f i libucrt:output.obj
 0001:0002dda8       ??1?$format_validation_base@_WV?$string_output_adapter@_W@__crt_stdio_output@@@__crt_stdio_output@@QEAA@XZ 000000014002eda8 f i libucrt:output.obj
 0001:0002ddd4       ??1?$output_adapter_data@DV?$stream_output_adapter@D@__crt_stdio_output@@@__crt_stdio_output@@QEAA@XZ 000000014002edd4 f i libucrt:output.obj
 0001:0002de00       ??1?$output_adapter_data@DV?$string_output_adapter@D@__crt_stdio_output@@@__crt_stdio_output@@QEAA@XZ 000000014002ee00 f i libucrt:output.obj
 0001:0002de2c       ??1?$output_adapter_data@_WV?$stream_output_adapter@_W@__crt_stdio_output@@@__crt_stdio_output@@QEAA@XZ 000000014002ee2c f i libucrt:output.obj
 0001:0002de58       ??1?$output_adapter_data@_WV?$string_output_adapter@_W@__crt_stdio_output@@@__crt_stdio_output@@QEAA@XZ 000000014002ee58 f i libucrt:output.obj
 0001:0002de84       ??1?$output_processor@DV?$stream_output_adapter@D@__crt_stdio_output@@V?$format_validation_base@DV?$stream_output_adapter@D@__crt_stdio_output@@@2@@__crt_stdio_output@@QEAA@XZ 000000014002ee84 f i libucrt:output.obj
 0001:0002deb0       ??1?$output_processor@DV?$stream_output_adapter@D@__crt_stdio_output@@V?$positional_parameter_base@DV?$stream_output_adapter@D@__crt_stdio_output@@@2@@__crt_stdio_output@@QEAA@XZ 000000014002eeb0 f i libucrt:output.obj
 0001:0002dedc       ??1?$output_processor@DV?$stream_output_adapter@D@__crt_stdio_output@@V?$standard_base@DV?$stream_output_adapter@D@__crt_stdio_output@@@2@@__crt_stdio_output@@QEAA@XZ 000000014002eedc f i libucrt:output.obj
 0001:0002df08       ??1?$output_processor@DV?$string_output_adapter@D@__crt_stdio_output@@V?$format_validation_base@DV?$string_output_adapter@D@__crt_stdio_output@@@2@@__crt_stdio_output@@QEAA@XZ 000000014002ef08 f i libucrt:output.obj
 0001:0002df34       ??1?$output_processor@DV?$string_output_adapter@D@__crt_stdio_output@@V?$positional_parameter_base@DV?$string_output_adapter@D@__crt_stdio_output@@@2@@__crt_stdio_output@@QEAA@XZ 000000014002ef34 f i libucrt:output.obj
 0001:0002df60       ??1?$output_processor@DV?$string_output_adapter@D@__crt_stdio_output@@V?$standard_base@DV?$string_output_adapter@D@__crt_stdio_output@@@2@@__crt_stdio_output@@QEAA@XZ 000000014002ef60 f i libucrt:output.obj
 0001:0002df8c       ??1?$output_processor@_WV?$stream_output_adapter@_W@__crt_stdio_output@@V?$format_validation_base@_WV?$stream_output_adapter@_W@__crt_stdio_output@@@2@@__crt_stdio_output@@QEAA@XZ 000000014002ef8c f i libucrt:output.obj
 0001:0002dfb8       ??1?$output_processor@_WV?$stream_output_adapter@_W@__crt_stdio_output@@V?$positional_parameter_base@_WV?$stream_output_adapter@_W@__crt_stdio_output@@@2@@__crt_stdio_output@@QEAA@XZ 000000014002efb8 f i libucrt:output.obj
 0001:0002dfe4       ??1?$output_processor@_WV?$stream_output_adapter@_W@__crt_stdio_output@@V?$standard_base@_WV?$stream_output_adapter@_W@__crt_stdio_output@@@2@@__crt_stdio_output@@QEAA@XZ 000000014002efe4 f i libucrt:output.obj
 0001:0002e010       ??1?$output_processor@_WV?$string_output_adapter@_W@__crt_stdio_output@@V?$format_validation_base@_WV?$string_output_adapter@_W@__crt_stdio_output@@@2@@__crt_stdio_output@@QEAA@XZ 000000014002f010 f i libucrt:output.obj
 0001:0002e03c       ??1?$output_processor@_WV?$string_output_adapter@_W@__crt_stdio_output@@V?$positional_parameter_base@_WV?$string_output_adapter@_W@__crt_stdio_output@@@2@@__crt_stdio_output@@QEAA@XZ 000000014002f03c f i libucrt:output.obj
 0001:0002e068       ??1?$output_processor@_WV?$string_output_adapter@_W@__crt_stdio_output@@V?$standard_base@_WV?$string_output_adapter@_W@__crt_stdio_output@@@2@@__crt_stdio_output@@QEAA@XZ 000000014002f068 f i libucrt:output.obj
 0001:0002e094       ??1?$positional_parameter_base@DV?$stream_output_adapter@D@__crt_stdio_output@@@__crt_stdio_output@@QEAA@XZ 000000014002f094 f i libucrt:output.obj
 0001:0002e0c0       ??1?$positional_parameter_base@DV?$string_output_adapter@D@__crt_stdio_output@@@__crt_stdio_output@@QEAA@XZ 000000014002f0c0 f i libucrt:output.obj
 0001:0002e0ec       ??1?$positional_parameter_base@_WV?$stream_output_adapter@_W@__crt_stdio_output@@@__crt_stdio_output@@QEAA@XZ 000000014002f0ec f i libucrt:output.obj
 0001:0002e118       ??1?$positional_parameter_base@_WV?$string_output_adapter@_W@__crt_stdio_output@@@__crt_stdio_output@@QEAA@XZ 000000014002f118 f i libucrt:output.obj
 0001:0002e144       ??1?$standard_base@DV?$stream_output_adapter@D@__crt_stdio_output@@@__crt_stdio_output@@QEAA@XZ 000000014002f144 f i libucrt:output.obj
 0001:0002e170       ??1?$standard_base@DV?$string_output_adapter@D@__crt_stdio_output@@@__crt_stdio_output@@QEAA@XZ 000000014002f170 f i libucrt:output.obj
 0001:0002e19c       ??1?$standard_base@_WV?$stream_output_adapter@_W@__crt_stdio_output@@@__crt_stdio_output@@QEAA@XZ 000000014002f19c f i libucrt:output.obj
 0001:0002e1c8       ??1?$standard_base@_WV?$string_output_adapter@_W@__crt_stdio_output@@@__crt_stdio_output@@QEAA@XZ 000000014002f1c8 f i libucrt:output.obj
 0001:0002e1f4       ??1_LocaleUpdate@@QEAA@XZ  000000014002f1f4 f i libucrt:output.obj
 0001:0002e20c       ??1__crt_errno_guard@@QEAA@XZ 000000014002f20c f i libucrt:output.obj
 0001:0002e224       ??1formatting_buffer@__crt_stdio_output@@QEAA@XZ 000000014002f224 f i libucrt:output.obj
 0001:0002e250       ??4?$__crt_unique_heap_ptr@DU__crt_internal_free_policy@@@@QEAAAEAV0@$$QEAV0@@Z 000000014002f250 f i libucrt:output.obj
 0001:0002e294       ??A?$spectre_mitigated_lookup_table@Ustate_transition_pair@__crt_stdio_output@@$0IA@@__crt_stdio_output@@QEBAAEBUstate_transition_pair@1@_K@Z 000000014002f294 f i libucrt:output.obj
 0001:0002ec60       ?GetLocaleT@_LocaleUpdate@@QEAAPEAU__crt_locale_pointers@@XZ 000000014002fc60 f i libucrt:output.obj
 0001:0002ec68       ?adjust_hexit@?$output_processor@DV?$stream_output_adapter@D@__crt_stdio_output@@V?$format_validation_base@DV?$stream_output_adapter@D@__crt_stdio_output@@@2@@__crt_stdio_output@@CADH_N@Z 000000014002fc68 f i libucrt:output.obj
 0001:0002ec78       ?adjust_hexit@?$output_processor@DV?$stream_output_adapter@D@__crt_stdio_output@@V?$positional_parameter_base@DV?$stream_output_adapter@D@__crt_stdio_output@@@2@@__crt_stdio_output@@CADH_N@Z 000000014002fc78 f i libucrt:output.obj
 0001:0002ec88       ?adjust_hexit@?$output_processor@DV?$stream_output_adapter@D@__crt_stdio_output@@V?$standard_base@DV?$stream_output_adapter@D@__crt_stdio_output@@@2@@__crt_stdio_output@@CADH_N@Z 000000014002fc88 f i libucrt:output.obj
 0001:0002ec98       ?adjust_hexit@?$output_processor@DV?$string_output_adapter@D@__crt_stdio_output@@V?$format_validation_base@DV?$string_output_adapter@D@__crt_stdio_output@@@2@@__crt_stdio_output@@CADH_N@Z 000000014002fc98 f i libucrt:output.obj
 0001:0002eca8       ?adjust_hexit@?$output_processor@DV?$string_output_adapter@D@__crt_stdio_output@@V?$positional_parameter_base@DV?$string_output_adapter@D@__crt_stdio_output@@@2@@__crt_stdio_output@@CADH_N@Z 000000014002fca8 f i libucrt:output.obj
 0001:0002ecb8       ?adjust_hexit@?$output_processor@DV?$string_output_adapter@D@__crt_stdio_output@@V?$standard_base@DV?$string_output_adapter@D@__crt_stdio_output@@@2@@__crt_stdio_output@@CADH_N@Z 000000014002fcb8 f i libucrt:output.obj
 0001:0002ecc8       ?adjust_hexit@?$output_processor@_WV?$stream_output_adapter@_W@__crt_stdio_output@@V?$format_validation_base@_WV?$stream_output_adapter@_W@__crt_stdio_output@@@2@@__crt_stdio_output@@CADH_N@Z 000000014002fcc8 f i libucrt:output.obj
 0001:0002ecd8       ?adjust_hexit@?$output_processor@_WV?$stream_output_adapter@_W@__crt_stdio_output@@V?$positional_parameter_base@_WV?$stream_output_adapter@_W@__crt_stdio_output@@@2@@__crt_stdio_output@@CADH_N@Z 000000014002fcd8 f i libucrt:output.obj
 0001:0002ece8       ?adjust_hexit@?$output_processor@_WV?$stream_output_adapter@_W@__crt_stdio_output@@V?$standard_base@_WV?$stream_output_adapter@_W@__crt_stdio_output@@@2@@__crt_stdio_output@@CADH_N@Z 000000014002fce8 f i libucrt:output.obj
 0001:0002ecf8       ?adjust_hexit@?$output_processor@_WV?$string_output_adapter@_W@__crt_stdio_output@@V?$format_validation_base@_WV?$string_output_adapter@_W@__crt_stdio_output@@@2@@__crt_stdio_output@@CADH_N@Z 000000014002fcf8 f i libucrt:output.obj
 0001:0002ed08       ?adjust_hexit@?$output_processor@_WV?$string_output_adapter@_W@__crt_stdio_output@@V?$positional_parameter_base@_WV?$string_output_adapter@_W@__crt_stdio_output@@@2@@__crt_stdio_output@@CADH_N@Z 000000014002fd08 f i libucrt:output.obj
 0001:0002ed18       ?adjust_hexit@?$output_processor@_WV?$string_output_adapter@_W@__crt_stdio_output@@V?$standard_base@_WV?$string_output_adapter@_W@__crt_stdio_output@@@2@@__crt_stdio_output@@CADH_N@Z 000000014002fd18 f i libucrt:output.obj
 0001:0002ed28       ?advance_to_next_pass@?$positional_parameter_base@DV?$stream_output_adapter@D@__crt_stdio_output@@@__crt_stdio_output@@IEAA_NXZ 000000014002fd28 f i libucrt:output.obj
 0001:0002ed8c       ?advance_to_next_pass@?$positional_parameter_base@DV?$string_output_adapter@D@__crt_stdio_output@@@__crt_stdio_output@@IEAA_NXZ 000000014002fd8c f i libucrt:output.obj
 0001:0002edf0       ?advance_to_next_pass@?$positional_parameter_base@_WV?$stream_output_adapter@_W@__crt_stdio_output@@@__crt_stdio_output@@IEAA_NXZ 000000014002fdf0 f i libucrt:output.obj
 0001:0002ee54       ?advance_to_next_pass@?$positional_parameter_base@_WV?$string_output_adapter@_W@__crt_stdio_output@@@__crt_stdio_output@@IEAA_NXZ 000000014002fe54 f i libucrt:output.obj
 0001:0002eeb8       ?advance_to_next_pass@?$standard_base@DV?$stream_output_adapter@D@__crt_stdio_output@@@__crt_stdio_output@@IEAA_NXZ 000000014002feb8 f i libucrt:output.obj
 0001:0002eed0       ?advance_to_next_pass@?$standard_base@DV?$string_output_adapter@D@__crt_stdio_output@@@__crt_stdio_output@@IEAA_NXZ 000000014002fed0 f i libucrt:output.obj
 0001:0002eee8       ?advance_to_next_pass@?$standard_base@_WV?$stream_output_adapter@_W@__crt_stdio_output@@@__crt_stdio_output@@IEAA_NXZ 000000014002fee8 f i libucrt:output.obj
 0001:0002ef00       ?advance_to_next_pass@?$standard_base@_WV?$string_output_adapter@_W@__crt_stdio_output@@@__crt_stdio_output@@IEAA_NXZ 000000014002ff00 f i libucrt:output.obj
 0001:0002ef20       ?crop_zeroes@__crt_stdio_output@@YAXPEADQEAU__crt_locale_pointers@@@Z 000000014002ff20 f i libucrt:output.obj
 0001:0002efd8       ?find_next_state@?$output_processor@DV?$stream_output_adapter@D@__crt_stdio_output@@V?$format_validation_base@DV?$stream_output_adapter@D@__crt_stdio_output@@@2@@__crt_stdio_output@@AEBA?AW4state@2@DW432@@Z 000000014002ffd8 f i libucrt:output.obj
 0001:0002f014       ?find_next_state@?$output_processor@DV?$stream_output_adapter@D@__crt_stdio_output@@V?$positional_parameter_base@DV?$stream_output_adapter@D@__crt_stdio_output@@@2@@__crt_stdio_output@@AEBA?AW4state@2@DW432@@Z 0000000140030014 f i libucrt:output.obj
 0001:0002f050       ?find_next_state@?$output_processor@DV?$stream_output_adapter@D@__crt_stdio_output@@V?$standard_base@DV?$stream_output_adapter@D@__crt_stdio_output@@@2@@__crt_stdio_output@@AEBA?AW4state@2@DW432@@Z 0000000140030050 f i libucrt:output.obj
 0001:0002f08c       ?find_next_state@?$output_processor@DV?$string_output_adapter@D@__crt_stdio_output@@V?$format_validation_base@DV?$string_output_adapter@D@__crt_stdio_output@@@2@@__crt_stdio_output@@AEBA?AW4state@2@DW432@@Z 000000014003008c f i libucrt:output.obj
 0001:0002f0c8       ?find_next_state@?$output_processor@DV?$string_output_adapter@D@__crt_stdio_output@@V?$positional_parameter_base@DV?$string_output_adapter@D@__crt_stdio_output@@@2@@__crt_stdio_output@@AEBA?AW4state@2@DW432@@Z 00000001400300c8 f i libucrt:output.obj
 0001:0002f104       ?find_next_state@?$output_processor@DV?$string_output_adapter@D@__crt_stdio_output@@V?$standard_base@DV?$string_output_adapter@D@__crt_stdio_output@@@2@@__crt_stdio_output@@AEBA?AW4state@2@DW432@@Z 0000000140030104 f i libucrt:output.obj
 0001:0002f140       ?find_next_state@?$output_processor@_WV?$stream_output_adapter@_W@__crt_stdio_output@@V?$format_validation_base@_WV?$stream_output_adapter@_W@__crt_stdio_output@@@2@@__crt_stdio_output@@AEBA?AW4state@2@_WW432@@Z 0000000140030140 f i libucrt:output.obj
 0001:0002f188       ?find_next_state@?$output_processor@_WV?$stream_output_adapter@_W@__crt_stdio_output@@V?$positional_parameter_base@_WV?$stream_output_adapter@_W@__crt_stdio_output@@@2@@__crt_stdio_output@@AEBA?AW4state@2@_WW432@@Z 0000000140030188 f i libucrt:output.obj
 0001:0002f1d0       ?find_next_state@?$output_processor@_WV?$stream_output_adapter@_W@__crt_stdio_output@@V?$standard_base@_WV?$stream_output_adapter@_W@__crt_stdio_output@@@2@@__crt_stdio_output@@AEBA?AW4state@2@_WW432@@Z 00000001400301d0 f i libucrt:output.obj
 0001:0002f214       ?find_next_state@?$output_processor@_WV?$string_output_adapter@_W@__crt_stdio_output@@V?$format_validation_base@_WV?$string_output_adapter@_W@__crt_stdio_output@@@2@@__crt_stdio_output@@AEBA?AW4state@2@_WW432@@Z 0000000140030214 f i libucrt:output.obj
 0001:0002f25c       ?find_next_state@?$output_processor@_WV?$string_output_adapter@_W@__crt_stdio_output@@V?$positional_parameter_base@_WV?$string_output_adapter@_W@__crt_stdio_output@@@2@@__crt_stdio_output@@AEBA?AW4state@2@_WW432@@Z 000000014003025c f i libucrt:output.obj
 0001:0002f2a4       ?find_next_state@?$output_processor@_WV?$string_output_adapter@_W@__crt_stdio_output@@V?$standard_base@_WV?$string_output_adapter@_W@__crt_stdio_output@@@2@@__crt_stdio_output@@AEBA?AW4state@2@_WW432@@Z 00000001400302a4 f i libucrt:output.obj
 0001:0002f2f0       ?force_decimal_point@__crt_stdio_output@@YAXPEADQEAU__crt_locale_pointers@@@Z 00000001400302f0 f i libucrt:output.obj
 0001:0002f384       ?get@__crt_deferred_errno_cache@@QEAAAEAHXZ 0000000140030384 f i libucrt:output.obj
 0001:0002f3ac       ?get_parameter_type@?$positional_parameter_base@DV?$stream_output_adapter@D@__crt_stdio_output@@@__crt_stdio_output@@CA?AW4parameter_type@12@F@Z 00000001400303ac f i libucrt:output.obj
 0001:0002f3b4       ?get_parameter_type@?$positional_parameter_base@DV?$stream_output_adapter@D@__crt_stdio_output@@@__crt_stdio_output@@CA?AW4parameter_type@12@G@Z 00000001400303b4 f i libucrt:output.obj
 0001:0002f3bc       ?get_parameter_type@?$positional_parameter_base@DV?$stream_output_adapter@D@__crt_stdio_output@@@__crt_stdio_output@@CA?AW4parameter_type@12@H@Z 00000001400303bc f i libucrt:output.obj
 0001:0002f3c4       ?get_parameter_type@?$positional_parameter_base@DV?$stream_output_adapter@D@__crt_stdio_output@@@__crt_stdio_output@@CA?AW4parameter_type@12@I@Z 00000001400303c4 f i libucrt:output.obj
 0001:0002f3cc       ?get_parameter_type@?$positional_parameter_base@DV?$stream_output_adapter@D@__crt_stdio_output@@@__crt_stdio_output@@CA?AW4parameter_type@12@U_CRT_DOUBLE@@@Z 00000001400303cc f i libucrt:output.obj
 0001:0002f3d4       ?get_parameter_type@?$positional_parameter_base@DV?$stream_output_adapter@D@__crt_stdio_output@@@__crt_stdio_output@@CA?AW4parameter_type@12@_J@Z 00000001400303d4 f i libucrt:output.obj
 0001:0002f3dc       ?get_parameter_type@?$positional_parameter_base@DV?$stream_output_adapter@D@__crt_stdio_output@@@__crt_stdio_output@@CA?AW4parameter_type@12@_K@Z 00000001400303dc f i libucrt:output.obj
 0001:0002f3e4       ?get_parameter_type@?$positional_parameter_base@DV?$stream_output_adapter@D@__crt_stdio_output@@@__crt_stdio_output@@CA?AW4parameter_type@12@_W@Z 00000001400303e4 f i libucrt:output.obj
 0001:0002f3ec       ?get_parameter_type@?$positional_parameter_base@DV?$string_output_adapter@D@__crt_stdio_output@@@__crt_stdio_output@@CA?AW4parameter_type@12@F@Z 00000001400303ec f i libucrt:output.obj
 0001:0002f3f4       ?get_parameter_type@?$positional_parameter_base@DV?$string_output_adapter@D@__crt_stdio_output@@@__crt_stdio_output@@CA?AW4parameter_type@12@G@Z 00000001400303f4 f i libucrt:output.obj
 0001:0002f3fc       ?get_parameter_type@?$positional_parameter_base@DV?$string_output_adapter@D@__crt_stdio_output@@@__crt_stdio_output@@CA?AW4parameter_type@12@H@Z 00000001400303fc f i libucrt:output.obj
 0001:0002f404       ?get_parameter_type@?$positional_parameter_base@DV?$string_output_adapter@D@__crt_stdio_output@@@__crt_stdio_output@@CA?AW4parameter_type@12@I@Z 0000000140030404 f i libucrt:output.obj
 0001:0002f40c       ?get_parameter_type@?$positional_parameter_base@DV?$string_output_adapter@D@__crt_stdio_output@@@__crt_stdio_output@@CA?AW4parameter_type@12@U_CRT_DOUBLE@@@Z 000000014003040c f i libucrt:output.obj
 0001:0002f414       ?get_parameter_type@?$positional_parameter_base@DV?$string_output_adapter@D@__crt_stdio_output@@@__crt_stdio_output@@CA?AW4parameter_type@12@_J@Z 0000000140030414 f i libucrt:output.obj
 0001:0002f41c       ?get_parameter_type@?$positional_parameter_base@DV?$string_output_adapter@D@__crt_stdio_output@@@__crt_stdio_output@@CA?AW4parameter_type@12@_K@Z 000000014003041c f i libucrt:output.obj
 0001:0002f424       ?get_parameter_type@?$positional_parameter_base@DV?$string_output_adapter@D@__crt_stdio_output@@@__crt_stdio_output@@CA?AW4parameter_type@12@_W@Z 0000000140030424 f i libucrt:output.obj
 0001:0002f42c       ?get_parameter_type@?$positional_parameter_base@_WV?$stream_output_adapter@_W@__crt_stdio_output@@@__crt_stdio_output@@CA?AW4parameter_type@12@F@Z 000000014003042c f i libucrt:output.obj
 0001:0002f434       ?get_parameter_type@?$positional_parameter_base@_WV?$stream_output_adapter@_W@__crt_stdio_output@@@__crt_stdio_output@@CA?AW4parameter_type@12@G@Z 0000000140030434 f i libucrt:output.obj
 0001:0002f43c       ?get_parameter_type@?$positional_parameter_base@_WV?$stream_output_adapter@_W@__crt_stdio_output@@@__crt_stdio_output@@CA?AW4parameter_type@12@H@Z 000000014003043c f i libucrt:output.obj
 0001:0002f444       ?get_parameter_type@?$positional_parameter_base@_WV?$stream_output_adapter@_W@__crt_stdio_output@@@__crt_stdio_output@@CA?AW4parameter_type@12@I@Z 0000000140030444 f i libucrt:output.obj
 0001:0002f44c       ?get_parameter_type@?$positional_parameter_base@_WV?$stream_output_adapter@_W@__crt_stdio_output@@@__crt_stdio_output@@CA?AW4parameter_type@12@U_CRT_DOUBLE@@@Z 000000014003044c f i libucrt:output.obj
 0001:0002f454       ?get_parameter_type@?$positional_parameter_base@_WV?$stream_output_adapter@_W@__crt_stdio_output@@@__crt_stdio_output@@CA?AW4parameter_type@12@_J@Z 0000000140030454 f i libucrt:output.obj
 0001:0002f45c       ?get_parameter_type@?$positional_parameter_base@_WV?$stream_output_adapter@_W@__crt_stdio_output@@@__crt_stdio_output@@CA?AW4parameter_type@12@_K@Z 000000014003045c f i libucrt:output.obj
 0001:0002f464       ?get_parameter_type@?$positional_parameter_base@_WV?$stream_output_adapter@_W@__crt_stdio_output@@@__crt_stdio_output@@CA?AW4parameter_type@12@_W@Z 0000000140030464 f i libucrt:output.obj
 0001:0002f46c       ?get_parameter_type@?$positional_parameter_base@_WV?$string_output_adapter@_W@__crt_stdio_output@@@__crt_stdio_output@@CA?AW4parameter_type@12@F@Z 000000014003046c f i libucrt:output.obj
 0001:0002f474       ?get_parameter_type@?$positional_parameter_base@_WV?$string_output_adapter@_W@__crt_stdio_output@@@__crt_stdio_output@@CA?AW4parameter_type@12@G@Z 0000000140030474 f i libucrt:output.obj
 0001:0002f47c       ?get_parameter_type@?$positional_parameter_base@_WV?$string_output_adapter@_W@__crt_stdio_output@@@__crt_stdio_output@@CA?AW4parameter_type@12@H@Z 000000014003047c f i libucrt:output.obj
 0001:0002f484       ?get_parameter_type@?$positional_parameter_base@_WV?$string_output_adapter@_W@__crt_stdio_output@@@__crt_stdio_output@@CA?AW4parameter_type@12@I@Z 0000000140030484 f i libucrt:output.obj
 0001:0002f48c       ?get_parameter_type@?$positional_parameter_base@_WV?$string_output_adapter@_W@__crt_stdio_output@@@__crt_stdio_output@@CA?AW4parameter_type@12@U_CRT_DOUBLE@@@Z 000000014003048c f i libucrt:output.obj
 0001:0002f494       ?get_parameter_type@?$positional_parameter_base@_WV?$string_output_adapter@_W@__crt_stdio_output@@@__crt_stdio_output@@CA?AW4parameter_type@12@_J@Z 0000000140030494 f i libucrt:output.obj
 0001:0002f49c       ?get_parameter_type@?$positional_parameter_base@_WV?$string_output_adapter@_W@__crt_stdio_output@@@__crt_stdio_output@@CA?AW4parameter_type@12@_K@Z 000000014003049c f i libucrt:output.obj
 0001:0002f4a4       ?get_parameter_type@?$positional_parameter_base@_WV?$string_output_adapter@_W@__crt_stdio_output@@@__crt_stdio_output@@CA?AW4parameter_type@12@_W@Z 00000001400304a4 f i libucrt:output.obj
 0001:0002f4ac       ?has_flag@?$output_processor@DV?$stream_output_adapter@D@__crt_stdio_output@@V?$format_validation_base@DV?$stream_output_adapter@D@__crt_stdio_output@@@2@@__crt_stdio_output@@AEBA_NI@Z 00000001400304ac f i libucrt:output.obj
 0001:0002f4b4       ?has_flag@?$output_processor@DV?$stream_output_adapter@D@__crt_stdio_output@@V?$positional_parameter_base@DV?$stream_output_adapter@D@__crt_stdio_output@@@2@@__crt_stdio_output@@AEBA_NI@Z 00000001400304b4 f i libucrt:output.obj
 0001:0002f4bc       ?has_flag@?$output_processor@DV?$stream_output_adapter@D@__crt_stdio_output@@V?$standard_base@DV?$stream_output_adapter@D@__crt_stdio_output@@@2@@__crt_stdio_output@@AEBA_NI@Z 00000001400304bc f i libucrt:output.obj
 0001:0002f4c4       ?has_flag@?$output_processor@DV?$string_output_adapter@D@__crt_stdio_output@@V?$format_validation_base@DV?$string_output_adapter@D@__crt_stdio_output@@@2@@__crt_stdio_output@@AEBA_NI@Z 00000001400304c4 f i libucrt:output.obj
 0001:0002f4cc       ?has_flag@?$output_processor@DV?$string_output_adapter@D@__crt_stdio_output@@V?$positional_parameter_base@DV?$string_output_adapter@D@__crt_stdio_output@@@2@@__crt_stdio_output@@AEBA_NI@Z 00000001400304cc f i libucrt:output.obj
 0001:0002f4d4       ?has_flag@?$output_processor@DV?$string_output_adapter@D@__crt_stdio_output@@V?$standard_base@DV?$string_output_adapter@D@__crt_stdio_output@@@2@@__crt_stdio_output@@AEBA_NI@Z 00000001400304d4 f i libucrt:output.obj
 0001:0002f4dc       ?has_flag@?$output_processor@_WV?$stream_output_adapter@_W@__crt_stdio_output@@V?$format_validation_base@_WV?$stream_output_adapter@_W@__crt_stdio_output@@@2@@__crt_stdio_output@@AEBA_NI@Z 00000001400304dc f i libucrt:output.obj
 0001:0002f4e4       ?has_flag@?$output_processor@_WV?$stream_output_adapter@_W@__crt_stdio_output@@V?$positional_parameter_base@_WV?$stream_output_adapter@_W@__crt_stdio_output@@@2@@__crt_stdio_output@@AEBA_NI@Z 00000001400304e4 f i libucrt:output.obj
 0001:0002f4ec       ?has_flag@?$output_processor@_WV?$stream_output_adapter@_W@__crt_stdio_output@@V?$standard_base@_WV?$stream_output_adapter@_W@__crt_stdio_output@@@2@@__crt_stdio_output@@AEBA_NI@Z 00000001400304ec f i libucrt:output.obj
 0001:0002f4f4       ?has_flag@?$output_processor@_WV?$string_output_adapter@_W@__crt_stdio_output@@V?$format_validation_base@_WV?$string_output_adapter@_W@__crt_stdio_output@@@2@@__crt_stdio_output@@AEBA_NI@Z 00000001400304f4 f i libucrt:output.obj
 0001:0002f4fc       ?has_flag@?$output_processor@_WV?$string_output_adapter@_W@__crt_stdio_output@@V?$positional_parameter_base@_WV?$string_output_adapter@_W@__crt_stdio_output@@@2@@__crt_stdio_output@@AEBA_NI@Z 00000001400304fc f i libucrt:output.obj
 0001:0002f504       ?has_flag@?$output_processor@_WV?$string_output_adapter@_W@__crt_stdio_output@@V?$standard_base@_WV?$string_output_adapter@_W@__crt_stdio_output@@@2@@__crt_stdio_output@@AEBA_NI@Z 0000000140030504 f i libucrt:output.obj
 0001:0002f50c       ?is_positional_parameter_reappearance_consistent@?$positional_parameter_base@DV?$stream_output_adapter@D@__crt_stdio_output@@@__crt_stdio_output@@AEAA_NAEBUparameter_data@12@W4parameter_type@12@DW4length_modifier@2@@Z 000000014003050c f i libucrt:output.obj
 0001:0002f714       ?is_positional_parameter_reappearance_consistent@?$positional_parameter_base@DV?$string_output_adapter@D@__crt_stdio_output@@@__crt_stdio_output@@AEAA_NAEBUparameter_data@12@W4parameter_type@12@DW4length_modifier@2@@Z 0000000140030714 f i libucrt:output.obj
 0001:0002f91c       ?is_positional_parameter_reappearance_consistent@?$positional_parameter_base@_WV?$stream_output_adapter@_W@__crt_stdio_output@@@__crt_stdio_output@@AEAA_NAEBUparameter_data@12@W4parameter_type@12@_WW4length_modifier@2@@Z 000000014003091c f i libucrt:output.obj
 0001:0002fae4       ?is_positional_parameter_reappearance_consistent@?$positional_parameter_base@_WV?$string_output_adapter@_W@__crt_stdio_output@@@__crt_stdio_output@@AEAA_NAEBUparameter_data@12@W4parameter_type@12@_WW4length_modifier@2@@Z 0000000140030ae4 f i libucrt:output.obj
 0001:0002fcac       ?narrow_null_string@?$output_processor@DV?$stream_output_adapter@D@__crt_stdio_output@@V?$format_validation_base@DV?$stream_output_adapter@D@__crt_stdio_output@@@2@@__crt_stdio_output@@CAPEADXZ 0000000140030cac f i libucrt:output.obj
 0001:0002fcb8       ?narrow_null_string@?$output_processor@DV?$stream_output_adapter@D@__crt_stdio_output@@V?$positional_parameter_base@DV?$stream_output_adapter@D@__crt_stdio_output@@@2@@__crt_stdio_output@@CAPEADXZ 0000000140030cb8 f i libucrt:output.obj
 0001:0002fcc4       ?narrow_null_string@?$output_processor@DV?$stream_output_adapter@D@__crt_stdio_output@@V?$standard_base@DV?$stream_output_adapter@D@__crt_stdio_output@@@2@@__crt_stdio_output@@CAPEADXZ 0000000140030cc4 f i libucrt:output.obj
 0001:0002fcd0       ?narrow_null_string@?$output_processor@DV?$string_output_adapter@D@__crt_stdio_output@@V?$format_validation_base@DV?$string_output_adapter@D@__crt_stdio_output@@@2@@__crt_stdio_output@@CAPEADXZ 0000000140030cd0 f i libucrt:output.obj
 0001:0002fcdc       ?narrow_null_string@?$output_processor@DV?$string_output_adapter@D@__crt_stdio_output@@V?$positional_parameter_base@DV?$string_output_adapter@D@__crt_stdio_output@@@2@@__crt_stdio_output@@CAPEADXZ 0000000140030cdc f i libucrt:output.obj
 0001:0002fce8       ?narrow_null_string@?$output_processor@DV?$string_output_adapter@D@__crt_stdio_output@@V?$standard_base@DV?$string_output_adapter@D@__crt_stdio_output@@@2@@__crt_stdio_output@@CAPEADXZ 0000000140030ce8 f i libucrt:output.obj
 0001:0002fcf4       ?narrow_null_string@?$output_processor@_WV?$stream_output_adapter@_W@__crt_stdio_output@@V?$format_validation_base@_WV?$stream_output_adapter@_W@__crt_stdio_output@@@2@@__crt_stdio_output@@CAPEADXZ 0000000140030cf4 f i libucrt:output.obj
 0001:0002fd00       ?narrow_null_string@?$output_processor@_WV?$stream_output_adapter@_W@__crt_stdio_output@@V?$positional_parameter_base@_WV?$stream_output_adapter@_W@__crt_stdio_output@@@2@@__crt_stdio_output@@CAPEADXZ 0000000140030d00 f i libucrt:output.obj
 0001:0002fd0c       ?narrow_null_string@?$output_processor@_WV?$stream_output_adapter@_W@__crt_stdio_output@@V?$standard_base@_WV?$stream_output_adapter@_W@__crt_stdio_output@@@2@@__crt_stdio_output@@CAPEADXZ 0000000140030d0c f i libucrt:output.obj
 0001:0002fd18       ?narrow_null_string@?$output_processor@_WV?$string_output_adapter@_W@__crt_stdio_output@@V?$format_validation_base@_WV?$string_output_adapter@_W@__crt_stdio_output@@@2@@__crt_stdio_output@@CAPEADXZ 0000000140030d18 f i libucrt:output.obj
 0001:0002fd24       ?narrow_null_string@?$output_processor@_WV?$string_output_adapter@_W@__crt_stdio_output@@V?$positional_parameter_base@_WV?$string_output_adapter@_W@__crt_stdio_output@@@2@@__crt_stdio_output@@CAPEADXZ 0000000140030d24 f i libucrt:output.obj
 0001:0002fd30       ?narrow_null_string@?$output_processor@_WV?$string_output_adapter@_W@__crt_stdio_output@@V?$standard_base@_WV?$string_output_adapter@_W@__crt_stdio_output@@@2@@__crt_stdio_output@@CAPEADXZ 0000000140030d30 f i libucrt:output.obj
 0001:0002fd3c       ?parse_int_from_format_string@?$output_processor@DV?$stream_output_adapter@D@__crt_stdio_output@@V?$format_validation_base@DV?$stream_output_adapter@D@__crt_stdio_output@@@2@@__crt_stdio_output@@AEAA_NQEAH@Z 0000000140030d3c f i libucrt:output.obj
 0001:0002fe08       ?parse_int_from_format_string@?$output_processor@DV?$stream_output_adapter@D@__crt_stdio_output@@V?$positional_parameter_base@DV?$stream_output_adapter@D@__crt_stdio_output@@@2@@__crt_stdio_output@@AEAA_NQEAH@Z 0000000140030e08 f i libucrt:output.obj
 0001:0002fed4       ?parse_int_from_format_string@?$output_processor@DV?$stream_output_adapter@D@__crt_stdio_output@@V?$standard_base@DV?$stream_output_adapter@D@__crt_stdio_output@@@2@@__crt_stdio_output@@AEAA_NQEAH@Z 0000000140030ed4 f i libucrt:output.obj
 0001:0002ffa0       ?parse_int_from_format_string@?$output_processor@DV?$string_output_adapter@D@__crt_stdio_output@@V?$format_validation_base@DV?$string_output_adapter@D@__crt_stdio_output@@@2@@__crt_stdio_output@@AEAA_NQEAH@Z 0000000140030fa0 f i libucrt:output.obj
 0001:0003006c       ?parse_int_from_format_string@?$output_processor@DV?$string_output_adapter@D@__crt_stdio_output@@V?$positional_parameter_base@DV?$string_output_adapter@D@__crt_stdio_output@@@2@@__crt_stdio_output@@AEAA_NQEAH@Z 000000014003106c f i libucrt:output.obj
 0001:00030138       ?parse_int_from_format_string@?$output_processor@DV?$string_output_adapter@D@__crt_stdio_output@@V?$standard_base@DV?$string_output_adapter@D@__crt_stdio_output@@@2@@__crt_stdio_output@@AEAA_NQEAH@Z 0000000140031138 f i libucrt:output.obj
 0001:00030204       ?parse_int_from_format_string@?$output_processor@_WV?$stream_output_adapter@_W@__crt_stdio_output@@V?$format_validation_base@_WV?$stream_output_adapter@_W@__crt_stdio_output@@@2@@__crt_stdio_output@@AEAA_NQEAH@Z 0000000140031204 f i libucrt:output.obj
 0001:000302d0       ?parse_int_from_format_string@?$output_processor@_WV?$stream_output_adapter@_W@__crt_stdio_output@@V?$positional_parameter_base@_WV?$stream_output_adapter@_W@__crt_stdio_output@@@2@@__crt_stdio_output@@AEAA_NQEAH@Z 00000001400312d0 f i libucrt:output.obj
 0001:0003039c       ?parse_int_from_format_string@?$output_processor@_WV?$stream_output_adapter@_W@__crt_stdio_output@@V?$standard_base@_WV?$stream_output_adapter@_W@__crt_stdio_output@@@2@@__crt_stdio_output@@AEAA_NQEAH@Z 000000014003139c f i libucrt:output.obj
 0001:00030468       ?parse_int_from_format_string@?$output_processor@_WV?$string_output_adapter@_W@__crt_stdio_output@@V?$format_validation_base@_WV?$string_output_adapter@_W@__crt_stdio_output@@@2@@__crt_stdio_output@@AEAA_NQEAH@Z 0000000140031468 f i libucrt:output.obj
 0001:00030534       ?parse_int_from_format_string@?$output_processor@_WV?$string_output_adapter@_W@__crt_stdio_output@@V?$positional_parameter_base@_WV?$string_output_adapter@_W@__crt_stdio_output@@@2@@__crt_stdio_output@@AEAA_NQEAH@Z 0000000140031534 f i libucrt:output.obj
 0001:00030600       ?parse_int_from_format_string@?$output_processor@_WV?$string_output_adapter@_W@__crt_stdio_output@@V?$standard_base@_WV?$string_output_adapter@_W@__crt_stdio_output@@@2@@__crt_stdio_output@@AEAA_NQEAH@Z 0000000140031600 f i libucrt:output.obj
 0001:000306cc       ?process@?$output_processor@DV?$stream_output_adapter@D@__crt_stdio_output@@V?$format_validation_base@DV?$stream_output_adapter@D@__crt_stdio_output@@@2@@__crt_stdio_output@@QEAAHXZ 00000001400316cc f i libucrt:output.obj
 0001:00030978       ?process@?$output_processor@DV?$stream_output_adapter@D@__crt_stdio_output@@V?$positional_parameter_base@DV?$stream_output_adapter@D@__crt_stdio_output@@@2@@__crt_stdio_output@@QEAAHXZ 0000000140031978 f i libucrt:output.obj
 0001:00030cc4       ?process@?$output_processor@DV?$stream_output_adapter@D@__crt_stdio_output@@V?$standard_base@DV?$stream_output_adapter@D@__crt_stdio_output@@@2@@__crt_stdio_output@@QEAAHXZ 0000000140031cc4 f i libucrt:output.obj
 0001:00030f5c       ?process@?$output_processor@DV?$string_output_adapter@D@__crt_stdio_output@@V?$format_validation_base@DV?$string_output_adapter@D@__crt_stdio_output@@@2@@__crt_stdio_output@@QEAAHXZ 0000000140031f5c f i libucrt:output.obj
 0001:000311f4       ?process@?$output_processor@DV?$string_output_adapter@D@__crt_stdio_output@@V?$positional_parameter_base@DV?$string_output_adapter@D@__crt_stdio_output@@@2@@__crt_stdio_output@@QEAAHXZ 00000001400321f4 f i libucrt:output.obj
 0001:0003152c       ?process@?$output_processor@DV?$string_output_adapter@D@__crt_stdio_output@@V?$standard_base@DV?$string_output_adapter@D@__crt_stdio_output@@@2@@__crt_stdio_output@@QEAAHXZ 000000014003252c f i libucrt:output.obj
 0001:000317b4       ?process@?$output_processor@_WV?$stream_output_adapter@_W@__crt_stdio_output@@V?$format_validation_base@_WV?$stream_output_adapter@_W@__crt_stdio_output@@@2@@__crt_stdio_output@@QEAAHXZ 00000001400327b4 f i libucrt:output.obj
 0001:00031ad8       ?process@?$output_processor@_WV?$stream_output_adapter@_W@__crt_stdio_output@@V?$positional_parameter_base@_WV?$stream_output_adapter@_W@__crt_stdio_output@@@2@@__crt_stdio_output@@QEAAHXZ 0000000140032ad8 f i libucrt:output.obj
 0001:00031e44       ?process@?$output_processor@_WV?$stream_output_adapter@_W@__crt_stdio_output@@V?$standard_base@_WV?$stream_output_adapter@_W@__crt_stdio_output@@@2@@__crt_stdio_output@@QEAAHXZ 0000000140032e44 f i libucrt:output.obj
 0001:00032158       ?process@?$output_processor@_WV?$string_output_adapter@_W@__crt_stdio_output@@V?$format_validation_base@_WV?$string_output_adapter@_W@__crt_stdio_output@@@2@@__crt_stdio_output@@QEAAHXZ 0000000140033158 f i libucrt:output.obj
 0001:0003246c       ?process@?$output_processor@_WV?$string_output_adapter@_W@__crt_stdio_output@@V?$positional_parameter_base@_WV?$string_output_adapter@_W@__crt_stdio_output@@@2@@__crt_stdio_output@@QEAAHXZ 000000014003346c f i libucrt:output.obj
 0001:000327d8       ?process@?$output_processor@_WV?$string_output_adapter@_W@__crt_stdio_output@@V?$standard_base@_WV?$string_output_adapter@_W@__crt_stdio_output@@@2@@__crt_stdio_output@@QEAAHXZ 00000001400337d8 f i libucrt:output.obj
 0001:00032ae0       ?set_flag@?$output_processor@DV?$stream_output_adapter@D@__crt_stdio_output@@V?$format_validation_base@DV?$stream_output_adapter@D@__crt_stdio_output@@@2@@__crt_stdio_output@@AEAAXI@Z 0000000140033ae0 f i libucrt:output.obj
 0001:00032ae4       ?set_flag@?$output_processor@DV?$stream_output_adapter@D@__crt_stdio_output@@V?$positional_parameter_base@DV?$stream_output_adapter@D@__crt_stdio_output@@@2@@__crt_stdio_output@@AEAAXI@Z 0000000140033ae4 f i libucrt:output.obj
 0001:00032ae8       ?set_flag@?$output_processor@DV?$stream_output_adapter@D@__crt_stdio_output@@V?$standard_base@DV?$stream_output_adapter@D@__crt_stdio_output@@@2@@__crt_stdio_output@@AEAAXI@Z 0000000140033ae8 f i libucrt:output.obj
 0001:00032aec       ?set_flag@?$output_processor@DV?$string_output_adapter@D@__crt_stdio_output@@V?$format_validation_base@DV?$string_output_adapter@D@__crt_stdio_output@@@2@@__crt_stdio_output@@AEAAXI@Z 0000000140033aec f i libucrt:output.obj
 0001:00032af0       ?set_flag@?$output_processor@DV?$string_output_adapter@D@__crt_stdio_output@@V?$positional_parameter_base@DV?$string_output_adapter@D@__crt_stdio_output@@@2@@__crt_stdio_output@@AEAAXI@Z 0000000140033af0 f i libucrt:output.obj
 0001:00032af4       ?set_flag@?$output_processor@DV?$string_output_adapter@D@__crt_stdio_output@@V?$standard_base@DV?$string_output_adapter@D@__crt_stdio_output@@@2@@__crt_stdio_output@@AEAAXI@Z 0000000140033af4 f i libucrt:output.obj
 0001:00032af8       ?set_flag@?$output_processor@_WV?$stream_output_adapter@_W@__crt_stdio_output@@V?$format_validation_base@_WV?$stream_output_adapter@_W@__crt_stdio_output@@@2@@__crt_stdio_output@@AEAAXI@Z 0000000140033af8 f i libucrt:output.obj
 0001:00032afc       ?set_flag@?$output_processor@_WV?$stream_output_adapter@_W@__crt_stdio_output@@V?$positional_parameter_base@_WV?$stream_output_adapter@_W@__crt_stdio_output@@@2@@__crt_stdio_output@@AEAAXI@Z 0000000140033afc f i libucrt:output.obj
 0001:00032b00       ?set_flag@?$output_processor@_WV?$stream_output_adapter@_W@__crt_stdio_output@@V?$standard_base@_WV?$stream_output_adapter@_W@__crt_stdio_output@@@2@@__crt_stdio_output@@AEAAXI@Z 0000000140033b00 f i libucrt:output.obj
 0001:00032b04       ?set_flag@?$output_processor@_WV?$string_output_adapter@_W@__crt_stdio_output@@V?$format_validation_base@_WV?$string_output_adapter@_W@__crt_stdio_output@@@2@@__crt_stdio_output@@AEAAXI@Z 0000000140033b04 f i libucrt:output.obj
 0001:00032b08       ?set_flag@?$output_processor@_WV?$string_output_adapter@_W@__crt_stdio_output@@V?$positional_parameter_base@_WV?$string_output_adapter@_W@__crt_stdio_output@@@2@@__crt_stdio_output@@AEAAXI@Z 0000000140033b08 f i libucrt:output.obj
 0001:00032b0c       ?set_flag@?$output_processor@_WV?$string_output_adapter@_W@__crt_stdio_output@@V?$standard_base@_WV?$string_output_adapter@_W@__crt_stdio_output@@@2@@__crt_stdio_output@@AEAAXI@Z 0000000140033b0c f i libucrt:output.obj
 0001:00032b10       ?should_format@?$positional_parameter_base@DV?$stream_output_adapter@D@__crt_stdio_output@@@__crt_stdio_output@@IEAA_NXZ 0000000140033b10 f i libucrt:output.obj
 0001:00032b30       ?should_format@?$positional_parameter_base@DV?$string_output_adapter@D@__crt_stdio_output@@@__crt_stdio_output@@IEAA_NXZ 0000000140033b30 f i libucrt:output.obj
 0001:00032b50       ?should_format@?$positional_parameter_base@_WV?$stream_output_adapter@_W@__crt_stdio_output@@@__crt_stdio_output@@IEAA_NXZ 0000000140033b50 f i libucrt:output.obj
 0001:00032b70       ?should_format@?$positional_parameter_base@_WV?$string_output_adapter@_W@__crt_stdio_output@@@__crt_stdio_output@@IEAA_NXZ 0000000140033b70 f i libucrt:output.obj
 0001:00032b90       ?should_format@?$standard_base@DV?$stream_output_adapter@D@__crt_stdio_output@@@__crt_stdio_output@@IEAA_NXZ 0000000140033b90 f i libucrt:output.obj
 0001:00032b94       ?should_format@?$standard_base@DV?$string_output_adapter@D@__crt_stdio_output@@@__crt_stdio_output@@IEAA_NXZ 0000000140033b94 f i libucrt:output.obj
 0001:00032b98       ?should_format@?$standard_base@_WV?$stream_output_adapter@_W@__crt_stdio_output@@@__crt_stdio_output@@IEAA_NXZ 0000000140033b98 f i libucrt:output.obj
 0001:00032b9c       ?should_format@?$standard_base@_WV?$string_output_adapter@_W@__crt_stdio_output@@@__crt_stdio_output@@IEAA_NXZ 0000000140033b9c f i libucrt:output.obj
 0001:00032ba0       ?should_skip_normal_state_processing@?$positional_parameter_base@DV?$stream_output_adapter@D@__crt_stdio_output@@@__crt_stdio_output@@IEAA_NXZ 0000000140033ba0 f i libucrt:output.obj
 0001:00032bd4       ?should_skip_normal_state_processing@?$positional_parameter_base@DV?$string_output_adapter@D@__crt_stdio_output@@@__crt_stdio_output@@IEAA_NXZ 0000000140033bd4 f i libucrt:output.obj
 0001:00032c08       ?should_skip_normal_state_processing@?$positional_parameter_base@_WV?$stream_output_adapter@_W@__crt_stdio_output@@@__crt_stdio_output@@IEAA_NXZ 0000000140033c08 f i libucrt:output.obj
 0001:00032c3c       ?should_skip_normal_state_processing@?$positional_parameter_base@_WV?$string_output_adapter@_W@__crt_stdio_output@@@__crt_stdio_output@@IEAA_NXZ 0000000140033c3c f i libucrt:output.obj
 0001:00032c70       ?should_skip_normal_state_processing@?$standard_base@DV?$stream_output_adapter@D@__crt_stdio_output@@@__crt_stdio_output@@IEAA_NXZ 0000000140033c70 f i libucrt:output.obj
 0001:00032c74       ?should_skip_normal_state_processing@?$standard_base@DV?$string_output_adapter@D@__crt_stdio_output@@@__crt_stdio_output@@IEAA_NXZ 0000000140033c74 f i libucrt:output.obj
 0001:00032c78       ?should_skip_normal_state_processing@?$standard_base@_WV?$stream_output_adapter@_W@__crt_stdio_output@@@__crt_stdio_output@@IEAA_NXZ 0000000140033c78 f i libucrt:output.obj
 0001:00032c7c       ?should_skip_normal_state_processing@?$standard_base@_WV?$string_output_adapter@_W@__crt_stdio_output@@@__crt_stdio_output@@IEAA_NXZ 0000000140033c7c f i libucrt:output.obj
 0001:00032c80       ?should_skip_type_state_output@?$positional_parameter_base@DV?$stream_output_adapter@D@__crt_stdio_output@@@__crt_stdio_output@@IEBA_NXZ 0000000140033c80 f i libucrt:output.obj
 0001:00032ca0       ?should_skip_type_state_output@?$positional_parameter_base@DV?$string_output_adapter@D@__crt_stdio_output@@@__crt_stdio_output@@IEBA_NXZ 0000000140033ca0 f i libucrt:output.obj
 0001:00032cc0       ?should_skip_type_state_output@?$positional_parameter_base@_WV?$stream_output_adapter@_W@__crt_stdio_output@@@__crt_stdio_output@@IEBA_NXZ 0000000140033cc0 f i libucrt:output.obj
 0001:00032ce0       ?should_skip_type_state_output@?$positional_parameter_base@_WV?$string_output_adapter@_W@__crt_stdio_output@@@__crt_stdio_output@@IEBA_NXZ 0000000140033ce0 f i libucrt:output.obj
 0001:00032d00       ?should_skip_type_state_output@?$standard_base@DV?$stream_output_adapter@D@__crt_stdio_output@@@__crt_stdio_output@@IEBA_NXZ 0000000140033d00 f i libucrt:output.obj
 0001:00032d04       ?should_skip_type_state_output@?$standard_base@DV?$string_output_adapter@D@__crt_stdio_output@@@__crt_stdio_output@@IEBA_NXZ 0000000140033d04 f i libucrt:output.obj
 0001:00032d08       ?should_skip_type_state_output@?$standard_base@_WV?$stream_output_adapter@_W@__crt_stdio_output@@@__crt_stdio_output@@IEBA_NXZ 0000000140033d08 f i libucrt:output.obj
 0001:00032d0c       ?should_skip_type_state_output@?$standard_base@_WV?$string_output_adapter@_W@__crt_stdio_output@@@__crt_stdio_output@@IEBA_NXZ 0000000140033d0c f i libucrt:output.obj
 0001:00032d10       ?state_case_dot@?$output_processor@DV?$stream_output_adapter@D@__crt_stdio_output@@V?$format_validation_base@DV?$stream_output_adapter@D@__crt_stdio_output@@@2@@__crt_stdio_output@@AEAA_NXZ 0000000140033d10 f i libucrt:output.obj
 0001:00032d18       ?state_case_dot@?$output_processor@DV?$stream_output_adapter@D@__crt_stdio_output@@V?$positional_parameter_base@DV?$stream_output_adapter@D@__crt_stdio_output@@@2@@__crt_stdio_output@@AEAA_NXZ 0000000140033d18 f i libucrt:output.obj
 0001:00032d20       ?state_case_dot@?$output_processor@DV?$stream_output_adapter@D@__crt_stdio_output@@V?$standard_base@DV?$stream_output_adapter@D@__crt_stdio_output@@@2@@__crt_stdio_output@@AEAA_NXZ 0000000140033d20 f i libucrt:output.obj
 0001:00032d28       ?state_case_dot@?$output_processor@DV?$string_output_adapter@D@__crt_stdio_output@@V?$format_validation_base@DV?$string_output_adapter@D@__crt_stdio_output@@@2@@__crt_stdio_output@@AEAA_NXZ 0000000140033d28 f i libucrt:output.obj
 0001:00032d30       ?state_case_dot@?$output_processor@DV?$string_output_adapter@D@__crt_stdio_output@@V?$positional_parameter_base@DV?$string_output_adapter@D@__crt_stdio_output@@@2@@__crt_stdio_output@@AEAA_NXZ 0000000140033d30 f i libucrt:output.obj
 0001:00032d38       ?state_case_dot@?$output_processor@DV?$string_output_adapter@D@__crt_stdio_output@@V?$standard_base@DV?$string_output_adapter@D@__crt_stdio_output@@@2@@__crt_stdio_output@@AEAA_NXZ 0000000140033d38 f i libucrt:output.obj
 0001:00032d40       ?state_case_dot@?$output_processor@_WV?$stream_output_adapter@_W@__crt_stdio_output@@V?$format_validation_base@_WV?$stream_output_adapter@_W@__crt_stdio_output@@@2@@__crt_stdio_output@@AEAA_NXZ 0000000140033d40 f i libucrt:output.obj
 0001:00032d48       ?state_case_dot@?$output_processor@_WV?$stream_output_adapter@_W@__crt_stdio_output@@V?$positional_parameter_base@_WV?$stream_output_adapter@_W@__crt_stdio_output@@@2@@__crt_stdio_output@@AEAA_NXZ 0000000140033d48 f i libucrt:output.obj
 0001:00032d50       ?state_case_dot@?$output_processor@_WV?$stream_output_adapter@_W@__crt_stdio_output@@V?$standard_base@_WV?$stream_output_adapter@_W@__crt_stdio_output@@@2@@__crt_stdio_output@@AEAA_NXZ 0000000140033d50 f i libucrt:output.obj
 0001:00032d58       ?state_case_dot@?$output_processor@_WV?$string_output_adapter@_W@__crt_stdio_output@@V?$format_validation_base@_WV?$string_output_adapter@_W@__crt_stdio_output@@@2@@__crt_stdio_output@@AEAA_NXZ 0000000140033d58 f i libucrt:output.obj
 0001:00032d60       ?state_case_dot@?$output_processor@_WV?$string_output_adapter@_W@__crt_stdio_output@@V?$positional_parameter_base@_WV?$string_output_adapter@_W@__crt_stdio_output@@@2@@__crt_stdio_output@@AEAA_NXZ 0000000140033d60 f i libucrt:output.obj
 0001:00032d68       ?state_case_dot@?$output_processor@_WV?$string_output_adapter@_W@__crt_stdio_output@@V?$standard_base@_WV?$string_output_adapter@_W@__crt_stdio_output@@@2@@__crt_stdio_output@@AEAA_NXZ 0000000140033d68 f i libucrt:output.obj
 0001:00032d70       ?state_case_flag@?$output_processor@DV?$stream_output_adapter@D@__crt_stdio_output@@V?$format_validation_base@DV?$stream_output_adapter@D@__crt_stdio_output@@@2@@__crt_stdio_output@@AEAA_NXZ 0000000140033d70 f i libucrt:output.obj
 0001:00032db4       ?state_case_flag@?$output_processor@DV?$stream_output_adapter@D@__crt_stdio_output@@V?$positional_parameter_base@DV?$stream_output_adapter@D@__crt_stdio_output@@@2@@__crt_stdio_output@@AEAA_NXZ 0000000140033db4 f i libucrt:output.obj
 0001:00032df8       ?state_case_flag@?$output_processor@DV?$stream_output_adapter@D@__crt_stdio_output@@V?$standard_base@DV?$stream_output_adapter@D@__crt_stdio_output@@@2@@__crt_stdio_output@@AEAA_NXZ 0000000140033df8 f i libucrt:output.obj
 0001:00032e3c       ?state_case_flag@?$output_processor@DV?$string_output_adapter@D@__crt_stdio_output@@V?$format_validation_base@DV?$string_output_adapter@D@__crt_stdio_output@@@2@@__crt_stdio_output@@AEAA_NXZ 0000000140033e3c f i libucrt:output.obj
 0001:00032e80       ?state_case_flag@?$output_processor@DV?$string_output_adapter@D@__crt_stdio_output@@V?$positional_parameter_base@DV?$string_output_adapter@D@__crt_stdio_output@@@2@@__crt_stdio_output@@AEAA_NXZ 0000000140033e80 f i libucrt:output.obj
 0001:00032ec4       ?state_case_flag@?$output_processor@DV?$string_output_adapter@D@__crt_stdio_output@@V?$standard_base@DV?$string_output_adapter@D@__crt_stdio_output@@@2@@__crt_stdio_output@@AEAA_NXZ 0000000140033ec4 f i libucrt:output.obj
 0001:00032f08       ?state_case_flag@?$output_processor@_WV?$stream_output_adapter@_W@__crt_stdio_output@@V?$format_validation_base@_WV?$stream_output_adapter@_W@__crt_stdio_output@@@2@@__crt_stdio_output@@AEAA_NXZ 0000000140033f08 f i libucrt:output.obj
 0001:00032f60       ?state_case_flag@?$output_processor@_WV?$stream_output_adapter@_W@__crt_stdio_output@@V?$positional_parameter_base@_WV?$stream_output_adapter@_W@__crt_stdio_output@@@2@@__crt_stdio_output@@AEAA_NXZ 0000000140033f60 f i libucrt:output.obj
 0001:00032fb8       ?state_case_flag@?$output_processor@_WV?$stream_output_adapter@_W@__crt_stdio_output@@V?$standard_base@_WV?$stream_output_adapter@_W@__crt_stdio_output@@@2@@__crt_stdio_output@@AEAA_NXZ 0000000140033fb8 f i libucrt:output.obj
 0001:00033010       ?state_case_flag@?$output_processor@_WV?$string_output_adapter@_W@__crt_stdio_output@@V?$format_validation_base@_WV?$string_output_adapter@_W@__crt_stdio_output@@@2@@__crt_stdio_output@@AEAA_NXZ 0000000140034010 f i libucrt:output.obj
 0001:00033068       ?state_case_flag@?$output_processor@_WV?$string_output_adapter@_W@__crt_stdio_output@@V?$positional_parameter_base@_WV?$string_output_adapter@_W@__crt_stdio_output@@@2@@__crt_stdio_output@@AEAA_NXZ 0000000140034068 f i libucrt:output.obj
 0001:000330c0       ?state_case_flag@?$output_processor@_WV?$string_output_adapter@_W@__crt_stdio_output@@V?$standard_base@_WV?$string_output_adapter@_W@__crt_stdio_output@@@2@@__crt_stdio_output@@AEAA_NXZ 00000001400340c0 f i libucrt:output.obj
 0001:00033118       ?state_case_normal@?$output_processor@DV?$stream_output_adapter@D@__crt_stdio_output@@V?$format_validation_base@DV?$stream_output_adapter@D@__crt_stdio_output@@@2@@__crt_stdio_output@@AEAA_NXZ 0000000140034118 f i libucrt:output.obj
 0001:000331a4       ?state_case_normal@?$output_processor@DV?$stream_output_adapter@D@__crt_stdio_output@@V?$positional_parameter_base@DV?$stream_output_adapter@D@__crt_stdio_output@@@2@@__crt_stdio_output@@AEAA_NXZ 00000001400341a4 f i libucrt:output.obj
 0001:00033260       ?state_case_normal@?$output_processor@DV?$stream_output_adapter@D@__crt_stdio_output@@V?$standard_base@DV?$stream_output_adapter@D@__crt_stdio_output@@@2@@__crt_stdio_output@@AEAA_NXZ 0000000140034260 f i libucrt:output.obj
 0001:000332ec       ?state_case_normal@?$output_processor@DV?$string_output_adapter@D@__crt_stdio_output@@V?$format_validation_base@DV?$string_output_adapter@D@__crt_stdio_output@@@2@@__crt_stdio_output@@AEAA_NXZ 00000001400342ec f i libucrt:output.obj
 0001:00033380       ?state_case_normal@?$output_processor@DV?$string_output_adapter@D@__crt_stdio_output@@V?$positional_parameter_base@DV?$string_output_adapter@D@__crt_stdio_output@@@2@@__crt_stdio_output@@AEAA_NXZ 0000000140034380 f i libucrt:output.obj
 0001:00033440       ?state_case_normal@?$output_processor@DV?$string_output_adapter@D@__crt_stdio_output@@V?$standard_base@DV?$string_output_adapter@D@__crt_stdio_output@@@2@@__crt_stdio_output@@AEAA_NXZ 0000000140034440 f i libucrt:output.obj
 0001:000334d4       ?state_case_normal@?$output_processor@_WV?$stream_output_adapter@_W@__crt_stdio_output@@V?$format_validation_base@_WV?$stream_output_adapter@_W@__crt_stdio_output@@@2@@__crt_stdio_output@@AEAA_NXZ 00000001400344d4 f i libucrt:output.obj
 0001:00033544       ?state_case_normal@?$output_processor@_WV?$stream_output_adapter@_W@__crt_stdio_output@@V?$positional_parameter_base@_WV?$stream_output_adapter@_W@__crt_stdio_output@@@2@@__crt_stdio_output@@AEAA_NXZ 0000000140034544 f i libucrt:output.obj
 0001:000335e0       ?state_case_normal@?$output_processor@_WV?$stream_output_adapter@_W@__crt_stdio_output@@V?$standard_base@_WV?$stream_output_adapter@_W@__crt_stdio_output@@@2@@__crt_stdio_output@@AEAA_NXZ 00000001400345e0 f i libucrt:output.obj
 0001:00033650       ?state_case_normal@?$output_processor@_WV?$string_output_adapter@_W@__crt_stdio_output@@V?$format_validation_base@_WV?$string_output_adapter@_W@__crt_stdio_output@@@2@@__crt_stdio_output@@AEAA_NXZ 0000000140034650 f i libucrt:output.obj
 0001:000336bc       ?state_case_normal@?$output_processor@_WV?$string_output_adapter@_W@__crt_stdio_output@@V?$positional_parameter_base@_WV?$string_output_adapter@_W@__crt_stdio_output@@@2@@__crt_stdio_output@@AEAA_NXZ 00000001400346bc f i libucrt:output.obj
 0001:00033754       ?state_case_normal@?$output_processor@_WV?$string_output_adapter@_W@__crt_stdio_output@@V?$standard_base@_WV?$string_output_adapter@_W@__crt_stdio_output@@@2@@__crt_stdio_output@@AEAA_NXZ 0000000140034754 f i libucrt:output.obj
 0001:000337c0       ?state_case_normal_common@?$output_processor@DV?$stream_output_adapter@D@__crt_stdio_output@@V?$format_validation_base@DV?$stream_output_adapter@D@__crt_stdio_output@@@2@@__crt_stdio_output@@AEAA_NXZ 00000001400347c0 f i libucrt:output.obj
 0001:00033834       ?state_case_normal_common@?$output_processor@DV?$stream_output_adapter@D@__crt_stdio_output@@V?$positional_parameter_base@DV?$stream_output_adapter@D@__crt_stdio_output@@@2@@__crt_stdio_output@@AEAA_NXZ 0000000140034834 f i libucrt:output.obj
 0001:000338a8       ?state_case_normal_common@?$output_processor@DV?$stream_output_adapter@D@__crt_stdio_output@@V?$standard_base@DV?$stream_output_adapter@D@__crt_stdio_output@@@2@@__crt_stdio_output@@AEAA_NXZ 00000001400348a8 f i libucrt:output.obj
 0001:0003391c       ?state_case_normal_common@?$output_processor@DV?$string_output_adapter@D@__crt_stdio_output@@V?$format_validation_base@DV?$string_output_adapter@D@__crt_stdio_output@@@2@@__crt_stdio_output@@AEAA_NXZ 000000014003491c f i libucrt:output.obj
 0001:00033994       ?state_case_normal_common@?$output_processor@DV?$string_output_adapter@D@__crt_stdio_output@@V?$positional_parameter_base@DV?$string_output_adapter@D@__crt_stdio_output@@@2@@__crt_stdio_output@@AEAA_NXZ 0000000140034994 f i libucrt:output.obj
 0001:00033a0c       ?state_case_normal_common@?$output_processor@DV?$string_output_adapter@D@__crt_stdio_output@@V?$standard_base@DV?$string_output_adapter@D@__crt_stdio_output@@@2@@__crt_stdio_output@@AEAA_NXZ 0000000140034a0c f i libucrt:output.obj
 0001:00033a84       ?state_case_normal_common@?$output_processor@_WV?$stream_output_adapter@_W@__crt_stdio_output@@V?$format_validation_base@_WV?$stream_output_adapter@_W@__crt_stdio_output@@@2@@__crt_stdio_output@@AEAA_NXZ 0000000140034a84 f i libucrt:output.obj
 0001:00033af4       ?state_case_normal_common@?$output_processor@_WV?$stream_output_adapter@_W@__crt_stdio_output@@V?$positional_parameter_base@_WV?$stream_output_adapter@_W@__crt_stdio_output@@@2@@__crt_stdio_output@@AEAA_NXZ 0000000140034af4 f i libucrt:output.obj
 0001:00033b64       ?state_case_normal_common@?$output_processor@_WV?$stream_output_adapter@_W@__crt_stdio_output@@V?$standard_base@_WV?$stream_output_adapter@_W@__crt_stdio_output@@@2@@__crt_stdio_output@@AEAA_NXZ 0000000140034b64 f i libucrt:output.obj
 0001:00033bd4       ?state_case_normal_common@?$output_processor@_WV?$string_output_adapter@_W@__crt_stdio_output@@V?$format_validation_base@_WV?$string_output_adapter@_W@__crt_stdio_output@@@2@@__crt_stdio_output@@AEAA_NXZ 0000000140034bd4 f i libucrt:output.obj
 0001:00033c40       ?state_case_normal_common@?$output_processor@_WV?$string_output_adapter@_W@__crt_stdio_output@@V?$positional_parameter_base@_WV?$string_output_adapter@_W@__crt_stdio_output@@@2@@__crt_stdio_output@@AEAA_NXZ 0000000140034c40 f i libucrt:output.obj
 0001:00033cac       ?state_case_normal_common@?$output_processor@_WV?$string_output_adapter@_W@__crt_stdio_output@@V?$standard_base@_WV?$string_output_adapter@_W@__crt_stdio_output@@@2@@__crt_stdio_output@@AEAA_NXZ 0000000140034cac f i libucrt:output.obj
 0001:00033d18       ?state_case_normal_tchar@?$output_processor@DV?$stream_output_adapter@D@__crt_stdio_output@@V?$format_validation_base@DV?$stream_output_adapter@D@__crt_stdio_output@@@2@@__crt_stdio_output@@AEAA_ND@Z 0000000140034d18 f i libucrt:output.obj
 0001:00033de4       ?state_case_normal_tchar@?$output_processor@DV?$stream_output_adapter@D@__crt_stdio_output@@V?$positional_parameter_base@DV?$stream_output_adapter@D@__crt_stdio_output@@@2@@__crt_stdio_output@@AEAA_ND@Z 0000000140034de4 f i libucrt:output.obj
 0001:00033eb0       ?state_case_normal_tchar@?$output_processor@DV?$stream_output_adapter@D@__crt_stdio_output@@V?$standard_base@DV?$stream_output_adapter@D@__crt_stdio_output@@@2@@__crt_stdio_output@@AEAA_ND@Z 0000000140034eb0 f i libucrt:output.obj
 0001:00033f7c       ?state_case_normal_tchar@?$output_processor@DV?$string_output_adapter@D@__crt_stdio_output@@V?$format_validation_base@DV?$string_output_adapter@D@__crt_stdio_output@@@2@@__crt_stdio_output@@AEAA_ND@Z 0000000140034f7c f i libucrt:output.obj
 0001:0003404c       ?state_case_normal_tchar@?$output_processor@DV?$string_output_adapter@D@__crt_stdio_output@@V?$positional_parameter_base@DV?$string_output_adapter@D@__crt_stdio_output@@@2@@__crt_stdio_output@@AEAA_ND@Z 000000014003504c f i libucrt:output.obj
 0001:0003411c       ?state_case_normal_tchar@?$output_processor@DV?$string_output_adapter@D@__crt_stdio_output@@V?$standard_base@DV?$string_output_adapter@D@__crt_stdio_output@@@2@@__crt_stdio_output@@AEAA_ND@Z 000000014003511c f i libucrt:output.obj
 0001:000341ec       ?state_case_normal_tchar@?$output_processor@_WV?$stream_output_adapter@_W@__crt_stdio_output@@V?$format_validation_base@_WV?$stream_output_adapter@_W@__crt_stdio_output@@@2@@__crt_stdio_output@@AEAA_N_W@Z 00000001400351ec f i libucrt:output.obj
 0001:000341f4       ?state_case_normal_tchar@?$output_processor@_WV?$stream_output_adapter@_W@__crt_stdio_output@@V?$positional_parameter_base@_WV?$stream_output_adapter@_W@__crt_stdio_output@@@2@@__crt_stdio_output@@AEAA_N_W@Z 00000001400351f4 f i libucrt:output.obj
 0001:000341fc       ?state_case_normal_tchar@?$output_processor@_WV?$stream_output_adapter@_W@__crt_stdio_output@@V?$standard_base@_WV?$stream_output_adapter@_W@__crt_stdio_output@@@2@@__crt_stdio_output@@AEAA_N_W@Z 00000001400351fc f i libucrt:output.obj
 0001:00034204       ?state_case_normal_tchar@?$output_processor@_WV?$string_output_adapter@_W@__crt_stdio_output@@V?$format_validation_base@_WV?$string_output_adapter@_W@__crt_stdio_output@@@2@@__crt_stdio_output@@AEAA_N_W@Z 0000000140035204 f i libucrt:output.obj
 0001:0003420c       ?state_case_normal_tchar@?$output_processor@_WV?$string_output_adapter@_W@__crt_stdio_output@@V?$positional_parameter_base@_WV?$string_output_adapter@_W@__crt_stdio_output@@@2@@__crt_stdio_output@@AEAA_N_W@Z 000000014003520c f i libucrt:output.obj
 0001:00034214       ?state_case_normal_tchar@?$output_processor@_WV?$string_output_adapter@_W@__crt_stdio_output@@V?$standard_base@_WV?$string_output_adapter@_W@__crt_stdio_output@@@2@@__crt_stdio_output@@AEAA_N_W@Z 0000000140035214 f i libucrt:output.obj
 0001:0003421c       ?state_case_percent@?$output_processor@DV?$stream_output_adapter@D@__crt_stdio_output@@V?$format_validation_base@DV?$stream_output_adapter@D@__crt_stdio_output@@@2@@__crt_stdio_output@@AEAA_NXZ 000000014003521c f i libucrt:output.obj
 0001:00034238       ?state_case_percent@?$output_processor@DV?$stream_output_adapter@D@__crt_stdio_output@@V?$positional_parameter_base@DV?$stream_output_adapter@D@__crt_stdio_output@@@2@@__crt_stdio_output@@AEAA_NXZ 0000000140035238 f i libucrt:output.obj
 0001:00034254       ?state_case_percent@?$output_processor@DV?$stream_output_adapter@D@__crt_stdio_output@@V?$standard_base@DV?$stream_output_adapter@D@__crt_stdio_output@@@2@@__crt_stdio_output@@AEAA_NXZ 0000000140035254 f i libucrt:output.obj
 0001:00034270       ?state_case_percent@?$output_processor@DV?$string_output_adapter@D@__crt_stdio_output@@V?$format_validation_base@DV?$string_output_adapter@D@__crt_stdio_output@@@2@@__crt_stdio_output@@AEAA_NXZ 0000000140035270 f i libucrt:output.obj
 0001:0003428c       ?state_case_percent@?$output_processor@DV?$string_output_adapter@D@__crt_stdio_output@@V?$positional_parameter_base@DV?$string_output_adapter@D@__crt_stdio_output@@@2@@__crt_stdio_output@@AEAA_NXZ 000000014003528c f i libucrt:output.obj
 0001:000342a8       ?state_case_percent@?$output_processor@DV?$string_output_adapter@D@__crt_stdio_output@@V?$standard_base@DV?$string_output_adapter@D@__crt_stdio_output@@@2@@__crt_stdio_output@@AEAA_NXZ 00000001400352a8 f i libucrt:output.obj
 0001:000342c4       ?state_case_percent@?$output_processor@_WV?$stream_output_adapter@_W@__crt_stdio_output@@V?$format_validation_base@_WV?$stream_output_adapter@_W@__crt_stdio_output@@@2@@__crt_stdio_output@@AEAA_NXZ 00000001400352c4 f i libucrt:output.obj
 0001:000342e0       ?state_case_percent@?$output_processor@_WV?$stream_output_adapter@_W@__crt_stdio_output@@V?$positional_parameter_base@_WV?$stream_output_adapter@_W@__crt_stdio_output@@@2@@__crt_stdio_output@@AEAA_NXZ 00000001400352e0 f i libucrt:output.obj
 0001:000342fc       ?state_case_percent@?$output_processor@_WV?$stream_output_adapter@_W@__crt_stdio_output@@V?$standard_base@_WV?$stream_output_adapter@_W@__crt_stdio_output@@@2@@__crt_stdio_output@@AEAA_NXZ 00000001400352fc f i libucrt:output.obj
 0001:00034318       ?state_case_percent@?$output_processor@_WV?$string_output_adapter@_W@__crt_stdio_output@@V?$format_validation_base@_WV?$string_output_adapter@_W@__crt_stdio_output@@@2@@__crt_stdio_output@@AEAA_NXZ 0000000140035318 f i libucrt:output.obj
 0001:00034334       ?state_case_percent@?$output_processor@_WV?$string_output_adapter@_W@__crt_stdio_output@@V?$positional_parameter_base@_WV?$string_output_adapter@_W@__crt_stdio_output@@@2@@__crt_stdio_output@@AEAA_NXZ 0000000140035334 f i libucrt:output.obj
 0001:00034350       ?state_case_percent@?$output_processor@_WV?$string_output_adapter@_W@__crt_stdio_output@@V?$standard_base@_WV?$string_output_adapter@_W@__crt_stdio_output@@@2@@__crt_stdio_output@@AEAA_NXZ 0000000140035350 f i libucrt:output.obj
 0001:0003436c       ?state_case_precision@?$output_processor@DV?$stream_output_adapter@D@__crt_stdio_output@@V?$format_validation_base@DV?$stream_output_adapter@D@__crt_stdio_output@@@2@@__crt_stdio_output@@AEAA_NXZ 000000014003536c f i libucrt:output.obj
 0001:0003439c       ?state_case_precision@?$output_processor@DV?$stream_output_adapter@D@__crt_stdio_output@@V?$positional_parameter_base@DV?$stream_output_adapter@D@__crt_stdio_output@@@2@@__crt_stdio_output@@AEAA_NXZ 000000014003539c f i libucrt:output.obj
 0001:000343f8       ?state_case_precision@?$output_processor@DV?$stream_output_adapter@D@__crt_stdio_output@@V?$standard_base@DV?$stream_output_adapter@D@__crt_stdio_output@@@2@@__crt_stdio_output@@AEAA_NXZ 00000001400353f8 f i libucrt:output.obj
 0001:00034428       ?state_case_precision@?$output_processor@DV?$string_output_adapter@D@__crt_stdio_output@@V?$format_validation_base@DV?$string_output_adapter@D@__crt_stdio_output@@@2@@__crt_stdio_output@@AEAA_NXZ 0000000140035428 f i libucrt:output.obj
 0001:00034458       ?state_case_precision@?$output_processor@DV?$string_output_adapter@D@__crt_stdio_output@@V?$positional_parameter_base@DV?$string_output_adapter@D@__crt_stdio_output@@@2@@__crt_stdio_output@@AEAA_NXZ 0000000140035458 f i libucrt:output.obj
 0001:000344b4       ?state_case_precision@?$output_processor@DV?$string_output_adapter@D@__crt_stdio_output@@V?$standard_base@DV?$string_output_adapter@D@__crt_stdio_output@@@2@@__crt_stdio_output@@AEAA_NXZ 00000001400354b4 f i libucrt:output.obj
 0001:000344e4       ?state_case_precision@?$output_processor@_WV?$stream_output_adapter@_W@__crt_stdio_output@@V?$format_validation_base@_WV?$stream_output_adapter@_W@__crt_stdio_output@@@2@@__crt_stdio_output@@AEAA_NXZ 00000001400354e4 f i libucrt:output.obj
 0001:00034518       ?state_case_precision@?$output_processor@_WV?$stream_output_adapter@_W@__crt_stdio_output@@V?$positional_parameter_base@_WV?$stream_output_adapter@_W@__crt_stdio_output@@@2@@__crt_stdio_output@@AEAA_NXZ 0000000140035518 f i libucrt:output.obj
 0001:00034578       ?state_case_precision@?$output_processor@_WV?$stream_output_adapter@_W@__crt_stdio_output@@V?$standard_base@_WV?$stream_output_adapter@_W@__crt_stdio_output@@@2@@__crt_stdio_output@@AEAA_NXZ 0000000140035578 f i libucrt:output.obj
 0001:000345ac       ?state_case_precision@?$output_processor@_WV?$string_output_adapter@_W@__crt_stdio_output@@V?$format_validation_base@_WV?$string_output_adapter@_W@__crt_stdio_output@@@2@@__crt_stdio_output@@AEAA_NXZ 00000001400355ac f i libucrt:output.obj
 0001:000345e0       ?state_case_precision@?$output_processor@_WV?$string_output_adapter@_W@__crt_stdio_output@@V?$positional_parameter_base@_WV?$string_output_adapter@_W@__crt_stdio_output@@@2@@__crt_stdio_output@@AEAA_NXZ 00000001400355e0 f i libucrt:output.obj
 0001:00034640       ?state_case_precision@?$output_processor@_WV?$string_output_adapter@_W@__crt_stdio_output@@V?$standard_base@_WV?$string_output_adapter@_W@__crt_stdio_output@@@2@@__crt_stdio_output@@AEAA_NXZ 0000000140035640 f i libucrt:output.obj
 0001:00034674       ?state_case_size@?$output_processor@DV?$stream_output_adapter@D@__crt_stdio_output@@V?$format_validation_base@DV?$stream_output_adapter@D@__crt_stdio_output@@@2@@__crt_stdio_output@@AEAA_NXZ 0000000140035674 f i libucrt:output.obj
 0001:0003483c       ?state_case_size@?$output_processor@DV?$stream_output_adapter@D@__crt_stdio_output@@V?$positional_parameter_base@DV?$stream_output_adapter@D@__crt_stdio_output@@@2@@__crt_stdio_output@@AEAA_NXZ 000000014003583c f i libucrt:output.obj
 0001:00034a04       ?state_case_size@?$output_processor@DV?$stream_output_adapter@D@__crt_stdio_output@@V?$standard_base@DV?$stream_output_adapter@D@__crt_stdio_output@@@2@@__crt_stdio_output@@AEAA_NXZ 0000000140035a04 f i libucrt:output.obj
 0001:00034bcc       ?state_case_size@?$output_processor@DV?$string_output_adapter@D@__crt_stdio_output@@V?$format_validation_base@DV?$string_output_adapter@D@__crt_stdio_output@@@2@@__crt_stdio_output@@AEAA_NXZ 0000000140035bcc f i libucrt:output.obj
 0001:00034d94       ?state_case_size@?$output_processor@DV?$string_output_adapter@D@__crt_stdio_output@@V?$positional_parameter_base@DV?$string_output_adapter@D@__crt_stdio_output@@@2@@__crt_stdio_output@@AEAA_NXZ 0000000140035d94 f i libucrt:output.obj
 0001:00034f5c       ?state_case_size@?$output_processor@DV?$string_output_adapter@D@__crt_stdio_output@@V?$standard_base@DV?$string_output_adapter@D@__crt_stdio_output@@@2@@__crt_stdio_output@@AEAA_NXZ 0000000140035f5c f i libucrt:output.obj
 0001:00035124       ?state_case_size@?$output_processor@_WV?$stream_output_adapter@_W@__crt_stdio_output@@V?$format_validation_base@_WV?$stream_output_adapter@_W@__crt_stdio_output@@@2@@__crt_stdio_output@@AEAA_NXZ 0000000140036124 f i libucrt:output.obj
 0001:0003531c       ?state_case_size@?$output_processor@_WV?$stream_output_adapter@_W@__crt_stdio_output@@V?$positional_parameter_base@_WV?$stream_output_adapter@_W@__crt_stdio_output@@@2@@__crt_stdio_output@@AEAA_NXZ 000000014003631c f i libucrt:output.obj
 0001:00035514       ?state_case_size@?$output_processor@_WV?$stream_output_adapter@_W@__crt_stdio_output@@V?$standard_base@_WV?$stream_output_adapter@_W@__crt_stdio_output@@@2@@__crt_stdio_output@@AEAA_NXZ 0000000140036514 f i libucrt:output.obj
 0001:0003570c       ?state_case_size@?$output_processor@_WV?$string_output_adapter@_W@__crt_stdio_output@@V?$format_validation_base@_WV?$string_output_adapter@_W@__crt_stdio_output@@@2@@__crt_stdio_output@@AEAA_NXZ 000000014003670c f i libucrt:output.obj
 0001:00035904       ?state_case_size@?$output_processor@_WV?$string_output_adapter@_W@__crt_stdio_output@@V?$positional_parameter_base@_WV?$string_output_adapter@_W@__crt_stdio_output@@@2@@__crt_stdio_output@@AEAA_NXZ 0000000140036904 f i libucrt:output.obj
 0001:00035afc       ?state_case_size@?$output_processor@_WV?$string_output_adapter@_W@__crt_stdio_output@@V?$standard_base@_WV?$string_output_adapter@_W@__crt_stdio_output@@@2@@__crt_stdio_output@@AEAA_NXZ 0000000140036afc f i libucrt:output.obj
 0001:00035cf4       ?state_case_type@?$output_processor@DV?$stream_output_adapter@D@__crt_stdio_output@@V?$format_validation_base@DV?$stream_output_adapter@D@__crt_stdio_output@@@2@@__crt_stdio_output@@AEAA_NXZ 0000000140036cf4 f i libucrt:output.obj
 0001:0003601c       ?state_case_type@?$output_processor@DV?$stream_output_adapter@D@__crt_stdio_output@@V?$positional_parameter_base@DV?$stream_output_adapter@D@__crt_stdio_output@@@2@@__crt_stdio_output@@AEAA_NXZ 000000014003701c f i libucrt:output.obj
 0001:0003635c       ?state_case_type@?$output_processor@DV?$stream_output_adapter@D@__crt_stdio_output@@V?$standard_base@DV?$stream_output_adapter@D@__crt_stdio_output@@@2@@__crt_stdio_output@@AEAA_NXZ 000000014003735c f i libucrt:output.obj
 0001:00036684       ?state_case_type@?$output_processor@DV?$string_output_adapter@D@__crt_stdio_output@@V?$format_validation_base@DV?$string_output_adapter@D@__crt_stdio_output@@@2@@__crt_stdio_output@@AEAA_NXZ 0000000140037684 f i libucrt:output.obj
 0001:00036984       ?state_case_type@?$output_processor@DV?$string_output_adapter@D@__crt_stdio_output@@V?$positional_parameter_base@DV?$string_output_adapter@D@__crt_stdio_output@@@2@@__crt_stdio_output@@AEAA_NXZ 0000000140037984 f i libucrt:output.obj
 0001:00036ca0       ?state_case_type@?$output_processor@DV?$string_output_adapter@D@__crt_stdio_output@@V?$standard_base@DV?$string_output_adapter@D@__crt_stdio_output@@@2@@__crt_stdio_output@@AEAA_NXZ 0000000140037ca0 f i libucrt:output.obj
 0001:00036fa0       ?state_case_type@?$output_processor@_WV?$stream_output_adapter@_W@__crt_stdio_output@@V?$format_validation_base@_WV?$stream_output_adapter@_W@__crt_stdio_output@@@2@@__crt_stdio_output@@AEAA_NXZ 0000000140037fa0 f i libucrt:output.obj
 0001:00037334       ?state_case_type@?$output_processor@_WV?$stream_output_adapter@_W@__crt_stdio_output@@V?$positional_parameter_base@_WV?$stream_output_adapter@_W@__crt_stdio_output@@@2@@__crt_stdio_output@@AEAA_NXZ 0000000140038334 f i libucrt:output.obj
 0001:000376e4       ?state_case_type@?$output_processor@_WV?$stream_output_adapter@_W@__crt_stdio_output@@V?$standard_base@_WV?$stream_output_adapter@_W@__crt_stdio_output@@@2@@__crt_stdio_output@@AEAA_NXZ 00000001400386e4 f i libucrt:output.obj
 0001:00037a78       ?state_case_type@?$output_processor@_WV?$string_output_adapter@_W@__crt_stdio_output@@V?$format_validation_base@_WV?$string_output_adapter@_W@__crt_stdio_output@@@2@@__crt_stdio_output@@AEAA_NXZ 0000000140038a78 f i libucrt:output.obj
 0001:00037df4       ?state_case_type@?$output_processor@_WV?$string_output_adapter@_W@__crt_stdio_output@@V?$positional_parameter_base@_WV?$string_output_adapter@_W@__crt_stdio_output@@@2@@__crt_stdio_output@@AEAA_NXZ 0000000140038df4 f i libucrt:output.obj
 0001:0003818c       ?state_case_type@?$output_processor@_WV?$string_output_adapter@_W@__crt_stdio_output@@V?$standard_base@_WV?$string_output_adapter@_W@__crt_stdio_output@@@2@@__crt_stdio_output@@AEAA_NXZ 000000014003918c f i libucrt:output.obj
 0001:00038508       ?state_case_width@?$output_processor@DV?$stream_output_adapter@D@__crt_stdio_output@@V?$format_validation_base@DV?$stream_output_adapter@D@__crt_stdio_output@@@2@@__crt_stdio_output@@AEAA_NXZ 0000000140039508 f i libucrt:output.obj
 0001:00038548       ?state_case_width@?$output_processor@DV?$stream_output_adapter@D@__crt_stdio_output@@V?$positional_parameter_base@DV?$stream_output_adapter@D@__crt_stdio_output@@@2@@__crt_stdio_output@@AEAA_NXZ 0000000140039548 f i libucrt:output.obj
 0001:000385ac       ?state_case_width@?$output_processor@DV?$stream_output_adapter@D@__crt_stdio_output@@V?$standard_base@DV?$stream_output_adapter@D@__crt_stdio_output@@@2@@__crt_stdio_output@@AEAA_NXZ 00000001400395ac f i libucrt:output.obj
 0001:000385ec       ?state_case_width@?$output_processor@DV?$string_output_adapter@D@__crt_stdio_output@@V?$format_validation_base@DV?$string_output_adapter@D@__crt_stdio_output@@@2@@__crt_stdio_output@@AEAA_NXZ 00000001400395ec f i libucrt:output.obj
 0001:0003862c       ?state_case_width@?$output_processor@DV?$string_output_adapter@D@__crt_stdio_output@@V?$positional_parameter_base@DV?$string_output_adapter@D@__crt_stdio_output@@@2@@__crt_stdio_output@@AEAA_NXZ 000000014003962c f i libucrt:output.obj
 0001:00038690       ?state_case_width@?$output_processor@DV?$string_output_adapter@D@__crt_stdio_output@@V?$standard_base@DV?$string_output_adapter@D@__crt_stdio_output@@@2@@__crt_stdio_output@@AEAA_NXZ 0000000140039690 f i libucrt:output.obj
 0001:000386d0       ?state_case_width@?$output_processor@_WV?$stream_output_adapter@_W@__crt_stdio_output@@V?$format_validation_base@_WV?$stream_output_adapter@_W@__crt_stdio_output@@@2@@__crt_stdio_output@@AEAA_NXZ 00000001400396d0 f i libucrt:output.obj
 0001:00038710       ?state_case_width@?$output_processor@_WV?$stream_output_adapter@_W@__crt_stdio_output@@V?$positional_parameter_base@_WV?$stream_output_adapter@_W@__crt_stdio_output@@@2@@__crt_stdio_output@@AEAA_NXZ 0000000140039710 f i libucrt:output.obj
 0001:00038778       ?state_case_width@?$output_processor@_WV?$stream_output_adapter@_W@__crt_stdio_output@@V?$standard_base@_WV?$stream_output_adapter@_W@__crt_stdio_output@@@2@@__crt_stdio_output@@AEAA_NXZ 0000000140039778 f i libucrt:output.obj
 0001:000387b8       ?state_case_width@?$output_processor@_WV?$string_output_adapter@_W@__crt_stdio_output@@V?$format_validation_base@_WV?$string_output_adapter@_W@__crt_stdio_output@@@2@@__crt_stdio_output@@AEAA_NXZ 00000001400397b8 f i libucrt:output.obj
 0001:000387f8       ?state_case_width@?$output_processor@_WV?$string_output_adapter@_W@__crt_stdio_output@@V?$positional_parameter_base@_WV?$string_output_adapter@_W@__crt_stdio_output@@@2@@__crt_stdio_output@@AEAA_NXZ 00000001400397f8 f i libucrt:output.obj
 0001:00038860       ?state_case_width@?$output_processor@_WV?$string_output_adapter@_W@__crt_stdio_output@@V?$standard_base@_WV?$string_output_adapter@_W@__crt_stdio_output@@@2@@__crt_stdio_output@@AEAA_NXZ 0000000140039860 f i libucrt:output.obj
 0001:000388a0       ?state_count@?$format_validation_base@DV?$stream_output_adapter@D@__crt_stdio_output@@@__crt_stdio_output@@KAIXZ 00000001400398a0 f i libucrt:output.obj
 0001:000388a8       ?state_count@?$format_validation_base@DV?$string_output_adapter@D@__crt_stdio_output@@@__crt_stdio_output@@KAIXZ 00000001400398a8 f i libucrt:output.obj
 0001:000388b0       ?state_count@?$format_validation_base@_WV?$stream_output_adapter@_W@__crt_stdio_output@@@__crt_stdio_output@@KAIXZ 00000001400398b0 f i libucrt:output.obj
 0001:000388b8       ?state_count@?$format_validation_base@_WV?$string_output_adapter@_W@__crt_stdio_output@@@__crt_stdio_output@@KAIXZ 00000001400398b8 f i libucrt:output.obj
 0001:000388c0       ?state_count@?$standard_base@DV?$stream_output_adapter@D@__crt_stdio_output@@@__crt_stdio_output@@KAIXZ 00000001400398c0 f i libucrt:output.obj
 0001:000388c8       ?state_count@?$standard_base@DV?$string_output_adapter@D@__crt_stdio_output@@@__crt_stdio_output@@KAIXZ 00000001400398c8 f i libucrt:output.obj
 0001:000388d0       ?state_count@?$standard_base@_WV?$stream_output_adapter@_W@__crt_stdio_output@@@__crt_stdio_output@@KAIXZ 00000001400398d0 f i libucrt:output.obj
 0001:000388d8       ?state_count@?$standard_base@_WV?$string_output_adapter@_W@__crt_stdio_output@@@__crt_stdio_output@@KAIXZ 00000001400398d8 f i libucrt:output.obj
 0001:000388e0       ?state_transition_table@?$format_validation_base@DV?$stream_output_adapter@D@__crt_stdio_output@@@__crt_stdio_output@@KAAEBV?$spectre_mitigated_lookup_table@Ustate_transition_pair@__crt_stdio_output@@$0IA@@2@XZ 00000001400398e0 f i libucrt:output.obj
 0001:000388ec       ?state_transition_table@?$format_validation_base@DV?$string_output_adapter@D@__crt_stdio_output@@@__crt_stdio_output@@KAAEBV?$spectre_mitigated_lookup_table@Ustate_transition_pair@__crt_stdio_output@@$0IA@@2@XZ 00000001400398ec f i libucrt:output.obj
 0001:000388f8       ?state_transition_table@?$format_validation_base@_WV?$stream_output_adapter@_W@__crt_stdio_output@@@__crt_stdio_output@@KAAEBV?$spectre_mitigated_lookup_table@Ustate_transition_pair@__crt_stdio_output@@$0IA@@2@XZ 00000001400398f8 f i libucrt:output.obj
 0001:00038904       ?state_transition_table@?$format_validation_base@_WV?$string_output_adapter@_W@__crt_stdio_output@@@__crt_stdio_output@@KAAEBV?$spectre_mitigated_lookup_table@Ustate_transition_pair@__crt_stdio_output@@$0IA@@2@XZ 0000000140039904 f i libucrt:output.obj
 0001:00038910       ?state_transition_table@?$standard_base@DV?$stream_output_adapter@D@__crt_stdio_output@@@__crt_stdio_output@@KAAEBV?$spectre_mitigated_lookup_table@Ustate_transition_pair@__crt_stdio_output@@$0IA@@2@XZ 0000000140039910 f i libucrt:output.obj
 0001:0003891c       ?state_transition_table@?$standard_base@DV?$string_output_adapter@D@__crt_stdio_output@@@__crt_stdio_output@@KAAEBV?$spectre_mitigated_lookup_table@Ustate_transition_pair@__crt_stdio_output@@$0IA@@2@XZ 000000014003991c f i libucrt:output.obj
 0001:00038928       ?state_transition_table@?$standard_base@_WV?$stream_output_adapter@_W@__crt_stdio_output@@@__crt_stdio_output@@KAAEBV?$spectre_mitigated_lookup_table@Ustate_transition_pair@__crt_stdio_output@@$0IA@@2@XZ 0000000140039928 f i libucrt:output.obj
 0001:00038934       ?state_transition_table@?$standard_base@_WV?$string_output_adapter@_W@__crt_stdio_output@@@__crt_stdio_output@@KAAEBV?$spectre_mitigated_lookup_table@Ustate_transition_pair@__crt_stdio_output@@$0IA@@2@XZ 0000000140039934 f i libucrt:output.obj
 0001:00038940       ?tchar_string@?$common_data@D@__crt_stdio_output@@IEAAAEAPEADD@Z 0000000140039940 f i libucrt:output.obj
 0001:00038948       ?tchar_string@?$common_data@D@__crt_stdio_output@@IEAAAEAPEADXZ 0000000140039948 f i libucrt:output.obj
 0001:00038950       ?tchar_string@?$common_data@_W@__crt_stdio_output@@IEAAAEAPEA_WXZ 0000000140039950 f i libucrt:output.obj
 0001:00038958       ?tchar_string@?$common_data@_W@__crt_stdio_output@@IEAAAEAPEA_W_W@Z 0000000140039958 f i libucrt:output.obj
 0001:00038960       ?to_integer_size@__crt_stdio_output@@YA_KW4length_modifier@1@@Z 0000000140039960 f i libucrt:output.obj
 0001:000389e4       ?type_case_X@?$output_processor@DV?$stream_output_adapter@D@__crt_stdio_output@@V?$format_validation_base@DV?$stream_output_adapter@D@__crt_stdio_output@@@2@@__crt_stdio_output@@AEAA_NXZ 00000001400399e4 f i libucrt:output.obj
 0001:000389f4       ?type_case_X@?$output_processor@DV?$stream_output_adapter@D@__crt_stdio_output@@V?$positional_parameter_base@DV?$stream_output_adapter@D@__crt_stdio_output@@@2@@__crt_stdio_output@@AEAA_NXZ 00000001400399f4 f i libucrt:output.obj
 0001:00038a04       ?type_case_X@?$output_processor@DV?$stream_output_adapter@D@__crt_stdio_output@@V?$standard_base@DV?$stream_output_adapter@D@__crt_stdio_output@@@2@@__crt_stdio_output@@AEAA_NXZ 0000000140039a04 f i libucrt:output.obj
 0001:00038a14       ?type_case_X@?$output_processor@DV?$string_output_adapter@D@__crt_stdio_output@@V?$format_validation_base@DV?$string_output_adapter@D@__crt_stdio_output@@@2@@__crt_stdio_output@@AEAA_NXZ 0000000140039a14 f i libucrt:output.obj
 0001:00038a24       ?type_case_X@?$output_processor@DV?$string_output_adapter@D@__crt_stdio_output@@V?$positional_parameter_base@DV?$string_output_adapter@D@__crt_stdio_output@@@2@@__crt_stdio_output@@AEAA_NXZ 0000000140039a24 f i libucrt:output.obj
 0001:00038a34       ?type_case_X@?$output_processor@DV?$string_output_adapter@D@__crt_stdio_output@@V?$standard_base@DV?$string_output_adapter@D@__crt_stdio_output@@@2@@__crt_stdio_output@@AEAA_NXZ 0000000140039a34 f i libucrt:output.obj
 0001:00038a44       ?type_case_X@?$output_processor@_WV?$stream_output_adapter@_W@__crt_stdio_output@@V?$format_validation_base@_WV?$stream_output_adapter@_W@__crt_stdio_output@@@2@@__crt_stdio_output@@AEAA_NXZ 0000000140039a44 f i libucrt:output.obj
 0001:00038a54       ?type_case_X@?$output_processor@_WV?$stream_output_adapter@_W@__crt_stdio_output@@V?$positional_parameter_base@_WV?$stream_output_adapter@_W@__crt_stdio_output@@@2@@__crt_stdio_output@@AEAA_NXZ 0000000140039a54 f i libucrt:output.obj
 0001:00038a64       ?type_case_X@?$output_processor@_WV?$stream_output_adapter@_W@__crt_stdio_output@@V?$standard_base@_WV?$stream_output_adapter@_W@__crt_stdio_output@@@2@@__crt_stdio_output@@AEAA_NXZ 0000000140039a64 f i libucrt:output.obj
 0001:00038a74       ?type_case_X@?$output_processor@_WV?$string_output_adapter@_W@__crt_stdio_output@@V?$format_validation_base@_WV?$string_output_adapter@_W@__crt_stdio_output@@@2@@__crt_stdio_output@@AEAA_NXZ 0000000140039a74 f i libucrt:output.obj
 0001:00038a84       ?type_case_X@?$output_processor@_WV?$string_output_adapter@_W@__crt_stdio_output@@V?$positional_parameter_base@_WV?$string_output_adapter@_W@__crt_stdio_output@@@2@@__crt_stdio_output@@AEAA_NXZ 0000000140039a84 f i libucrt:output.obj
 0001:00038a94       ?type_case_X@?$output_processor@_WV?$string_output_adapter@_W@__crt_stdio_output@@V?$standard_base@_WV?$string_output_adapter@_W@__crt_stdio_output@@@2@@__crt_stdio_output@@AEAA_NXZ 0000000140039a94 f i libucrt:output.obj
 0001:00038aa4       ?type_case_Z@?$output_processor@DV?$stream_output_adapter@D@__crt_stdio_output@@V?$format_validation_base@DV?$stream_output_adapter@D@__crt_stdio_output@@@2@@__crt_stdio_output@@AEAA_NXZ 0000000140039aa4 f i libucrt:output.obj
 0001:00038b34       ?type_case_Z@?$output_processor@DV?$stream_output_adapter@D@__crt_stdio_output@@V?$positional_parameter_base@DV?$stream_output_adapter@D@__crt_stdio_output@@@2@@__crt_stdio_output@@AEAA_NXZ 0000000140039b34 f i libucrt:output.obj
 0001:00038bfc       ?type_case_Z@?$output_processor@DV?$stream_output_adapter@D@__crt_stdio_output@@V?$standard_base@DV?$stream_output_adapter@D@__crt_stdio_output@@@2@@__crt_stdio_output@@AEAA_NXZ 0000000140039bfc f i libucrt:output.obj
 0001:00038c8c       ?type_case_Z@?$output_processor@DV?$string_output_adapter@D@__crt_stdio_output@@V?$format_validation_base@DV?$string_output_adapter@D@__crt_stdio_output@@@2@@__crt_stdio_output@@AEAA_NXZ 0000000140039c8c f i libucrt:output.obj
 0001:00038d1c       ?type_case_Z@?$output_processor@DV?$string_output_adapter@D@__crt_stdio_output@@V?$positional_parameter_base@DV?$string_output_adapter@D@__crt_stdio_output@@@2@@__crt_stdio_output@@AEAA_NXZ 0000000140039d1c f i libucrt:output.obj
 0001:00038de4       ?type_case_Z@?$output_processor@DV?$string_output_adapter@D@__crt_stdio_output@@V?$standard_base@DV?$string_output_adapter@D@__crt_stdio_output@@@2@@__crt_stdio_output@@AEAA_NXZ 0000000140039de4 f i libucrt:output.obj
 0001:00038e74       ?type_case_Z@?$output_processor@_WV?$stream_output_adapter@_W@__crt_stdio_output@@V?$format_validation_base@_WV?$stream_output_adapter@_W@__crt_stdio_output@@@2@@__crt_stdio_output@@AEAA_NXZ 0000000140039e74 f i libucrt:output.obj
 0001:00038f0c       ?type_case_Z@?$output_processor@_WV?$stream_output_adapter@_W@__crt_stdio_output@@V?$positional_parameter_base@_WV?$stream_output_adapter@_W@__crt_stdio_output@@@2@@__crt_stdio_output@@AEAA_NXZ 0000000140039f0c f i libucrt:output.obj
 0001:00038fc8       ?type_case_Z@?$output_processor@_WV?$stream_output_adapter@_W@__crt_stdio_output@@V?$standard_base@_WV?$stream_output_adapter@_W@__crt_stdio_output@@@2@@__crt_stdio_output@@AEAA_NXZ 0000000140039fc8 f i libucrt:output.obj
 0001:00039060       ?type_case_Z@?$output_processor@_WV?$string_output_adapter@_W@__crt_stdio_output@@V?$format_validation_base@_WV?$string_output_adapter@_W@__crt_stdio_output@@@2@@__crt_stdio_output@@AEAA_NXZ 000000014003a060 f i libucrt:output.obj
 0001:000390f8       ?type_case_Z@?$output_processor@_WV?$string_output_adapter@_W@__crt_stdio_output@@V?$positional_parameter_base@_WV?$string_output_adapter@_W@__crt_stdio_output@@@2@@__crt_stdio_output@@AEAA_NXZ 000000014003a0f8 f i libucrt:output.obj
 0001:000391b4       ?type_case_Z@?$output_processor@_WV?$string_output_adapter@_W@__crt_stdio_output@@V?$standard_base@_WV?$string_output_adapter@_W@__crt_stdio_output@@@2@@__crt_stdio_output@@AEAA_NXZ 000000014003a1b4 f i libucrt:output.obj
 0001:0003924c       ?type_case_a@?$output_processor@DV?$stream_output_adapter@D@__crt_stdio_output@@V?$format_validation_base@DV?$stream_output_adapter@D@__crt_stdio_output@@@2@@__crt_stdio_output@@AEAA_NXZ 000000014003a24c f i libucrt:output.obj
 0001:00039478       ?type_case_a@?$output_processor@DV?$stream_output_adapter@D@__crt_stdio_output@@V?$positional_parameter_base@DV?$stream_output_adapter@D@__crt_stdio_output@@@2@@__crt_stdio_output@@AEAA_NXZ 000000014003a478 f i libucrt:output.obj
 0001:000396f0       ?type_case_a@?$output_processor@DV?$stream_output_adapter@D@__crt_stdio_output@@V?$standard_base@DV?$stream_output_adapter@D@__crt_stdio_output@@@2@@__crt_stdio_output@@AEAA_NXZ 000000014003a6f0 f i libucrt:output.obj
 0001:0003991c       ?type_case_a@?$output_processor@DV?$string_output_adapter@D@__crt_stdio_output@@V?$format_validation_base@DV?$string_output_adapter@D@__crt_stdio_output@@@2@@__crt_stdio_output@@AEAA_NXZ 000000014003a91c f i libucrt:output.obj
 0001:00039b48       ?type_case_a@?$output_processor@DV?$string_output_adapter@D@__crt_stdio_output@@V?$positional_parameter_base@DV?$string_output_adapter@D@__crt_stdio_output@@@2@@__crt_stdio_output@@AEAA_NXZ 000000014003ab48 f i libucrt:output.obj
 0001:00039dc0       ?type_case_a@?$output_processor@DV?$string_output_adapter@D@__crt_stdio_output@@V?$standard_base@DV?$string_output_adapter@D@__crt_stdio_output@@@2@@__crt_stdio_output@@AEAA_NXZ 000000014003adc0 f i libucrt:output.obj
 0001:00039fec       ?type_case_a@?$output_processor@_WV?$stream_output_adapter@_W@__crt_stdio_output@@V?$format_validation_base@_WV?$stream_output_adapter@_W@__crt_stdio_output@@@2@@__crt_stdio_output@@AEAA_NXZ 000000014003afec f i libucrt:output.obj
 0001:0003a244       ?type_case_a@?$output_processor@_WV?$stream_output_adapter@_W@__crt_stdio_output@@V?$positional_parameter_base@_WV?$stream_output_adapter@_W@__crt_stdio_output@@@2@@__crt_stdio_output@@AEAA_NXZ 000000014003b244 f i libucrt:output.obj
 0001:0003a4e8       ?type_case_a@?$output_processor@_WV?$stream_output_adapter@_W@__crt_stdio_output@@V?$standard_base@_WV?$stream_output_adapter@_W@__crt_stdio_output@@@2@@__crt_stdio_output@@AEAA_NXZ 000000014003b4e8 f i libucrt:output.obj
 0001:0003a740       ?type_case_a@?$output_processor@_WV?$string_output_adapter@_W@__crt_stdio_output@@V?$format_validation_base@_WV?$string_output_adapter@_W@__crt_stdio_output@@@2@@__crt_stdio_output@@AEAA_NXZ 000000014003b740 f i libucrt:output.obj
 0001:0003a998       ?type_case_a@?$output_processor@_WV?$string_output_adapter@_W@__crt_stdio_output@@V?$positional_parameter_base@_WV?$string_output_adapter@_W@__crt_stdio_output@@@2@@__crt_stdio_output@@AEAA_NXZ 000000014003b998 f i libucrt:output.obj
 0001:0003ac3c       ?type_case_a@?$output_processor@_WV?$string_output_adapter@_W@__crt_stdio_output@@V?$standard_base@_WV?$string_output_adapter@_W@__crt_stdio_output@@@2@@__crt_stdio_output@@AEAA_NXZ 000000014003bc3c f i libucrt:output.obj
 0001:0003ae94       ?type_case_c@?$output_processor@DV?$stream_output_adapter@D@__crt_stdio_output@@V?$format_validation_base@DV?$stream_output_adapter@D@__crt_stdio_output@@@2@@__crt_stdio_output@@AEAA_NXZ 000000014003be94 f i libucrt:output.obj
 0001:0003ae9c       ?type_case_c@?$output_processor@DV?$stream_output_adapter@D@__crt_stdio_output@@V?$positional_parameter_base@DV?$stream_output_adapter@D@__crt_stdio_output@@@2@@__crt_stdio_output@@AEAA_NXZ 000000014003be9c f i libucrt:output.obj
 0001:0003aea4       ?type_case_c@?$output_processor@DV?$stream_output_adapter@D@__crt_stdio_output@@V?$standard_base@DV?$stream_output_adapter@D@__crt_stdio_output@@@2@@__crt_stdio_output@@AEAA_NXZ 000000014003bea4 f i libucrt:output.obj
 0001:0003aeac       ?type_case_c@?$output_processor@DV?$string_output_adapter@D@__crt_stdio_output@@V?$format_validation_base@DV?$string_output_adapter@D@__crt_stdio_output@@@2@@__crt_stdio_output@@AEAA_NXZ 000000014003beac f i libucrt:output.obj
 0001:0003aeb4       ?type_case_c@?$output_processor@DV?$string_output_adapter@D@__crt_stdio_output@@V?$positional_parameter_base@DV?$string_output_adapter@D@__crt_stdio_output@@@2@@__crt_stdio_output@@AEAA_NXZ 000000014003beb4 f i libucrt:output.obj
 0001:0003aebc       ?type_case_c@?$output_processor@DV?$string_output_adapter@D@__crt_stdio_output@@V?$standard_base@DV?$string_output_adapter@D@__crt_stdio_output@@@2@@__crt_stdio_output@@AEAA_NXZ 000000014003bebc f i libucrt:output.obj
 0001:0003aec4       ?type_case_c@?$output_processor@_WV?$stream_output_adapter@_W@__crt_stdio_output@@V?$format_validation_base@_WV?$stream_output_adapter@_W@__crt_stdio_output@@@2@@__crt_stdio_output@@AEAA_NXZ 000000014003bec4 f i libucrt:output.obj
 0001:0003aecc       ?type_case_c@?$output_processor@_WV?$stream_output_adapter@_W@__crt_stdio_output@@V?$positional_parameter_base@_WV?$stream_output_adapter@_W@__crt_stdio_output@@@2@@__crt_stdio_output@@AEAA_NXZ 000000014003becc f i libucrt:output.obj
 0001:0003aed4       ?type_case_c@?$output_processor@_WV?$stream_output_adapter@_W@__crt_stdio_output@@V?$standard_base@_WV?$stream_output_adapter@_W@__crt_stdio_output@@@2@@__crt_stdio_output@@AEAA_NXZ 000000014003bed4 f i libucrt:output.obj
 0001:0003aedc       ?type_case_c@?$output_processor@_WV?$string_output_adapter@_W@__crt_stdio_output@@V?$format_validation_base@_WV?$string_output_adapter@_W@__crt_stdio_output@@@2@@__crt_stdio_output@@AEAA_NXZ 000000014003bedc f i libucrt:output.obj
 0001:0003aee4       ?type_case_c@?$output_processor@_WV?$string_output_adapter@_W@__crt_stdio_output@@V?$positional_parameter_base@_WV?$string_output_adapter@_W@__crt_stdio_output@@@2@@__crt_stdio_output@@AEAA_NXZ 000000014003bee4 f i libucrt:output.obj
 0001:0003aeec       ?type_case_c@?$output_processor@_WV?$string_output_adapter@_W@__crt_stdio_output@@V?$standard_base@_WV?$string_output_adapter@_W@__crt_stdio_output@@@2@@__crt_stdio_output@@AEAA_NXZ 000000014003beec f i libucrt:output.obj
 0001:0003aef4       ?type_case_c_tchar@?$output_processor@DV?$stream_output_adapter@D@__crt_stdio_output@@V?$format_validation_base@DV?$stream_output_adapter@D@__crt_stdio_output@@@2@@__crt_stdio_output@@AEAA_ND@Z 000000014003bef4 f i libucrt:output.obj
 0001:0003afec       ?type_case_c_tchar@?$output_processor@DV?$stream_output_adapter@D@__crt_stdio_output@@V?$positional_parameter_base@DV?$stream_output_adapter@D@__crt_stdio_output@@@2@@__crt_stdio_output@@AEAA_ND@Z 000000014003bfec f i libucrt:output.obj
 0001:0003b13c       ?type_case_c_tchar@?$output_processor@DV?$stream_output_adapter@D@__crt_stdio_output@@V?$standard_base@DV?$stream_output_adapter@D@__crt_stdio_output@@@2@@__crt_stdio_output@@AEAA_ND@Z 000000014003c13c f i libucrt:output.obj
 0001:0003b234       ?type_case_c_tchar@?$output_processor@DV?$string_output_adapter@D@__crt_stdio_output@@V?$format_validation_base@DV?$string_output_adapter@D@__crt_stdio_output@@@2@@__crt_stdio_output@@AEAA_ND@Z 000000014003c234 f i libucrt:output.obj
 0001:0003b32c       ?type_case_c_tchar@?$output_processor@DV?$string_output_adapter@D@__crt_stdio_output@@V?$positional_parameter_base@DV?$string_output_adapter@D@__crt_stdio_output@@@2@@__crt_stdio_output@@AEAA_ND@Z 000000014003c32c f i libucrt:output.obj
 0001:0003b47c       ?type_case_c_tchar@?$output_processor@DV?$string_output_adapter@D@__crt_stdio_output@@V?$standard_base@DV?$string_output_adapter@D@__crt_stdio_output@@@2@@__crt_stdio_output@@AEAA_ND@Z 000000014003c47c f i libucrt:output.obj
 0001:0003b574       ?type_case_c_tchar@?$output_processor@_WV?$stream_output_adapter@_W@__crt_stdio_output@@V?$format_validation_base@_WV?$stream_output_adapter@_W@__crt_stdio_output@@@2@@__crt_stdio_output@@AEAA_N_W@Z 000000014003c574 f i libucrt:output.obj
 0001:0003b644       ?type_case_c_tchar@?$output_processor@_WV?$stream_output_adapter@_W@__crt_stdio_output@@V?$positional_parameter_base@_WV?$stream_output_adapter@_W@__crt_stdio_output@@@2@@__crt_stdio_output@@AEAA_N_W@Z 000000014003c644 f i libucrt:output.obj
 0001:0003b744       ?type_case_c_tchar@?$output_processor@_WV?$stream_output_adapter@_W@__crt_stdio_output@@V?$standard_base@_WV?$stream_output_adapter@_W@__crt_stdio_output@@@2@@__crt_stdio_output@@AEAA_N_W@Z 000000014003c744 f i libucrt:output.obj
 0001:0003b814       ?type_case_c_tchar@?$output_processor@_WV?$string_output_adapter@_W@__crt_stdio_output@@V?$format_validation_base@_WV?$string_output_adapter@_W@__crt_stdio_output@@@2@@__crt_stdio_output@@AEAA_N_W@Z 000000014003c814 f i libucrt:output.obj
 0001:0003b8e4       ?type_case_c_tchar@?$output_processor@_WV?$string_output_adapter@_W@__crt_stdio_output@@V?$positional_parameter_base@_WV?$string_output_adapter@_W@__crt_stdio_output@@@2@@__crt_stdio_output@@AEAA_N_W@Z 000000014003c8e4 f i libucrt:output.obj
 0001:0003b9e4       ?type_case_c_tchar@?$output_processor@_WV?$string_output_adapter@_W@__crt_stdio_output@@V?$standard_base@_WV?$string_output_adapter@_W@__crt_stdio_output@@@2@@__crt_stdio_output@@AEAA_N_W@Z 000000014003c9e4 f i libucrt:output.obj
 0001:0003bab4       ?type_case_d@?$output_processor@DV?$stream_output_adapter@D@__crt_stdio_output@@V?$format_validation_base@DV?$stream_output_adapter@D@__crt_stdio_output@@@2@@__crt_stdio_output@@AEAA_NXZ 000000014003cab4 f i libucrt:output.obj
 0001:0003bac8       ?type_case_d@?$output_processor@DV?$stream_output_adapter@D@__crt_stdio_output@@V?$positional_parameter_base@DV?$stream_output_adapter@D@__crt_stdio_output@@@2@@__crt_stdio_output@@AEAA_NXZ 000000014003cac8 f i libucrt:output.obj
 0001:0003badc       ?type_case_d@?$output_processor@DV?$stream_output_adapter@D@__crt_stdio_output@@V?$standard_base@DV?$stream_output_adapter@D@__crt_stdio_output@@@2@@__crt_stdio_output@@AEAA_NXZ 000000014003cadc f i libucrt:output.obj
 0001:0003baf0       ?type_case_d@?$output_processor@DV?$string_output_adapter@D@__crt_stdio_output@@V?$format_validation_base@DV?$string_output_adapter@D@__crt_stdio_output@@@2@@__crt_stdio_output@@AEAA_NXZ 000000014003caf0 f i libucrt:output.obj
 0001:0003bb04       ?type_case_d@?$output_processor@DV?$string_output_adapter@D@__crt_stdio_output@@V?$positional_parameter_base@DV?$string_output_adapter@D@__crt_stdio_output@@@2@@__crt_stdio_output@@AEAA_NXZ 000000014003cb04 f i libucrt:output.obj
 0001:0003bb18       ?type_case_d@?$output_processor@DV?$string_output_adapter@D@__crt_stdio_output@@V?$standard_base@DV?$string_output_adapter@D@__crt_stdio_output@@@2@@__crt_stdio_output@@AEAA_NXZ 000000014003cb18 f i libucrt:output.obj
 0001:0003bb2c       ?type_case_d@?$output_processor@_WV?$stream_output_adapter@_W@__crt_stdio_output@@V?$format_validation_base@_WV?$stream_output_adapter@_W@__crt_stdio_output@@@2@@__crt_stdio_output@@AEAA_NXZ 000000014003cb2c f i libucrt:output.obj
 0001:0003bb40       ?type_case_d@?$output_processor@_WV?$stream_output_adapter@_W@__crt_stdio_output@@V?$positional_parameter_base@_WV?$stream_output_adapter@_W@__crt_stdio_output@@@2@@__crt_stdio_output@@AEAA_NXZ 000000014003cb40 f i libucrt:output.obj
 0001:0003bb54       ?type_case_d@?$output_processor@_WV?$stream_output_adapter@_W@__crt_stdio_output@@V?$standard_base@_WV?$stream_output_adapter@_W@__crt_stdio_output@@@2@@__crt_stdio_output@@AEAA_NXZ 000000014003cb54 f i libucrt:output.obj
 0001:0003bb68       ?type_case_d@?$output_processor@_WV?$string_output_adapter@_W@__crt_stdio_output@@V?$format_validation_base@_WV?$string_output_adapter@_W@__crt_stdio_output@@@2@@__crt_stdio_output@@AEAA_NXZ 000000014003cb68 f i libucrt:output.obj
 0001:0003bb7c       ?type_case_d@?$output_processor@_WV?$string_output_adapter@_W@__crt_stdio_output@@V?$positional_parameter_base@_WV?$string_output_adapter@_W@__crt_stdio_output@@@2@@__crt_stdio_output@@AEAA_NXZ 000000014003cb7c f i libucrt:output.obj
 0001:0003bb90       ?type_case_d@?$output_processor@_WV?$string_output_adapter@_W@__crt_stdio_output@@V?$standard_base@_WV?$string_output_adapter@_W@__crt_stdio_output@@@2@@__crt_stdio_output@@AEAA_NXZ 000000014003cb90 f i libucrt:output.obj
 0001:0003bba4       ?type_case_integer@?$output_processor@DV?$stream_output_adapter@D@__crt_stdio_output@@V?$format_validation_base@DV?$stream_output_adapter@D@__crt_stdio_output@@@2@@__crt_stdio_output@@AEAA_NI_N@Z 000000014003cba4 f i libucrt:output.obj
 0001:0003bd84       ?type_case_integer@?$output_processor@DV?$stream_output_adapter@D@__crt_stdio_output@@V?$positional_parameter_base@DV?$stream_output_adapter@D@__crt_stdio_output@@@2@@__crt_stdio_output@@AEAA_NI_N@Z 000000014003cd84 f i libucrt:output.obj
 0001:0003bf98       ?type_case_integer@?$output_processor@DV?$stream_output_adapter@D@__crt_stdio_output@@V?$standard_base@DV?$stream_output_adapter@D@__crt_stdio_output@@@2@@__crt_stdio_output@@AEAA_NI_N@Z 000000014003cf98 f i libucrt:output.obj
 0001:0003c178       ?type_case_integer@?$output_processor@DV?$string_output_adapter@D@__crt_stdio_output@@V?$format_validation_base@DV?$string_output_adapter@D@__crt_stdio_output@@@2@@__crt_stdio_output@@AEAA_NI_N@Z 000000014003d178 f i libucrt:output.obj
 0001:0003c358       ?type_case_integer@?$output_processor@DV?$string_output_adapter@D@__crt_stdio_output@@V?$positional_parameter_base@DV?$string_output_adapter@D@__crt_stdio_output@@@2@@__crt_stdio_output@@AEAA_NI_N@Z 000000014003d358 f i libucrt:output.obj
 0001:0003c56c       ?type_case_integer@?$output_processor@DV?$string_output_adapter@D@__crt_stdio_output@@V?$standard_base@DV?$string_output_adapter@D@__crt_stdio_output@@@2@@__crt_stdio_output@@AEAA_NI_N@Z 000000014003d56c f i libucrt:output.obj
 0001:0003c74c       ?type_case_integer@?$output_processor@_WV?$stream_output_adapter@_W@__crt_stdio_output@@V?$format_validation_base@_WV?$stream_output_adapter@_W@__crt_stdio_output@@@2@@__crt_stdio_output@@AEAA_NI_N@Z 000000014003d74c f i libucrt:output.obj
 0001:0003c934       ?type_case_integer@?$output_processor@_WV?$stream_output_adapter@_W@__crt_stdio_output@@V?$positional_parameter_base@_WV?$stream_output_adapter@_W@__crt_stdio_output@@@2@@__crt_stdio_output@@AEAA_NI_N@Z 000000014003d934 f i libucrt:output.obj
 0001:0003cb50       ?type_case_integer@?$output_processor@_WV?$stream_output_adapter@_W@__crt_stdio_output@@V?$standard_base@_WV?$stream_output_adapter@_W@__crt_stdio_output@@@2@@__crt_stdio_output@@AEAA_NI_N@Z 000000014003db50 f i libucrt:output.obj
 0001:0003cd38       ?type_case_integer@?$output_processor@_WV?$string_output_adapter@_W@__crt_stdio_output@@V?$format_validation_base@_WV?$string_output_adapter@_W@__crt_stdio_output@@@2@@__crt_stdio_output@@AEAA_NI_N@Z 000000014003dd38 f i libucrt:output.obj
 0001:0003cf20       ?type_case_integer@?$output_processor@_WV?$string_output_adapter@_W@__crt_stdio_output@@V?$positional_parameter_base@_WV?$string_output_adapter@_W@__crt_stdio_output@@@2@@__crt_stdio_output@@AEAA_NI_N@Z 000000014003df20 f i libucrt:output.obj
 0001:0003d13c       ?type_case_integer@?$output_processor@_WV?$string_output_adapter@_W@__crt_stdio_output@@V?$standard_base@_WV?$string_output_adapter@_W@__crt_stdio_output@@@2@@__crt_stdio_output@@AEAA_NI_N@Z 000000014003e13c f i libucrt:output.obj
 0001:0003d324       ?type_case_n@?$output_processor@DV?$stream_output_adapter@D@__crt_stdio_output@@V?$format_validation_base@DV?$stream_output_adapter@D@__crt_stdio_output@@@2@@__crt_stdio_output@@AEAA_NXZ 000000014003e324 f i libucrt:output.obj
 0001:0003d3cc       ?type_case_n@?$output_processor@DV?$stream_output_adapter@D@__crt_stdio_output@@V?$positional_parameter_base@DV?$stream_output_adapter@D@__crt_stdio_output@@@2@@__crt_stdio_output@@AEAA_NXZ 000000014003e3cc f i libucrt:output.obj
 0001:0003d4a8       ?type_case_n@?$output_processor@DV?$stream_output_adapter@D@__crt_stdio_output@@V?$standard_base@DV?$stream_output_adapter@D@__crt_stdio_output@@@2@@__crt_stdio_output@@AEAA_NXZ 000000014003e4a8 f i libucrt:output.obj
 0001:0003d550       ?type_case_n@?$output_processor@DV?$string_output_adapter@D@__crt_stdio_output@@V?$format_validation_base@DV?$string_output_adapter@D@__crt_stdio_output@@@2@@__crt_stdio_output@@AEAA_NXZ 000000014003e550 f i libucrt:output.obj
 0001:0003d5f8       ?type_case_n@?$output_processor@DV?$string_output_adapter@D@__crt_stdio_output@@V?$positional_parameter_base@DV?$string_output_adapter@D@__crt_stdio_output@@@2@@__crt_stdio_output@@AEAA_NXZ 000000014003e5f8 f i libucrt:output.obj
 0001:0003d6d4       ?type_case_n@?$output_processor@DV?$string_output_adapter@D@__crt_stdio_output@@V?$standard_base@DV?$string_output_adapter@D@__crt_stdio_output@@@2@@__crt_stdio_output@@AEAA_NXZ 000000014003e6d4 f i libucrt:output.obj
 0001:0003d77c       ?type_case_n@?$output_processor@_WV?$stream_output_adapter@_W@__crt_stdio_output@@V?$format_validation_base@_WV?$stream_output_adapter@_W@__crt_stdio_output@@@2@@__crt_stdio_output@@AEAA_NXZ 000000014003e77c f i libucrt:output.obj
 0001:0003d824       ?type_case_n@?$output_processor@_WV?$stream_output_adapter@_W@__crt_stdio_output@@V?$positional_parameter_base@_WV?$stream_output_adapter@_W@__crt_stdio_output@@@2@@__crt_stdio_output@@AEAA_NXZ 000000014003e824 f i libucrt:output.obj
 0001:0003d900       ?type_case_n@?$output_processor@_WV?$stream_output_adapter@_W@__crt_stdio_output@@V?$standard_base@_WV?$stream_output_adapter@_W@__crt_stdio_output@@@2@@__crt_stdio_output@@AEAA_NXZ 000000014003e900 f i libucrt:output.obj
 0001:0003d9a8       ?type_case_n@?$output_processor@_WV?$string_output_adapter@_W@__crt_stdio_output@@V?$format_validation_base@_WV?$string_output_adapter@_W@__crt_stdio_output@@@2@@__crt_stdio_output@@AEAA_NXZ 000000014003e9a8 f i libucrt:output.obj
 0001:0003da50       ?type_case_n@?$output_processor@_WV?$string_output_adapter@_W@__crt_stdio_output@@V?$positional_parameter_base@_WV?$string_output_adapter@_W@__crt_stdio_output@@@2@@__crt_stdio_output@@AEAA_NXZ 000000014003ea50 f i libucrt:output.obj
 0001:0003db2c       ?type_case_n@?$output_processor@_WV?$string_output_adapter@_W@__crt_stdio_output@@V?$standard_base@_WV?$string_output_adapter@_W@__crt_stdio_output@@@2@@__crt_stdio_output@@AEAA_NXZ 000000014003eb2c f i libucrt:output.obj
 0001:0003dbd4       ?type_case_o@?$output_processor@DV?$stream_output_adapter@D@__crt_stdio_output@@V?$format_validation_base@DV?$stream_output_adapter@D@__crt_stdio_output@@@2@@__crt_stdio_output@@AEAA_NXZ 000000014003ebd4 f i libucrt:output.obj
 0001:0003dbfc       ?type_case_o@?$output_processor@DV?$stream_output_adapter@D@__crt_stdio_output@@V?$positional_parameter_base@DV?$stream_output_adapter@D@__crt_stdio_output@@@2@@__crt_stdio_output@@AEAA_NXZ 000000014003ebfc f i libucrt:output.obj
 0001:0003dc24       ?type_case_o@?$output_processor@DV?$stream_output_adapter@D@__crt_stdio_output@@V?$standard_base@DV?$stream_output_adapter@D@__crt_stdio_output@@@2@@__crt_stdio_output@@AEAA_NXZ 000000014003ec24 f i libucrt:output.obj
 0001:0003dc4c       ?type_case_o@?$output_processor@DV?$string_output_adapter@D@__crt_stdio_output@@V?$format_validation_base@DV?$string_output_adapter@D@__crt_stdio_output@@@2@@__crt_stdio_output@@AEAA_NXZ 000000014003ec4c f i libucrt:output.obj
 0001:0003dc74       ?type_case_o@?$output_processor@DV?$string_output_adapter@D@__crt_stdio_output@@V?$positional_parameter_base@DV?$string_output_adapter@D@__crt_stdio_output@@@2@@__crt_stdio_output@@AEAA_NXZ 000000014003ec74 f i libucrt:output.obj
 0001:0003dc9c       ?type_case_o@?$output_processor@DV?$string_output_adapter@D@__crt_stdio_output@@V?$standard_base@DV?$string_output_adapter@D@__crt_stdio_output@@@2@@__crt_stdio_output@@AEAA_NXZ 000000014003ec9c f i libucrt:output.obj
 0001:0003dcc4       ?type_case_o@?$output_processor@_WV?$stream_output_adapter@_W@__crt_stdio_output@@V?$format_validation_base@_WV?$stream_output_adapter@_W@__crt_stdio_output@@@2@@__crt_stdio_output@@AEAA_NXZ 000000014003ecc4 f i libucrt:output.obj
 0001:0003dcec       ?type_case_o@?$output_processor@_WV?$stream_output_adapter@_W@__crt_stdio_output@@V?$positional_parameter_base@_WV?$stream_output_adapter@_W@__crt_stdio_output@@@2@@__crt_stdio_output@@AEAA_NXZ 000000014003ecec f i libucrt:output.obj
 0001:0003dd14       ?type_case_o@?$output_processor@_WV?$stream_output_adapter@_W@__crt_stdio_output@@V?$standard_base@_WV?$stream_output_adapter@_W@__crt_stdio_output@@@2@@__crt_stdio_output@@AEAA_NXZ 000000014003ed14 f i libucrt:output.obj
 0001:0003dd3c       ?type_case_o@?$output_processor@_WV?$string_output_adapter@_W@__crt_stdio_output@@V?$format_validation_base@_WV?$string_output_adapter@_W@__crt_stdio_output@@@2@@__crt_stdio_output@@AEAA_NXZ 000000014003ed3c f i libucrt:output.obj
 0001:0003dd64       ?type_case_o@?$output_processor@_WV?$string_output_adapter@_W@__crt_stdio_output@@V?$positional_parameter_base@_WV?$string_output_adapter@_W@__crt_stdio_output@@@2@@__crt_stdio_output@@AEAA_NXZ 000000014003ed64 f i libucrt:output.obj
 0001:0003dd8c       ?type_case_o@?$output_processor@_WV?$string_output_adapter@_W@__crt_stdio_output@@V?$standard_base@_WV?$string_output_adapter@_W@__crt_stdio_output@@@2@@__crt_stdio_output@@AEAA_NXZ 000000014003ed8c f i libucrt:output.obj
 0001:0003ddb4       ?type_case_p@?$output_processor@DV?$stream_output_adapter@D@__crt_stdio_output@@V?$format_validation_base@DV?$stream_output_adapter@D@__crt_stdio_output@@@2@@__crt_stdio_output@@AEAA_NXZ 000000014003edb4 f i libucrt:output.obj
 0001:0003ddd0       ?type_case_p@?$output_processor@DV?$stream_output_adapter@D@__crt_stdio_output@@V?$positional_parameter_base@DV?$stream_output_adapter@D@__crt_stdio_output@@@2@@__crt_stdio_output@@AEAA_NXZ 000000014003edd0 f i libucrt:output.obj
 0001:0003ddec       ?type_case_p@?$output_processor@DV?$stream_output_adapter@D@__crt_stdio_output@@V?$standard_base@DV?$stream_output_adapter@D@__crt_stdio_output@@@2@@__crt_stdio_output@@AEAA_NXZ 000000014003edec f i libucrt:output.obj
 0001:0003de08       ?type_case_p@?$output_processor@DV?$string_output_adapter@D@__crt_stdio_output@@V?$format_validation_base@DV?$string_output_adapter@D@__crt_stdio_output@@@2@@__crt_stdio_output@@AEAA_NXZ 000000014003ee08 f i libucrt:output.obj
 0001:0003de24       ?type_case_p@?$output_processor@DV?$string_output_adapter@D@__crt_stdio_output@@V?$positional_parameter_base@DV?$string_output_adapter@D@__crt_stdio_output@@@2@@__crt_stdio_output@@AEAA_NXZ 000000014003ee24 f i libucrt:output.obj
 0001:0003de40       ?type_case_p@?$output_processor@DV?$string_output_adapter@D@__crt_stdio_output@@V?$standard_base@DV?$string_output_adapter@D@__crt_stdio_output@@@2@@__crt_stdio_output@@AEAA_NXZ 000000014003ee40 f i libucrt:output.obj
 0001:0003de5c       ?type_case_p@?$output_processor@_WV?$stream_output_adapter@_W@__crt_stdio_output@@V?$format_validation_base@_WV?$stream_output_adapter@_W@__crt_stdio_output@@@2@@__crt_stdio_output@@AEAA_NXZ 000000014003ee5c f i libucrt:output.obj
 0001:0003de78       ?type_case_p@?$output_processor@_WV?$stream_output_adapter@_W@__crt_stdio_output@@V?$positional_parameter_base@_WV?$stream_output_adapter@_W@__crt_stdio_output@@@2@@__crt_stdio_output@@AEAA_NXZ 000000014003ee78 f i libucrt:output.obj
 0001:0003de94       ?type_case_p@?$output_processor@_WV?$stream_output_adapter@_W@__crt_stdio_output@@V?$standard_base@_WV?$stream_output_adapter@_W@__crt_stdio_output@@@2@@__crt_stdio_output@@AEAA_NXZ 000000014003ee94 f i libucrt:output.obj
 0001:0003deb0       ?type_case_p@?$output_processor@_WV?$string_output_adapter@_W@__crt_stdio_output@@V?$format_validation_base@_WV?$string_output_adapter@_W@__crt_stdio_output@@@2@@__crt_stdio_output@@AEAA_NXZ 000000014003eeb0 f i libucrt:output.obj
 0001:0003decc       ?type_case_p@?$output_processor@_WV?$string_output_adapter@_W@__crt_stdio_output@@V?$positional_parameter_base@_WV?$string_output_adapter@_W@__crt_stdio_output@@@2@@__crt_stdio_output@@AEAA_NXZ 000000014003eecc f i libucrt:output.obj
 0001:0003dee8       ?type_case_p@?$output_processor@_WV?$string_output_adapter@_W@__crt_stdio_output@@V?$standard_base@_WV?$string_output_adapter@_W@__crt_stdio_output@@@2@@__crt_stdio_output@@AEAA_NXZ 000000014003eee8 f i libucrt:output.obj
 0001:0003df04       ?type_case_s@?$output_processor@DV?$stream_output_adapter@D@__crt_stdio_output@@V?$format_validation_base@DV?$stream_output_adapter@D@__crt_stdio_output@@@2@@__crt_stdio_output@@AEAA_NXZ 000000014003ef04 f i libucrt:output.obj
 0001:0003dfc0       ?type_case_s@?$output_processor@DV?$stream_output_adapter@D@__crt_stdio_output@@V?$positional_parameter_base@DV?$stream_output_adapter@D@__crt_stdio_output@@@2@@__crt_stdio_output@@AEAA_NXZ 000000014003efc0 f i libucrt:output.obj
 0001:0003e0a4       ?type_case_s@?$output_processor@DV?$stream_output_adapter@D@__crt_stdio_output@@V?$standard_base@DV?$stream_output_adapter@D@__crt_stdio_output@@@2@@__crt_stdio_output@@AEAA_NXZ 000000014003f0a4 f i libucrt:output.obj
 0001:0003e160       ?type_case_s@?$output_processor@DV?$string_output_adapter@D@__crt_stdio_output@@V?$format_validation_base@DV?$string_output_adapter@D@__crt_stdio_output@@@2@@__crt_stdio_output@@AEAA_NXZ 000000014003f160 f i libucrt:output.obj
 0001:0003e21c       ?type_case_s@?$output_processor@DV?$string_output_adapter@D@__crt_stdio_output@@V?$positional_parameter_base@DV?$string_output_adapter@D@__crt_stdio_output@@@2@@__crt_stdio_output@@AEAA_NXZ 000000014003f21c f i libucrt:output.obj
 0001:0003e300       ?type_case_s@?$output_processor@DV?$string_output_adapter@D@__crt_stdio_output@@V?$standard_base@DV?$string_output_adapter@D@__crt_stdio_output@@@2@@__crt_stdio_output@@AEAA_NXZ 000000014003f300 f i libucrt:output.obj
 0001:0003e3bc       ?type_case_s@?$output_processor@_WV?$stream_output_adapter@_W@__crt_stdio_output@@V?$format_validation_base@_WV?$stream_output_adapter@_W@__crt_stdio_output@@@2@@__crt_stdio_output@@AEAA_NXZ 000000014003f3bc f i libucrt:output.obj
 0001:0003e4b4       ?type_case_s@?$output_processor@_WV?$stream_output_adapter@_W@__crt_stdio_output@@V?$positional_parameter_base@_WV?$stream_output_adapter@_W@__crt_stdio_output@@@2@@__crt_stdio_output@@AEAA_NXZ 000000014003f4b4 f i libucrt:output.obj
 0001:0003e5d8       ?type_case_s@?$output_processor@_WV?$stream_output_adapter@_W@__crt_stdio_output@@V?$standard_base@_WV?$stream_output_adapter@_W@__crt_stdio_output@@@2@@__crt_stdio_output@@AEAA_NXZ 000000014003f5d8 f i libucrt:output.obj
 0001:0003e6d0       ?type_case_s@?$output_processor@_WV?$string_output_adapter@_W@__crt_stdio_output@@V?$format_validation_base@_WV?$string_output_adapter@_W@__crt_stdio_output@@@2@@__crt_stdio_output@@AEAA_NXZ 000000014003f6d0 f i libucrt:output.obj
 0001:0003e7c8       ?type_case_s@?$output_processor@_WV?$string_output_adapter@_W@__crt_stdio_output@@V?$positional_parameter_base@_WV?$string_output_adapter@_W@__crt_stdio_output@@@2@@__crt_stdio_output@@AEAA_NXZ 000000014003f7c8 f i libucrt:output.obj
 0001:0003e8ec       ?type_case_s@?$output_processor@_WV?$string_output_adapter@_W@__crt_stdio_output@@V?$standard_base@_WV?$string_output_adapter@_W@__crt_stdio_output@@@2@@__crt_stdio_output@@AEAA_NXZ 000000014003f8ec f i libucrt:output.obj
 0001:0003e9e4       ?type_case_s_compute_narrow_string_length@?$output_processor@DV?$stream_output_adapter@D@__crt_stdio_output@@V?$format_validation_base@DV?$stream_output_adapter@D@__crt_stdio_output@@@2@@__crt_stdio_output@@AEBAHHD@Z 000000014003f9e4 f i libucrt:output.obj
 0001:0003e9f4       ?type_case_s_compute_narrow_string_length@?$output_processor@DV?$stream_output_adapter@D@__crt_stdio_output@@V?$positional_parameter_base@DV?$stream_output_adapter@D@__crt_stdio_output@@@2@@__crt_stdio_output@@AEBAHHD@Z 000000014003f9f4 f i libucrt:output.obj
 0001:0003ea04       ?type_case_s_compute_narrow_string_length@?$output_processor@DV?$stream_output_adapter@D@__crt_stdio_output@@V?$standard_base@DV?$stream_output_adapter@D@__crt_stdio_output@@@2@@__crt_stdio_output@@AEBAHHD@Z 000000014003fa04 f i libucrt:output.obj
 0001:0003ea14       ?type_case_s_compute_narrow_string_length@?$output_processor@DV?$string_output_adapter@D@__crt_stdio_output@@V?$format_validation_base@DV?$string_output_adapter@D@__crt_stdio_output@@@2@@__crt_stdio_output@@AEBAHHD@Z 000000014003fa14 f i libucrt:output.obj
 0001:0003ea24       ?type_case_s_compute_narrow_string_length@?$output_processor@DV?$string_output_adapter@D@__crt_stdio_output@@V?$positional_parameter_base@DV?$string_output_adapter@D@__crt_stdio_output@@@2@@__crt_stdio_output@@AEBAHHD@Z 000000014003fa24 f i libucrt:output.obj
 0001:0003ea34       ?type_case_s_compute_narrow_string_length@?$output_processor@DV?$string_output_adapter@D@__crt_stdio_output@@V?$standard_base@DV?$string_output_adapter@D@__crt_stdio_output@@@2@@__crt_stdio_output@@AEBAHHD@Z 000000014003fa34 f i libucrt:output.obj
 0001:0003ea44       ?type_case_s_compute_narrow_string_length@?$output_processor@_WV?$stream_output_adapter@_W@__crt_stdio_output@@V?$format_validation_base@_WV?$stream_output_adapter@_W@__crt_stdio_output@@@2@@__crt_stdio_output@@AEBAHH_W@Z 000000014003fa44 f i libucrt:output.obj
 0001:0003eaac       ?type_case_s_compute_narrow_string_length@?$output_processor@_WV?$stream_output_adapter@_W@__crt_stdio_output@@V?$positional_parameter_base@_WV?$stream_output_adapter@_W@__crt_stdio_output@@@2@@__crt_stdio_output@@AEBAHH_W@Z 000000014003faac f i libucrt:output.obj
 0001:0003eb14       ?type_case_s_compute_narrow_string_length@?$output_processor@_WV?$stream_output_adapter@_W@__crt_stdio_output@@V?$standard_base@_WV?$stream_output_adapter@_W@__crt_stdio_output@@@2@@__crt_stdio_output@@AEBAHH_W@Z 000000014003fb14 f i libucrt:output.obj
 0001:0003eb7c       ?type_case_s_compute_narrow_string_length@?$output_processor@_WV?$string_output_adapter@_W@__crt_stdio_output@@V?$format_validation_base@_WV?$string_output_adapter@_W@__crt_stdio_output@@@2@@__crt_stdio_output@@AEBAHH_W@Z 000000014003fb7c f i libucrt:output.obj
 0001:0003ebe4       ?type_case_s_compute_narrow_string_length@?$output_processor@_WV?$string_output_adapter@_W@__crt_stdio_output@@V?$positional_parameter_base@_WV?$string_output_adapter@_W@__crt_stdio_output@@@2@@__crt_stdio_output@@AEBAHH_W@Z 000000014003fbe4 f i libucrt:output.obj
 0001:0003ec4c       ?type_case_s_compute_narrow_string_length@?$output_processor@_WV?$string_output_adapter@_W@__crt_stdio_output@@V?$standard_base@_WV?$string_output_adapter@_W@__crt_stdio_output@@@2@@__crt_stdio_output@@AEBAHH_W@Z 000000014003fc4c f i libucrt:output.obj
 0001:0003ecb4       ?type_case_u@?$output_processor@DV?$stream_output_adapter@D@__crt_stdio_output@@V?$format_validation_base@DV?$stream_output_adapter@D@__crt_stdio_output@@@2@@__crt_stdio_output@@AEAA_NXZ 000000014003fcb4 f i libucrt:output.obj
 0001:0003ecc4       ?type_case_u@?$output_processor@DV?$stream_output_adapter@D@__crt_stdio_output@@V?$positional_parameter_base@DV?$stream_output_adapter@D@__crt_stdio_output@@@2@@__crt_stdio_output@@AEAA_NXZ 000000014003fcc4 f i libucrt:output.obj
 0001:0003ecd4       ?type_case_u@?$output_processor@DV?$stream_output_adapter@D@__crt_stdio_output@@V?$standard_base@DV?$stream_output_adapter@D@__crt_stdio_output@@@2@@__crt_stdio_output@@AEAA_NXZ 000000014003fcd4 f i libucrt:output.obj
 0001:0003ece4       ?type_case_u@?$output_processor@DV?$string_output_adapter@D@__crt_stdio_output@@V?$format_validation_base@DV?$string_output_adapter@D@__crt_stdio_output@@@2@@__crt_stdio_output@@AEAA_NXZ 000000014003fce4 f i libucrt:output.obj
 0001:0003ecf4       ?type_case_u@?$output_processor@DV?$string_output_adapter@D@__crt_stdio_output@@V?$positional_parameter_base@DV?$string_output_adapter@D@__crt_stdio_output@@@2@@__crt_stdio_output@@AEAA_NXZ 000000014003fcf4 f i libucrt:output.obj
 0001:0003ed04       ?type_case_u@?$output_processor@DV?$string_output_adapter@D@__crt_stdio_output@@V?$standard_base@DV?$string_output_adapter@D@__crt_stdio_output@@@2@@__crt_stdio_output@@AEAA_NXZ 000000014003fd04 f i libucrt:output.obj
 0001:0003ed14       ?type_case_u@?$output_processor@_WV?$stream_output_adapter@_W@__crt_stdio_output@@V?$format_validation_base@_WV?$stream_output_adapter@_W@__crt_stdio_output@@@2@@__crt_stdio_output@@AEAA_NXZ 000000014003fd14 f i libucrt:output.obj
 0001:0003ed24       ?type_case_u@?$output_processor@_WV?$stream_output_adapter@_W@__crt_stdio_output@@V?$positional_parameter_base@_WV?$stream_output_adapter@_W@__crt_stdio_output@@@2@@__crt_stdio_output@@AEAA_NXZ 000000014003fd24 f i libucrt:output.obj
 0001:0003ed34       ?type_case_u@?$output_processor@_WV?$stream_output_adapter@_W@__crt_stdio_output@@V?$standard_base@_WV?$stream_output_adapter@_W@__crt_stdio_output@@@2@@__crt_stdio_output@@AEAA_NXZ 000000014003fd34 f i libucrt:output.obj
 0001:0003ed44       ?type_case_u@?$output_processor@_WV?$string_output_adapter@_W@__crt_stdio_output@@V?$format_validation_base@_WV?$string_output_adapter@_W@__crt_stdio_output@@@2@@__crt_stdio_output@@AEAA_NXZ 000000014003fd44 f i libucrt:output.obj
 0001:0003ed54       ?type_case_u@?$output_processor@_WV?$string_output_adapter@_W@__crt_stdio_output@@V?$positional_parameter_base@_WV?$string_output_adapter@_W@__crt_stdio_output@@@2@@__crt_stdio_output@@AEAA_NXZ 000000014003fd54 f i libucrt:output.obj
 0001:0003ed64       ?type_case_u@?$output_processor@_WV?$string_output_adapter@_W@__crt_stdio_output@@V?$standard_base@_WV?$string_output_adapter@_W@__crt_stdio_output@@@2@@__crt_stdio_output@@AEAA_NXZ 000000014003fd64 f i libucrt:output.obj
 0001:0003ed74       ?type_case_x@?$output_processor@DV?$stream_output_adapter@D@__crt_stdio_output@@V?$format_validation_base@DV?$stream_output_adapter@D@__crt_stdio_output@@@2@@__crt_stdio_output@@AEAA_NXZ 000000014003fd74 f i libucrt:output.obj
 0001:0003ed84       ?type_case_x@?$output_processor@DV?$stream_output_adapter@D@__crt_stdio_output@@V?$positional_parameter_base@DV?$stream_output_adapter@D@__crt_stdio_output@@@2@@__crt_stdio_output@@AEAA_NXZ 000000014003fd84 f i libucrt:output.obj
 0001:0003ed94       ?type_case_x@?$output_processor@DV?$stream_output_adapter@D@__crt_stdio_output@@V?$standard_base@DV?$stream_output_adapter@D@__crt_stdio_output@@@2@@__crt_stdio_output@@AEAA_NXZ 000000014003fd94 f i libucrt:output.obj
 0001:0003eda4       ?type_case_x@?$output_processor@DV?$string_output_adapter@D@__crt_stdio_output@@V?$format_validation_base@DV?$string_output_adapter@D@__crt_stdio_output@@@2@@__crt_stdio_output@@AEAA_NXZ 000000014003fda4 f i libucrt:output.obj
 0001:0003edb4       ?type_case_x@?$output_processor@DV?$string_output_adapter@D@__crt_stdio_output@@V?$positional_parameter_base@DV?$string_output_adapter@D@__crt_stdio_output@@@2@@__crt_stdio_output@@AEAA_NXZ 000000014003fdb4 f i libucrt:output.obj
 0001:0003edc4       ?type_case_x@?$output_processor@DV?$string_output_adapter@D@__crt_stdio_output@@V?$standard_base@DV?$string_output_adapter@D@__crt_stdio_output@@@2@@__crt_stdio_output@@AEAA_NXZ 000000014003fdc4 f i libucrt:output.obj
 0001:0003edd4       ?type_case_x@?$output_processor@_WV?$stream_output_adapter@_W@__crt_stdio_output@@V?$format_validation_base@_WV?$stream_output_adapter@_W@__crt_stdio_output@@@2@@__crt_stdio_output@@AEAA_NXZ 000000014003fdd4 f i libucrt:output.obj
 0001:0003ede4       ?type_case_x@?$output_processor@_WV?$stream_output_adapter@_W@__crt_stdio_output@@V?$positional_parameter_base@_WV?$stream_output_adapter@_W@__crt_stdio_output@@@2@@__crt_stdio_output@@AEAA_NXZ 000000014003fde4 f i libucrt:output.obj
 0001:0003edf4       ?type_case_x@?$output_processor@_WV?$stream_output_adapter@_W@__crt_stdio_output@@V?$standard_base@_WV?$stream_output_adapter@_W@__crt_stdio_output@@@2@@__crt_stdio_output@@AEAA_NXZ 000000014003fdf4 f i libucrt:output.obj
 0001:0003ee04       ?type_case_x@?$output_processor@_WV?$string_output_adapter@_W@__crt_stdio_output@@V?$format_validation_base@_WV?$string_output_adapter@_W@__crt_stdio_output@@@2@@__crt_stdio_output@@AEAA_NXZ 000000014003fe04 f i libucrt:output.obj
 0001:0003ee14       ?type_case_x@?$output_processor@_WV?$string_output_adapter@_W@__crt_stdio_output@@V?$positional_parameter_base@_WV?$string_output_adapter@_W@__crt_stdio_output@@@2@@__crt_stdio_output@@AEAA_NXZ 000000014003fe14 f i libucrt:output.obj
 0001:0003ee24       ?type_case_x@?$output_processor@_WV?$string_output_adapter@_W@__crt_stdio_output@@V?$standard_base@_WV?$string_output_adapter@_W@__crt_stdio_output@@@2@@__crt_stdio_output@@AEAA_NXZ 000000014003fe24 f i libucrt:output.obj
 0001:0003ee34       ?unset_flag@?$output_processor@DV?$stream_output_adapter@D@__crt_stdio_output@@V?$format_validation_base@DV?$stream_output_adapter@D@__crt_stdio_output@@@2@@__crt_stdio_output@@AEAAXI@Z 000000014003fe34 f i libucrt:output.obj
 0001:0003ee3c       ?unset_flag@?$output_processor@DV?$stream_output_adapter@D@__crt_stdio_output@@V?$positional_parameter_base@DV?$stream_output_adapter@D@__crt_stdio_output@@@2@@__crt_stdio_output@@AEAAXI@Z 000000014003fe3c f i libucrt:output.obj
 0001:0003ee44       ?unset_flag@?$output_processor@DV?$stream_output_adapter@D@__crt_stdio_output@@V?$standard_base@DV?$stream_output_adapter@D@__crt_stdio_output@@@2@@__crt_stdio_output@@AEAAXI@Z 000000014003fe44 f i libucrt:output.obj
 0001:0003ee4c       ?unset_flag@?$output_processor@DV?$string_output_adapter@D@__crt_stdio_output@@V?$format_validation_base@DV?$string_output_adapter@D@__crt_stdio_output@@@2@@__crt_stdio_output@@AEAAXI@Z 000000014003fe4c f i libucrt:output.obj
 0001:0003ee54       ?unset_flag@?$output_processor@DV?$string_output_adapter@D@__crt_stdio_output@@V?$positional_parameter_base@DV?$string_output_adapter@D@__crt_stdio_output@@@2@@__crt_stdio_output@@AEAAXI@Z 000000014003fe54 f i libucrt:output.obj
 0001:0003ee5c       ?unset_flag@?$output_processor@DV?$string_output_adapter@D@__crt_stdio_output@@V?$standard_base@DV?$string_output_adapter@D@__crt_stdio_output@@@2@@__crt_stdio_output@@AEAAXI@Z 000000014003fe5c f i libucrt:output.obj
 0001:0003ee64       ?unset_flag@?$output_processor@_WV?$stream_output_adapter@_W@__crt_stdio_output@@V?$format_validation_base@_WV?$stream_output_adapter@_W@__crt_stdio_output@@@2@@__crt_stdio_output@@AEAAXI@Z 000000014003fe64 f i libucrt:output.obj
 0001:0003ee6c       ?unset_flag@?$output_processor@_WV?$stream_output_adapter@_W@__crt_stdio_output@@V?$positional_parameter_base@_WV?$stream_output_adapter@_W@__crt_stdio_output@@@2@@__crt_stdio_output@@AEAAXI@Z 000000014003fe6c f i libucrt:output.obj
 0001:0003ee74       ?unset_flag@?$output_processor@_WV?$stream_output_adapter@_W@__crt_stdio_output@@V?$standard_base@_WV?$stream_output_adapter@_W@__crt_stdio_output@@@2@@__crt_stdio_output@@AEAAXI@Z 000000014003fe74 f i libucrt:output.obj
 0001:0003ee7c       ?unset_flag@?$output_processor@_WV?$string_output_adapter@_W@__crt_stdio_output@@V?$format_validation_base@_WV?$string_output_adapter@_W@__crt_stdio_output@@@2@@__crt_stdio_output@@AEAAXI@Z 000000014003fe7c f i libucrt:output.obj
 0001:0003ee84       ?unset_flag@?$output_processor@_WV?$string_output_adapter@_W@__crt_stdio_output@@V?$positional_parameter_base@_WV?$string_output_adapter@_W@__crt_stdio_output@@@2@@__crt_stdio_output@@AEAAXI@Z 000000014003fe84 f i libucrt:output.obj
 0001:0003ee8c       ?unset_flag@?$output_processor@_WV?$string_output_adapter@_W@__crt_stdio_output@@V?$standard_base@_WV?$string_output_adapter@_W@__crt_stdio_output@@@2@@__crt_stdio_output@@AEAAXI@Z 000000014003fe8c f i libucrt:output.obj
 0001:0003ee94       ?update_field_width@?$positional_parameter_base@DV?$stream_output_adapter@D@__crt_stdio_output@@@__crt_stdio_output@@IEAA_NXZ 000000014003fe94 f i libucrt:output.obj
 0001:0003eff0       ?update_field_width@?$positional_parameter_base@DV?$string_output_adapter@D@__crt_stdio_output@@@__crt_stdio_output@@IEAA_NXZ 000000014003fff0 f i libucrt:output.obj
 0001:0003f14c       ?update_field_width@?$positional_parameter_base@_WV?$stream_output_adapter@_W@__crt_stdio_output@@@__crt_stdio_output@@IEAA_NXZ 000000014004014c f i libucrt:output.obj
 0001:0003f2ac       ?update_field_width@?$positional_parameter_base@_WV?$string_output_adapter@_W@__crt_stdio_output@@@__crt_stdio_output@@IEAA_NXZ 00000001400402ac f i libucrt:output.obj
 0001:0003f40c       ?update_field_width@?$standard_base@DV?$stream_output_adapter@D@__crt_stdio_output@@@__crt_stdio_output@@IEAA_NXZ 000000014004040c f i libucrt:output.obj
 0001:0003f424       ?update_field_width@?$standard_base@DV?$string_output_adapter@D@__crt_stdio_output@@@__crt_stdio_output@@IEAA_NXZ 0000000140040424 f i libucrt:output.obj
 0001:0003f43c       ?update_field_width@?$standard_base@_WV?$stream_output_adapter@_W@__crt_stdio_output@@@__crt_stdio_output@@IEAA_NXZ 000000014004043c f i libucrt:output.obj
 0001:0003f454       ?update_field_width@?$standard_base@_WV?$string_output_adapter@_W@__crt_stdio_output@@@__crt_stdio_output@@IEAA_NXZ 0000000140040454 f i libucrt:output.obj
 0001:0003f46c       ?update_precision@?$positional_parameter_base@DV?$stream_output_adapter@D@__crt_stdio_output@@@__crt_stdio_output@@IEAA_NXZ 000000014004046c f i libucrt:output.obj
 0001:0003f5c8       ?update_precision@?$positional_parameter_base@DV?$string_output_adapter@D@__crt_stdio_output@@@__crt_stdio_output@@IEAA_NXZ 00000001400405c8 f i libucrt:output.obj
 0001:0003f724       ?update_precision@?$positional_parameter_base@_WV?$stream_output_adapter@_W@__crt_stdio_output@@@__crt_stdio_output@@IEAA_NXZ 0000000140040724 f i libucrt:output.obj
 0001:0003f884       ?update_precision@?$positional_parameter_base@_WV?$string_output_adapter@_W@__crt_stdio_output@@@__crt_stdio_output@@IEAA_NXZ 0000000140040884 f i libucrt:output.obj
 0001:0003f9e4       ?update_precision@?$standard_base@DV?$stream_output_adapter@D@__crt_stdio_output@@@__crt_stdio_output@@IEAA_NXZ 00000001400409e4 f i libucrt:output.obj
 0001:0003f9fc       ?update_precision@?$standard_base@DV?$string_output_adapter@D@__crt_stdio_output@@@__crt_stdio_output@@IEAA_NXZ 00000001400409fc f i libucrt:output.obj
 0001:0003fa14       ?update_precision@?$standard_base@_WV?$stream_output_adapter@_W@__crt_stdio_output@@@__crt_stdio_output@@IEAA_NXZ 0000000140040a14 f i libucrt:output.obj
 0001:0003fa2c       ?update_precision@?$standard_base@_WV?$string_output_adapter@_W@__crt_stdio_output@@@__crt_stdio_output@@IEAA_NXZ 0000000140040a2c f i libucrt:output.obj
 0001:0003fa44       ?validate@?$stream_output_adapter@D@__crt_stdio_output@@QEBA_NXZ 0000000140040a44 f i libucrt:output.obj
 0001:0003fa7c       ?validate@?$stream_output_adapter@_W@__crt_stdio_output@@QEBA_NXZ 0000000140040a7c f i libucrt:output.obj
 0001:0003faac       ?validate@?$string_output_adapter@D@__crt_stdio_output@@QEBA_NXZ 0000000140040aac f i libucrt:output.obj
 0001:0003fadc       ?validate@?$string_output_adapter@_W@__crt_stdio_output@@QEBA_NXZ 0000000140040adc f i libucrt:output.obj
 0001:0003fb0c       ?validate_and_store_parameter_data@?$positional_parameter_base@DV?$stream_output_adapter@D@__crt_stdio_output@@@__crt_stdio_output@@AEAA_NAEAUparameter_data@12@W4parameter_type@12@DW4length_modifier@2@@Z 0000000140040b0c f i libucrt:output.obj
 0001:0003fb5c       ?validate_and_store_parameter_data@?$positional_parameter_base@DV?$string_output_adapter@D@__crt_stdio_output@@@__crt_stdio_output@@AEAA_NAEAUparameter_data@12@W4parameter_type@12@DW4length_modifier@2@@Z 0000000140040b5c f i libucrt:output.obj
 0001:0003fbac       ?validate_and_store_parameter_data@?$positional_parameter_base@_WV?$stream_output_adapter@_W@__crt_stdio_output@@@__crt_stdio_output@@AEAA_NAEAUparameter_data@12@W4parameter_type@12@_WW4length_modifier@2@@Z 0000000140040bac f i libucrt:output.obj
 0001:0003fbfc       ?validate_and_store_parameter_data@?$positional_parameter_base@_WV?$string_output_adapter@_W@__crt_stdio_output@@@__crt_stdio_output@@AEAA_NAEAUparameter_data@12@W4parameter_type@12@_WW4length_modifier@2@@Z 0000000140040bfc f i libucrt:output.obj
 0001:0003fc4c       ?validate_and_update_state_at_beginning_of_format_character@?$positional_parameter_base@DV?$stream_output_adapter@D@__crt_stdio_output@@@__crt_stdio_output@@IEAA_NXZ 0000000140040c4c f i libucrt:output.obj
 0001:0003fd9c       ?validate_and_update_state_at_beginning_of_format_character@?$positional_parameter_base@DV?$string_output_adapter@D@__crt_stdio_output@@@__crt_stdio_output@@IEAA_NXZ 0000000140040d9c f i libucrt:output.obj
 0001:0003feec       ?validate_and_update_state_at_beginning_of_format_character@?$positional_parameter_base@_WV?$stream_output_adapter@_W@__crt_stdio_output@@@__crt_stdio_output@@IEAA_NXZ 0000000140040eec f i libucrt:output.obj
 0001:00040048       ?validate_and_update_state_at_beginning_of_format_character@?$positional_parameter_base@_WV?$string_output_adapter@_W@__crt_stdio_output@@@__crt_stdio_output@@IEAA_NXZ 0000000140041048 f i libucrt:output.obj
 0001:000401a4       ?validate_and_update_state_at_beginning_of_format_character@?$standard_base@DV?$stream_output_adapter@D@__crt_stdio_output@@@__crt_stdio_output@@IEAA_NXZ 00000001400411a4 f i libucrt:output.obj
 0001:000401a8       ?validate_and_update_state_at_beginning_of_format_character@?$standard_base@DV?$string_output_adapter@D@__crt_stdio_output@@@__crt_stdio_output@@IEAA_NXZ 00000001400411a8 f i libucrt:output.obj
 0001:000401ac       ?validate_and_update_state_at_beginning_of_format_character@?$standard_base@_WV?$stream_output_adapter@_W@__crt_stdio_output@@@__crt_stdio_output@@IEAA_NXZ 00000001400411ac f i libucrt:output.obj
 0001:000401b0       ?validate_and_update_state_at_beginning_of_format_character@?$standard_base@_WV?$string_output_adapter@_W@__crt_stdio_output@@@__crt_stdio_output@@IEAA_NXZ 00000001400411b0 f i libucrt:output.obj
 0001:000401b4       ?validate_and_update_state_at_end_of_format_string@?$format_validation_base@DV?$stream_output_adapter@D@__crt_stdio_output@@@__crt_stdio_output@@IEBA_NXZ 00000001400411b4 f i libucrt:output.obj
 0001:000401ec       ?validate_and_update_state_at_end_of_format_string@?$format_validation_base@DV?$string_output_adapter@D@__crt_stdio_output@@@__crt_stdio_output@@IEBA_NXZ 00000001400411ec f i libucrt:output.obj
 0001:00040224       ?validate_and_update_state_at_end_of_format_string@?$format_validation_base@_WV?$stream_output_adapter@_W@__crt_stdio_output@@@__crt_stdio_output@@IEBA_NXZ 0000000140041224 f i libucrt:output.obj
 0001:0004025c       ?validate_and_update_state_at_end_of_format_string@?$format_validation_base@_WV?$string_output_adapter@_W@__crt_stdio_output@@@__crt_stdio_output@@IEBA_NXZ 000000014004125c f i libucrt:output.obj
 0001:00040294       ?validate_and_update_state_at_end_of_format_string@?$positional_parameter_base@DV?$stream_output_adapter@D@__crt_stdio_output@@@__crt_stdio_output@@IEAA_NXZ 0000000140041294 f i libucrt:output.obj
 0001:00040358       ?validate_and_update_state_at_end_of_format_string@?$positional_parameter_base@DV?$string_output_adapter@D@__crt_stdio_output@@@__crt_stdio_output@@IEAA_NXZ 0000000140041358 f i libucrt:output.obj
 0001:0004041c       ?validate_and_update_state_at_end_of_format_string@?$positional_parameter_base@_WV?$stream_output_adapter@_W@__crt_stdio_output@@@__crt_stdio_output@@IEAA_NXZ 000000014004141c f i libucrt:output.obj
 0001:000404e0       ?validate_and_update_state_at_end_of_format_string@?$positional_parameter_base@_WV?$string_output_adapter@_W@__crt_stdio_output@@@__crt_stdio_output@@IEAA_NXZ 00000001400414e0 f i libucrt:output.obj
 0001:000405a4       ?validate_and_update_state_at_end_of_format_string@?$standard_base@DV?$stream_output_adapter@D@__crt_stdio_output@@@__crt_stdio_output@@IEBA_NXZ 00000001400415a4 f i libucrt:output.obj
 0001:000405a8       ?validate_and_update_state_at_end_of_format_string@?$standard_base@DV?$string_output_adapter@D@__crt_stdio_output@@@__crt_stdio_output@@IEBA_NXZ 00000001400415a8 f i libucrt:output.obj
 0001:000405ac       ?validate_and_update_state_at_end_of_format_string@?$standard_base@_WV?$stream_output_adapter@_W@__crt_stdio_output@@@__crt_stdio_output@@IEBA_NXZ 00000001400415ac f i libucrt:output.obj
 0001:000405b0       ?validate_and_update_state_at_end_of_format_string@?$standard_base@_WV?$string_output_adapter@_W@__crt_stdio_output@@@__crt_stdio_output@@IEBA_NXZ 00000001400415b0 f i libucrt:output.obj
 0001:000405b4       ?validate_state_for_type_case_a@?$positional_parameter_base@DV?$stream_output_adapter@D@__crt_stdio_output@@@__crt_stdio_output@@IEAA_NXZ 00000001400415b4 f i libucrt:output.obj
 0001:00040678       ?validate_state_for_type_case_a@?$positional_parameter_base@DV?$string_output_adapter@D@__crt_stdio_output@@@__crt_stdio_output@@IEAA_NXZ 0000000140041678 f i libucrt:output.obj
 0001:0004073c       ?validate_state_for_type_case_a@?$positional_parameter_base@_WV?$stream_output_adapter@_W@__crt_stdio_output@@@__crt_stdio_output@@IEAA_NXZ 000000014004173c f i libucrt:output.obj
 0001:00040800       ?validate_state_for_type_case_a@?$positional_parameter_base@_WV?$string_output_adapter@_W@__crt_stdio_output@@@__crt_stdio_output@@IEAA_NXZ 0000000140041800 f i libucrt:output.obj
 0001:000408c4       ?validate_state_for_type_case_a@?$standard_base@DV?$stream_output_adapter@D@__crt_stdio_output@@@__crt_stdio_output@@IEBA_NXZ 00000001400418c4 f i libucrt:output.obj
 0001:000408c8       ?validate_state_for_type_case_a@?$standard_base@DV?$string_output_adapter@D@__crt_stdio_output@@@__crt_stdio_output@@IEBA_NXZ 00000001400418c8 f i libucrt:output.obj
 0001:000408cc       ?validate_state_for_type_case_a@?$standard_base@_WV?$stream_output_adapter@_W@__crt_stdio_output@@@__crt_stdio_output@@IEBA_NXZ 00000001400418cc f i libucrt:output.obj
 0001:000408d0       ?validate_state_for_type_case_a@?$standard_base@_WV?$string_output_adapter@_W@__crt_stdio_output@@@__crt_stdio_output@@IEBA_NXZ 00000001400418d0 f i libucrt:output.obj
 0001:000408d4       ?validate_stream_is_ansi_if_required@?$__acrt_stdio_char_traits@D@@SA_NQEAU_iobuf@@@Z 00000001400418d4 f i libucrt:output.obj
 0001:00040994       ?validate_stream_is_ansi_if_required@?$__acrt_stdio_char_traits@_W@@SA_NQEAU_iobuf@@@Z 0000000140041994 f i libucrt:output.obj
 0001:00040998       ?wide_null_string@?$output_processor@DV?$stream_output_adapter@D@__crt_stdio_output@@V?$format_validation_base@DV?$stream_output_adapter@D@__crt_stdio_output@@@2@@__crt_stdio_output@@CAPEA_WXZ 0000000140041998 f i libucrt:output.obj
 0001:000409a4       ?wide_null_string@?$output_processor@DV?$stream_output_adapter@D@__crt_stdio_output@@V?$positional_parameter_base@DV?$stream_output_adapter@D@__crt_stdio_output@@@2@@__crt_stdio_output@@CAPEA_WXZ 00000001400419a4 f i libucrt:output.obj
 0001:000409b0       ?wide_null_string@?$output_processor@DV?$stream_output_adapter@D@__crt_stdio_output@@V?$standard_base@DV?$stream_output_adapter@D@__crt_stdio_output@@@2@@__crt_stdio_output@@CAPEA_WXZ 00000001400419b0 f i libucrt:output.obj
 0001:000409bc       ?wide_null_string@?$output_processor@DV?$string_output_adapter@D@__crt_stdio_output@@V?$format_validation_base@DV?$string_output_adapter@D@__crt_stdio_output@@@2@@__crt_stdio_output@@CAPEA_WXZ 00000001400419bc f i libucrt:output.obj
 0001:000409c8       ?wide_null_string@?$output_processor@DV?$string_output_adapter@D@__crt_stdio_output@@V?$positional_parameter_base@DV?$string_output_adapter@D@__crt_stdio_output@@@2@@__crt_stdio_output@@CAPEA_WXZ 00000001400419c8 f i libucrt:output.obj
 0001:000409d4       ?wide_null_string@?$output_processor@DV?$string_output_adapter@D@__crt_stdio_output@@V?$standard_base@DV?$string_output_adapter@D@__crt_stdio_output@@@2@@__crt_stdio_output@@CAPEA_WXZ 00000001400419d4 f i libucrt:output.obj
 0001:000409e0       ?wide_null_string@?$output_processor@_WV?$stream_output_adapter@_W@__crt_stdio_output@@V?$format_validation_base@_WV?$stream_output_adapter@_W@__crt_stdio_output@@@2@@__crt_stdio_output@@CAPEA_WXZ 00000001400419e0 f i libucrt:output.obj
 0001:000409ec       ?wide_null_string@?$output_processor@_WV?$stream_output_adapter@_W@__crt_stdio_output@@V?$positional_parameter_base@_WV?$stream_output_adapter@_W@__crt_stdio_output@@@2@@__crt_stdio_output@@CAPEA_WXZ 00000001400419ec f i libucrt:output.obj
 0001:000409f8       ?wide_null_string@?$output_processor@_WV?$stream_output_adapter@_W@__crt_stdio_output@@V?$standard_base@_WV?$stream_output_adapter@_W@__crt_stdio_output@@@2@@__crt_stdio_output@@CAPEA_WXZ 00000001400419f8 f i libucrt:output.obj
 0001:00040a04       ?wide_null_string@?$output_processor@_WV?$string_output_adapter@_W@__crt_stdio_output@@V?$format_validation_base@_WV?$string_output_adapter@_W@__crt_stdio_output@@@2@@__crt_stdio_output@@CAPEA_WXZ 0000000140041a04 f i libucrt:output.obj
 0001:00040a10       ?wide_null_string@?$output_processor@_WV?$string_output_adapter@_W@__crt_stdio_output@@V?$positional_parameter_base@_WV?$string_output_adapter@_W@__crt_stdio_output@@@2@@__crt_stdio_output@@CAPEA_WXZ 0000000140041a10 f i libucrt:output.obj
 0001:00040a1c       ?wide_null_string@?$output_processor@_WV?$string_output_adapter@_W@__crt_stdio_output@@V?$standard_base@_WV?$string_output_adapter@_W@__crt_stdio_output@@@2@@__crt_stdio_output@@CAPEA_WXZ 0000000140041a1c f i libucrt:output.obj
 0001:00040a28       ?write_character@?$output_adapter_common@DV?$stream_output_adapter@D@__crt_stdio_output@@@__crt_stdio_output@@QEBAXDQEAH@Z 0000000140041a28 f i libucrt:output.obj
 0001:00040a84       ?write_character@?$output_adapter_common@_WV?$stream_output_adapter@_W@__crt_stdio_output@@@__crt_stdio_output@@QEBAX_WQEAH@Z 0000000140041a84 f i libucrt:output.obj
 0001:00040ae4       ?write_character@?$string_output_adapter@D@__crt_stdio_output@@QEBA_NDQEAH@Z 0000000140041ae4 f i libucrt:output.obj
 0001:00040b3c       ?write_character@?$string_output_adapter@_W@__crt_stdio_output@@QEBA_N_WQEAH@Z 0000000140041b3c f i libucrt:output.obj
 0001:00040b98       ?write_character_without_count_update@?$stream_output_adapter@D@__crt_stdio_output@@QEBA_ND@Z 0000000140041b98 f i libucrt:output.obj
 0001:00040be4       ?write_character_without_count_update@?$stream_output_adapter@_W@__crt_stdio_output@@QEBA_N_W@Z 0000000140041be4 f i libucrt:output.obj
 0001:00040c34       ?write_stored_string_tchar@?$output_processor@DV?$stream_output_adapter@D@__crt_stdio_output@@V?$format_validation_base@DV?$stream_output_adapter@D@__crt_stdio_output@@@2@@__crt_stdio_output@@AEAA_ND@Z 0000000140041c34 f i libucrt:output.obj
 0001:00040da0       ?write_stored_string_tchar@?$output_processor@DV?$stream_output_adapter@D@__crt_stdio_output@@V?$positional_parameter_base@DV?$stream_output_adapter@D@__crt_stdio_output@@@2@@__crt_stdio_output@@AEAA_ND@Z 0000000140041da0 f i libucrt:output.obj
 0001:00040f0c       ?write_stored_string_tchar@?$output_processor@DV?$stream_output_adapter@D@__crt_stdio_output@@V?$standard_base@DV?$stream_output_adapter@D@__crt_stdio_output@@@2@@__crt_stdio_output@@AEAA_ND@Z 0000000140041f0c f i libucrt:output.obj
 0001:00041078       ?write_stored_string_tchar@?$output_processor@DV?$string_output_adapter@D@__crt_stdio_output@@V?$format_validation_base@DV?$string_output_adapter@D@__crt_stdio_output@@@2@@__crt_stdio_output@@AEAA_ND@Z 0000000140042078 f i libucrt:output.obj
 0001:00041188       ?write_stored_string_tchar@?$output_processor@DV?$string_output_adapter@D@__crt_stdio_output@@V?$positional_parameter_base@DV?$string_output_adapter@D@__crt_stdio_output@@@2@@__crt_stdio_output@@AEAA_ND@Z 0000000140042188 f i libucrt:output.obj
 0001:00041298       ?write_stored_string_tchar@?$output_processor@DV?$string_output_adapter@D@__crt_stdio_output@@V?$standard_base@DV?$string_output_adapter@D@__crt_stdio_output@@@2@@__crt_stdio_output@@AEAA_ND@Z 0000000140042298 f i libucrt:output.obj
 0001:000413a8       ?write_stored_string_tchar@?$output_processor@_WV?$stream_output_adapter@_W@__crt_stdio_output@@V?$format_validation_base@_WV?$stream_output_adapter@_W@__crt_stdio_output@@@2@@__crt_stdio_output@@AEAA_N_W@Z 00000001400423a8 f i libucrt:output.obj
 0001:000414ec       ?write_stored_string_tchar@?$output_processor@_WV?$stream_output_adapter@_W@__crt_stdio_output@@V?$positional_parameter_base@_WV?$stream_output_adapter@_W@__crt_stdio_output@@@2@@__crt_stdio_output@@AEAA_N_W@Z 00000001400424ec f i libucrt:output.obj
 0001:00041630       ?write_stored_string_tchar@?$output_processor@_WV?$stream_output_adapter@_W@__crt_stdio_output@@V?$standard_base@_WV?$stream_output_adapter@_W@__crt_stdio_output@@@2@@__crt_stdio_output@@AEAA_N_W@Z 0000000140042630 f i libucrt:output.obj
 0001:00041774       ?write_stored_string_tchar@?$output_processor@_WV?$string_output_adapter@_W@__crt_stdio_output@@V?$format_validation_base@_WV?$string_output_adapter@_W@__crt_stdio_output@@@2@@__crt_stdio_output@@AEAA_N_W@Z 0000000140042774 f i libucrt:output.obj
 0001:00041894       ?write_stored_string_tchar@?$output_processor@_WV?$string_output_adapter@_W@__crt_stdio_output@@V?$positional_parameter_base@_WV?$string_output_adapter@_W@__crt_stdio_output@@@2@@__crt_stdio_output@@AEAA_N_W@Z 0000000140042894 f i libucrt:output.obj
 0001:000419b4       ?write_stored_string_tchar@?$output_processor@_WV?$string_output_adapter@_W@__crt_stdio_output@@V?$standard_base@_WV?$string_output_adapter@_W@__crt_stdio_output@@@2@@__crt_stdio_output@@AEAA_N_W@Z 00000001400429b4 f i libucrt:output.obj
 0001:00041ad4       ?write_string@?$stream_output_adapter@D@__crt_stdio_output@@QEBAXQEBDHQEAHAEAV__crt_deferred_errno_cache@@@Z 0000000140042ad4 f i libucrt:output.obj
 0001:00041b04       ?write_string@?$stream_output_adapter@_W@__crt_stdio_output@@QEBAXQEB_WHQEAHAEAV__crt_deferred_errno_cache@@@Z 0000000140042b04 f i libucrt:output.obj
 0001:00041b34       ?write_string@?$string_output_adapter@D@__crt_stdio_output@@QEBAXQEBDHQEAHAEAV__crt_deferred_errno_cache@@@Z 0000000140042b34 f i libucrt:output.obj
 0001:00041c00       ?write_string@?$string_output_adapter@_W@__crt_stdio_output@@QEBAXQEB_WHQEAHAEAV__crt_deferred_errno_cache@@@Z 0000000140042c00 f i libucrt:output.obj
 0001:00041cd0       ?write_string_impl@?$output_adapter_common@DV?$stream_output_adapter@D@__crt_stdio_output@@@__crt_stdio_output@@IEBAXQEBDHQEAHAEAV__crt_deferred_errno_cache@@@Z 0000000140042cd0 f i libucrt:output.obj
 0001:00041e04       ?write_string_impl@?$output_adapter_common@_WV?$stream_output_adapter@_W@__crt_stdio_output@@@__crt_stdio_output@@IEBAXQEB_WHQEAHAEAV__crt_deferred_errno_cache@@@Z 0000000140042e04 f i libucrt:output.obj
 0001:00041f44       __acrt_disable_global_locale_sync 0000000140042f44 f i libucrt:output.obj
 0001:00041f4c       __acrt_enable_global_locale_sync 0000000140042f4c f i libucrt:output.obj
 0001:00041f58       __acrt_isleadbyte_l_noupdate 0000000140042f58 f i libucrt:output.obj
 0001:00041f84       __acrt_locale_changed      0000000140042f84 f i libucrt:output.obj
 0001:00041f94       __acrt_locale_get_ctype_array_value 0000000140042f94 f i libucrt:output.obj
 0001:00041fb4       __stdio_common_vfprintf    0000000140042fb4 f   libucrt:output.obj
 0001:00042064       __stdio_common_vfprintf_p  0000000140043064 f   libucrt:output.obj
 0001:00042114       __stdio_common_vfprintf_s  0000000140043114 f   libucrt:output.obj
 0001:000421c4       __stdio_common_vfwprintf   00000001400431c4 f   libucrt:output.obj
 0001:00042274       __stdio_common_vfwprintf_p 0000000140043274 f   libucrt:output.obj
 0001:00042324       __stdio_common_vfwprintf_s 0000000140043324 f   libucrt:output.obj
 0001:000423d4       __stdio_common_vsnprintf_s 00000001400433d4 f   libucrt:output.obj
 0001:00042570       __stdio_common_vsnwprintf_s 0000000140043570 f   libucrt:output.obj
 0001:00042720       __stdio_common_vsprintf    0000000140043720 f   libucrt:output.obj
 0001:00042728       __stdio_common_vsprintf_p  0000000140043728 f   libucrt:output.obj
 0001:00042730       __stdio_common_vsprintf_s  0000000140043730 f   libucrt:output.obj
 0001:000427ac       __stdio_common_vswprintf   00000001400437ac f   libucrt:output.obj
 0001:000427b4       __stdio_common_vswprintf_p 00000001400437b4 f   libucrt:output.obj
 0001:000427bc       __stdio_common_vswprintf_s 00000001400437bc f   libucrt:output.obj
 0001:00042848       _ctype_fast_check_internal 0000000140043848 f i libucrt:output.obj
 0001:00042860       _isdigit_fast_internal     0000000140043860 f i libucrt:output.obj
 0001:0004287c       _tolower_fast_internal     000000014004387c f i libucrt:output.obj
 0001:000428b0       strlen                     00000001400438b0 f   libucrt:strlen.obj
 0001:00042988       ??$?RE@__crt_internal_free_policy@@QEBAXQEBE@Z 0000000140043988 f i libucrt:input.obj
 0001:00042a94       ??$assemble_floating_point_ind@M@__crt_strtox@@YAXAEAM@Z 0000000140043a94 f i libucrt:input.obj
 0001:00042a9c       ??$assemble_floating_point_ind@N@__crt_strtox@@YAXAEAN@Z 0000000140043a9c f i libucrt:input.obj
 0001:00042ab0       ??$assemble_floating_point_infinity@M@__crt_strtox@@YAX_NAEAM@Z 0000000140043ab0 f i libucrt:input.obj
 0001:00042ac4       ??$assemble_floating_point_infinity@N@__crt_strtox@@YAX_NAEAN@Z 0000000140043ac4 f i libucrt:input.obj
 0001:00042ae4       ??$assemble_floating_point_qnan@M@__crt_strtox@@YAX_NAEAM@Z 0000000140043ae4 f i libucrt:input.obj
 0001:00042af8       ??$assemble_floating_point_qnan@N@__crt_strtox@@YAX_NAEAN@Z 0000000140043af8 f i libucrt:input.obj
 0001:00042b18       ??$assemble_floating_point_snan@M@__crt_strtox@@YAX_NAEAM@Z 0000000140043b18 f i libucrt:input.obj
 0001:00042b2c       ??$assemble_floating_point_snan@N@__crt_strtox@@YAX_NAEAN@Z 0000000140043b2c f i libucrt:input.obj
 0001:00042b4c       ??$assemble_floating_point_value_t@M@__crt_strtox@@YA?AW4SLD_STATUS@@_NH_KAEAM@Z 0000000140043b4c f i libucrt:input.obj
 0001:00042b7c       ??$assemble_floating_point_value_t@N@__crt_strtox@@YA?AW4SLD_STATUS@@_NH_KAEAN@Z 0000000140043b7c f i libucrt:input.obj
 0001:00042bbc       ??$assemble_floating_point_zero@M@__crt_strtox@@YAX_NAEAM@Z 0000000140043bbc f i libucrt:input.obj
 0001:00042bc8       ??$assemble_floating_point_zero@N@__crt_strtox@@YAX_NAEAN@Z 0000000140043bc8 f i libucrt:input.obj
 0001:00042fb8       ??$convert_decimal_string_to_floating_type@M@__crt_strtox@@YA?AW4SLD_STATUS@@AEBUfloating_point_string@0@AEAM@Z 0000000140043fb8 f i libucrt:input.obj
 0001:00042fdc       ??$convert_decimal_string_to_floating_type@N@__crt_strtox@@YA?AW4SLD_STATUS@@AEBUfloating_point_string@0@AEAN@Z 0000000140043fdc f i libucrt:input.obj
 0001:00043000       ??$convert_hexadecimal_string_to_floating_type@M@__crt_strtox@@YA?AW4SLD_STATUS@@AEBUfloating_point_string@0@AEAM@Z 0000000140044000 f i libucrt:input.obj
 0001:00043024       ??$convert_hexadecimal_string_to_floating_type@N@__crt_strtox@@YA?AW4SLD_STATUS@@AEBUfloating_point_string@0@AEAN@Z 0000000140044024 f i libucrt:input.obj
 0001:00043048       ??$fill_buffer@D@?$input_processor@DV?$stream_input_adapter@D@__crt_stdio_input@@@__crt_stdio_input@@CAXQEFAD_K1@Z 0000000140044048 f i libucrt:input.obj
 0001:0004304c       ??$fill_buffer@D@?$input_processor@DV?$string_input_adapter@D@__crt_stdio_input@@@__crt_stdio_input@@CAXQEFAD_K1@Z 000000014004404c f i libucrt:input.obj
 0001:00043050       ??$fill_buffer@D@?$input_processor@_WV?$stream_input_adapter@_W@__crt_stdio_input@@@__crt_stdio_input@@CAXQEFAD_K1@Z 0000000140044050 f i libucrt:input.obj
 0001:00043054       ??$fill_buffer@D@?$input_processor@_WV?$string_input_adapter@_W@__crt_stdio_input@@@__crt_stdio_input@@CAXQEFAD_K1@Z 0000000140044054 f i libucrt:input.obj
 0001:00043058       ??$fill_buffer@_W@?$input_processor@DV?$stream_input_adapter@D@__crt_stdio_input@@@__crt_stdio_input@@CAXQEFA_W_K1@Z 0000000140044058 f i libucrt:input.obj
 0001:0004305c       ??$fill_buffer@_W@?$input_processor@DV?$string_input_adapter@D@__crt_stdio_input@@@__crt_stdio_input@@CAXQEFA_W_K1@Z 000000014004405c f i libucrt:input.obj
 0001:00043060       ??$fill_buffer@_W@?$input_processor@_WV?$stream_input_adapter@_W@__crt_stdio_input@@@__crt_stdio_input@@CAXQEFA_W_K1@Z 0000000140044060 f i libucrt:input.obj
 0001:00043064       ??$fill_buffer@_W@?$input_processor@_WV?$string_input_adapter@_W@__crt_stdio_input@@@__crt_stdio_input@@CAXQEFA_W_K1@Z 0000000140044064 f i libucrt:input.obj
 0001:00043068       ??$getc_nolock@PEAU_iobuf@@@?$__crt_char_traits@D@@SAH$$QEAPEAU_iobuf@@@Z 0000000140044068 f i libucrt:input.obj
 0001:00043074       ??$getc_nolock@PEAU_iobuf@@@?$__crt_char_traits@_W@@SAG$$QEAPEAU_iobuf@@@Z 0000000140044074 f i libucrt:input.obj
 0001:00043080       ??$is_overflow_condition@_K@__crt_strtox@@YA_NI_K@Z 0000000140044080 f i libucrt:input.obj
 0001:000430bc       ??$istspace@AEBE@?$__crt_char_traits@D@@SAHAEBE@Z 00000001400440bc f i libucrt:input.obj
 0001:000430c8       ??$istspace@AEB_W@?$__crt_char_traits@_W@@SAHAEB_W@Z 00000001400440c8 f i libucrt:input.obj
 0001:000430d8       ??$make_input_adapter_character_source@V?$stream_input_adapter@D@__crt_stdio_input@@@__crt_strtox@@YA?AV?$input_adapter_character_source@V?$stream_input_adapter@D@__crt_stdio_input@@@0@QEAV?$stream_input_adapter@D@__crt_stdio_input@@_KQEA_N@Z 00000001400440d8 f i libucrt:input.obj
 0001:000430fc       ??$make_input_adapter_character_source@V?$stream_input_adapter@_W@__crt_stdio_input@@@__crt_strtox@@YA?AV?$input_adapter_character_source@V?$stream_input_adapter@_W@__crt_stdio_input@@@0@QEAV?$stream_input_adapter@_W@__crt_stdio_input@@_KQEA_N@Z 00000001400440fc f i libucrt:input.obj
 0001:00043120       ??$make_input_adapter_character_source@V?$string_input_adapter@D@__crt_stdio_input@@@__crt_strtox@@YA?AV?$input_adapter_character_source@V?$string_input_adapter@D@__crt_stdio_input@@@0@QEAV?$string_input_adapter@D@__crt_stdio_input@@_KQEA_N@Z 0000000140044120 f i libucrt:input.obj
 0001:00043144       ??$make_input_adapter_character_source@V?$string_input_adapter@_W@__crt_stdio_input@@@__crt_strtox@@YA?AV?$input_adapter_character_source@V?$string_input_adapter@_W@__crt_stdio_input@@@0@QEAV?$string_input_adapter@_W@__crt_stdio_input@@_KQEA_N@Z 0000000140044144 f i libucrt:input.obj
 0001:00043168       ??$parse_floating_point@V?$input_adapter_character_source@V?$stream_input_adapter@D@__crt_stdio_input@@@__crt_strtox@@M@__crt_strtox@@YA?AW4SLD_STATUS@@QEAU__crt_locale_pointers@@V?$input_adapter_character_source@V?$stream_input_adapter@D@__crt_stdio_input@@@0@QEAM@Z 0000000140044168 f i libucrt:input.obj
 0001:00043238       ??$parse_floating_point@V?$input_adapter_character_source@V?$stream_input_adapter@D@__crt_stdio_input@@@__crt_strtox@@N@__crt_strtox@@YA?AW4SLD_STATUS@@QEAU__crt_locale_pointers@@V?$input_adapter_character_source@V?$stream_input_adapter@D@__crt_stdio_input@@@0@QEAN@Z 0000000140044238 f i libucrt:input.obj
 0001:00043308       ??$parse_floating_point@V?$input_adapter_character_source@V?$stream_input_adapter@_W@__crt_stdio_input@@@__crt_strtox@@M@__crt_strtox@@YA?AW4SLD_STATUS@@QEAU__crt_locale_pointers@@V?$input_adapter_character_source@V?$stream_input_adapter@_W@__crt_stdio_input@@@0@QEAM@Z 0000000140044308 f i libucrt:input.obj
 0001:000433d8       ??$parse_floating_point@V?$input_adapter_character_source@V?$stream_input_adapter@_W@__crt_stdio_input@@@__crt_strtox@@N@__crt_strtox@@YA?AW4SLD_STATUS@@QEAU__crt_locale_pointers@@V?$input_adapter_character_source@V?$stream_input_adapter@_W@__crt_stdio_input@@@0@QEAN@Z 00000001400443d8 f i libucrt:input.obj
 0001:000434a8       ??$parse_floating_point@V?$input_adapter_character_source@V?$string_input_adapter@D@__crt_stdio_input@@@__crt_strtox@@M@__crt_strtox@@YA?AW4SLD_STATUS@@QEAU__crt_locale_pointers@@V?$input_adapter_character_source@V?$string_input_adapter@D@__crt_stdio_input@@@0@QEAM@Z 00000001400444a8 f i libucrt:input.obj
 0001:00043578       ??$parse_floating_point@V?$input_adapter_character_source@V?$string_input_adapter@D@__crt_stdio_input@@@__crt_strtox@@N@__crt_strtox@@YA?AW4SLD_STATUS@@QEAU__crt_locale_pointers@@V?$input_adapter_character_source@V?$string_input_adapter@D@__crt_stdio_input@@@0@QEAN@Z 0000000140044578 f i libucrt:input.obj
 0001:00043648       ??$parse_floating_point@V?$input_adapter_character_source@V?$string_input_adapter@_W@__crt_stdio_input@@@__crt_strtox@@M@__crt_strtox@@YA?AW4SLD_STATUS@@QEAU__crt_locale_pointers@@V?$input_adapter_character_source@V?$string_input_adapter@_W@__crt_stdio_input@@@0@QEAM@Z 0000000140044648 f i libucrt:input.obj
 0001:00043718       ??$parse_floating_point@V?$input_adapter_character_source@V?$string_input_adapter@_W@__crt_stdio_input@@@__crt_strtox@@N@__crt_strtox@@YA?AW4SLD_STATUS@@QEAU__crt_locale_pointers@@V?$input_adapter_character_source@V?$string_input_adapter@_W@__crt_stdio_input@@@0@QEAN@Z 0000000140044718 f i libucrt:input.obj
 0001:000437e8       ??$parse_floating_point_from_source@V?$input_adapter_character_source@V?$stream_input_adapter@D@__crt_stdio_input@@@__crt_strtox@@@__crt_strtox@@YA?AW4floating_point_parse_result@0@QEAU__crt_locale_pointers@@AEAV?$input_adapter_character_source@V?$stream_input_adapter@D@__crt_stdio_input@@@0@AEAUfloating_point_string@0@@Z 00000001400447e8 f i libucrt:input.obj
 0001:0004424c       ??$parse_floating_point_from_source@V?$input_adapter_character_source@V?$stream_input_adapter@_W@__crt_stdio_input@@@__crt_strtox@@@__crt_strtox@@YA?AW4floating_point_parse_result@0@QEAU__crt_locale_pointers@@AEAV?$input_adapter_character_source@V?$stream_input_adapter@_W@__crt_stdio_input@@@0@AEAUfloating_point_string@0@@Z 000000014004524c f i libucrt:input.obj
 0001:00045958       ??$parse_floating_point_from_source@V?$input_adapter_character_source@V?$string_input_adapter@D@__crt_stdio_input@@@__crt_strtox@@@__crt_strtox@@YA?AW4floating_point_parse_result@0@QEAU__crt_locale_pointers@@AEAV?$input_adapter_character_source@V?$string_input_adapter@D@__crt_stdio_input@@@0@AEAUfloating_point_string@0@@Z 0000000140046958 f i libucrt:input.obj
 0001:0004639c       ??$parse_floating_point_from_source@V?$input_adapter_character_source@V?$string_input_adapter@_W@__crt_stdio_input@@@__crt_strtox@@@__crt_strtox@@YA?AW4floating_point_parse_result@0@QEAU__crt_locale_pointers@@AEAV?$input_adapter_character_source@V?$string_input_adapter@_W@__crt_stdio_input@@@0@AEAUfloating_point_string@0@@Z 000000014004739c f i libucrt:input.obj
 0001:00047a48       ??$parse_floating_point_possible_infinity@DV?$input_adapter_character_source@V?$stream_input_adapter@D@__crt_stdio_input@@@__crt_strtox@@_K@__crt_strtox@@YA?AW4floating_point_parse_result@0@AEADAEAV?$input_adapter_character_source@V?$stream_input_adapter@D@__crt_stdio_input@@@0@_K@Z 0000000140048a48 f i libucrt:input.obj
 0001:00047d54       ??$parse_floating_point_possible_infinity@DV?$input_adapter_character_source@V?$string_input_adapter@D@__crt_stdio_input@@@__crt_strtox@@_K@__crt_strtox@@YA?AW4floating_point_parse_result@0@AEADAEAV?$input_adapter_character_source@V?$string_input_adapter@D@__crt_stdio_input@@@0@_K@Z 0000000140048d54 f i libucrt:input.obj
 0001:00048018       ??$parse_floating_point_possible_infinity@_WV?$input_adapter_character_source@V?$stream_input_adapter@_W@__crt_stdio_input@@@__crt_strtox@@_K@__crt_strtox@@YA?AW4floating_point_parse_result@0@AEA_WAEAV?$input_adapter_character_source@V?$stream_input_adapter@_W@__crt_stdio_input@@@0@_K@Z 0000000140049018 f i libucrt:input.obj
 0001:00048354       ??$parse_floating_point_possible_infinity@_WV?$input_adapter_character_source@V?$string_input_adapter@_W@__crt_stdio_input@@@__crt_strtox@@_K@__crt_strtox@@YA?AW4floating_point_parse_result@0@AEA_WAEAV?$input_adapter_character_source@V?$string_input_adapter@_W@__crt_stdio_input@@@0@_K@Z 0000000140049354 f i libucrt:input.obj
 0001:00048688       ??$parse_floating_point_possible_nan@DV?$input_adapter_character_source@V?$stream_input_adapter@D@__crt_stdio_input@@@__crt_strtox@@_K@__crt_strtox@@YA?AW4floating_point_parse_result@0@AEADAEAV?$input_adapter_character_source@V?$stream_input_adapter@D@__crt_stdio_input@@@0@_K@Z 0000000140049688 f i libucrt:input.obj
 0001:000489c4       ??$parse_floating_point_possible_nan@DV?$input_adapter_character_source@V?$string_input_adapter@D@__crt_stdio_input@@@__crt_strtox@@_K@__crt_strtox@@YA?AW4floating_point_parse_result@0@AEADAEAV?$input_adapter_character_source@V?$string_input_adapter@D@__crt_stdio_input@@@0@_K@Z 00000001400499c4 f i libucrt:input.obj
 0001:00048dac       ??$parse_floating_point_possible_nan@_WV?$input_adapter_character_source@V?$stream_input_adapter@_W@__crt_stdio_input@@@__crt_strtox@@_K@__crt_strtox@@YA?AW4floating_point_parse_result@0@AEA_WAEAV?$input_adapter_character_source@V?$stream_input_adapter@_W@__crt_stdio_input@@@0@_K@Z 0000000140049dac f i libucrt:input.obj
 0001:00049144       ??$parse_floating_point_possible_nan@_WV?$input_adapter_character_source@V?$string_input_adapter@_W@__crt_stdio_input@@@__crt_strtox@@_K@__crt_strtox@@YA?AW4floating_point_parse_result@0@AEA_WAEAV?$input_adapter_character_source@V?$string_input_adapter@_W@__crt_stdio_input@@@0@_K@Z 000000014004a144 f i libucrt:input.obj
 0001:000495c0       ??$parse_floating_point_possible_nan_is_ind@DV?$input_adapter_character_source@V?$stream_input_adapter@D@__crt_stdio_input@@@__crt_strtox@@@__crt_strtox@@YA_NAEADAEAV?$input_adapter_character_source@V?$stream_input_adapter@D@__crt_stdio_input@@@0@@Z 000000014004a5c0 f i libucrt:input.obj
 0001:0004967c       ??$parse_floating_point_possible_nan_is_ind@DV?$input_adapter_character_source@V?$string_input_adapter@D@__crt_stdio_input@@@__crt_strtox@@@__crt_strtox@@YA_NAEADAEAV?$input_adapter_character_source@V?$string_input_adapter@D@__crt_stdio_input@@@0@@Z 000000014004a67c f i libucrt:input.obj
 0001:00049710       ??$parse_floating_point_possible_nan_is_ind@_WV?$input_adapter_character_source@V?$stream_input_adapter@_W@__crt_stdio_input@@@__crt_strtox@@@__crt_strtox@@YA_NAEA_WAEAV?$input_adapter_character_source@V?$stream_input_adapter@_W@__crt_stdio_input@@@0@@Z 000000014004a710 f i libucrt:input.obj
 0001:000497e0       ??$parse_floating_point_possible_nan_is_ind@_WV?$input_adapter_character_source@V?$string_input_adapter@_W@__crt_stdio_input@@@__crt_strtox@@@__crt_strtox@@YA_NAEA_WAEAV?$input_adapter_character_source@V?$string_input_adapter@_W@__crt_stdio_input@@@0@@Z 000000014004a7e0 f i libucrt:input.obj
 0001:00049894       ??$parse_floating_point_possible_nan_is_snan@DV?$input_adapter_character_source@V?$stream_input_adapter@D@__crt_stdio_input@@@__crt_strtox@@@__crt_strtox@@YA_NAEADAEAV?$input_adapter_character_source@V?$stream_input_adapter@D@__crt_stdio_input@@@0@@Z 000000014004a894 f i libucrt:input.obj
 0001:00049950       ??$parse_floating_point_possible_nan_is_snan@DV?$input_adapter_character_source@V?$string_input_adapter@D@__crt_stdio_input@@@__crt_strtox@@@__crt_strtox@@YA_NAEADAEAV?$input_adapter_character_source@V?$string_input_adapter@D@__crt_stdio_input@@@0@@Z 000000014004a950 f i libucrt:input.obj
 0001:000499e4       ??$parse_floating_point_possible_nan_is_snan@_WV?$input_adapter_character_source@V?$stream_input_adapter@_W@__crt_stdio_input@@@__crt_strtox@@@__crt_strtox@@YA_NAEA_WAEAV?$input_adapter_character_source@V?$stream_input_adapter@_W@__crt_stdio_input@@@0@@Z 000000014004a9e4 f i libucrt:input.obj
 0001:00049ab4       ??$parse_floating_point_possible_nan_is_snan@_WV?$input_adapter_character_source@V?$string_input_adapter@_W@__crt_stdio_input@@@__crt_strtox@@@__crt_strtox@@YA_NAEA_WAEAV?$input_adapter_character_source@V?$string_input_adapter@_W@__crt_stdio_input@@@0@@Z 000000014004aab4 f i libucrt:input.obj
 0001:00049b68       ??$parse_floating_point_write_result@M@__crt_strtox@@YA?AW4SLD_STATUS@@W4floating_point_parse_result@0@AEBUfloating_point_string@0@QEAM@Z 000000014004ab68 f i libucrt:input.obj
 0001:00049d34       ??$parse_floating_point_write_result@N@__crt_strtox@@YA?AW4SLD_STATUS@@W4floating_point_parse_result@0@AEBUfloating_point_string@0@QEAN@Z 000000014004ad34 f i libucrt:input.obj
 0001:00049f8c       ??$parse_integer@_KV?$input_adapter_character_source@V?$stream_input_adapter@D@__crt_stdio_input@@@__crt_strtox@@@__crt_strtox@@YA_KQEAU__crt_locale_pointers@@V?$input_adapter_character_source@V?$stream_input_adapter@D@__crt_stdio_input@@@0@H_N@Z 000000014004af8c f i libucrt:input.obj
 0001:0004a50c       ??$parse_integer@_KV?$input_adapter_character_source@V?$stream_input_adapter@_W@__crt_stdio_input@@@__crt_strtox@@@__crt_strtox@@YA_KQEAU__crt_locale_pointers@@V?$input_adapter_character_source@V?$stream_input_adapter@_W@__crt_stdio_input@@@0@H_N@Z 000000014004b50c f i libucrt:input.obj
 0001:0004b07c       ??$parse_integer@_KV?$input_adapter_character_source@V?$string_input_adapter@D@__crt_stdio_input@@@__crt_strtox@@@__crt_strtox@@YA_KQEAU__crt_locale_pointers@@V?$input_adapter_character_source@V?$string_input_adapter@D@__crt_stdio_input@@@0@H_N@Z 000000014004c07c f i libucrt:input.obj
 0001:0004b588       ??$parse_integer@_KV?$input_adapter_character_source@V?$string_input_adapter@_W@__crt_stdio_input@@@__crt_strtox@@@__crt_strtox@@YA_KQEAU__crt_locale_pointers@@V?$input_adapter_character_source@V?$string_input_adapter@_W@__crt_stdio_input@@@0@H_N@Z 000000014004c588 f i libucrt:input.obj
 0001:0004bfa8       ??$parse_next_characters_from_source@DV?$input_adapter_character_source@V?$stream_input_adapter@D@__crt_stdio_input@@@__crt_strtox@@@__crt_strtox@@YA_NQEBD0_KAEADAEAV?$input_adapter_character_source@V?$stream_input_adapter@D@__crt_stdio_input@@@0@@Z 000000014004cfa8 f i libucrt:input.obj
 0001:0004c088       ??$parse_next_characters_from_source@DV?$input_adapter_character_source@V?$string_input_adapter@D@__crt_stdio_input@@@__crt_strtox@@@__crt_strtox@@YA_NQEBD0_KAEADAEAV?$input_adapter_character_source@V?$string_input_adapter@D@__crt_stdio_input@@@0@@Z 000000014004d088 f i libucrt:input.obj
 0001:0004c130       ??$parse_next_characters_from_source@_WV?$input_adapter_character_source@V?$stream_input_adapter@_W@__crt_stdio_input@@@__crt_strtox@@@__crt_strtox@@YA_NQEB_W0_KAEA_WAEAV?$input_adapter_character_source@V?$stream_input_adapter@_W@__crt_stdio_input@@@0@@Z 000000014004d130 f i libucrt:input.obj
 0001:0004c218       ??$parse_next_characters_from_source@_WV?$input_adapter_character_source@V?$string_input_adapter@_W@__crt_stdio_input@@@__crt_strtox@@@__crt_strtox@@YA_NQEB_W0_KAEA_WAEAV?$input_adapter_character_source@V?$string_input_adapter@_W@__crt_stdio_input@@@0@@Z 000000014004d218 f i libucrt:input.obj
 0001:0004c2e8       ??$process_floating_point_specifier_t@M@?$input_processor@DV?$stream_input_adapter@D@__crt_stdio_input@@@__crt_stdio_input@@AEAA_NXZ 000000014004d2e8 f i libucrt:input.obj
 0001:0004c3ac       ??$process_floating_point_specifier_t@M@?$input_processor@DV?$string_input_adapter@D@__crt_stdio_input@@@__crt_stdio_input@@AEAA_NXZ 000000014004d3ac f i libucrt:input.obj
 0001:0004c478       ??$process_floating_point_specifier_t@M@?$input_processor@_WV?$stream_input_adapter@_W@__crt_stdio_input@@@__crt_stdio_input@@AEAA_NXZ 000000014004d478 f i libucrt:input.obj
 0001:0004c53c       ??$process_floating_point_specifier_t@M@?$input_processor@_WV?$string_input_adapter@_W@__crt_stdio_input@@@__crt_stdio_input@@AEAA_NXZ 000000014004d53c f i libucrt:input.obj
 0001:0004c600       ??$process_floating_point_specifier_t@N@?$input_processor@DV?$stream_input_adapter@D@__crt_stdio_input@@@__crt_stdio_input@@AEAA_NXZ 000000014004d600 f i libucrt:input.obj
 0001:0004c6c8       ??$process_floating_point_specifier_t@N@?$input_processor@DV?$string_input_adapter@D@__crt_stdio_input@@@__crt_stdio_input@@AEAA_NXZ 000000014004d6c8 f i libucrt:input.obj
 0001:0004c798       ??$process_floating_point_specifier_t@N@?$input_processor@_WV?$stream_input_adapter@_W@__crt_stdio_input@@@__crt_stdio_input@@AEAA_NXZ 000000014004d798 f i libucrt:input.obj
 0001:0004c860       ??$process_floating_point_specifier_t@N@?$input_processor@_WV?$string_input_adapter@_W@__crt_stdio_input@@@__crt_stdio_input@@AEAA_NXZ 000000014004d860 f i libucrt:input.obj
 0001:0004c928       ??$process_string_specifier_tchar@D@?$input_processor@DV?$stream_input_adapter@D@__crt_stdio_input@@@__crt_stdio_input@@AEAA_NW4conversion_mode@1@D@Z 000000014004d928 f i libucrt:input.obj
 0001:0004cb28       ??$process_string_specifier_tchar@D@?$input_processor@DV?$string_input_adapter@D@__crt_stdio_input@@@__crt_stdio_input@@AEAA_NW4conversion_mode@1@D@Z 000000014004db28 f i libucrt:input.obj
 0001:0004cd4c       ??$process_string_specifier_tchar@D@?$input_processor@_WV?$stream_input_adapter@_W@__crt_stdio_input@@@__crt_stdio_input@@AEAA_NW4conversion_mode@1@D@Z 000000014004dd4c f i libucrt:input.obj
 0001:0004cfb8       ??$process_string_specifier_tchar@D@?$input_processor@_WV?$string_input_adapter@_W@__crt_stdio_input@@@__crt_stdio_input@@AEAA_NW4conversion_mode@1@D@Z 000000014004dfb8 f i libucrt:input.obj
 0001:0004d20c       ??$process_string_specifier_tchar@_W@?$input_processor@DV?$stream_input_adapter@D@__crt_stdio_input@@@__crt_stdio_input@@AEAA_NW4conversion_mode@1@_W@Z 000000014004e20c f i libucrt:input.obj
 0001:0004d454       ??$process_string_specifier_tchar@_W@?$input_processor@DV?$string_input_adapter@D@__crt_stdio_input@@@__crt_stdio_input@@AEAA_NW4conversion_mode@1@_W@Z 000000014004e454 f i libucrt:input.obj
 0001:0004d6b4       ??$process_string_specifier_tchar@_W@?$input_processor@_WV?$stream_input_adapter@_W@__crt_stdio_input@@@__crt_stdio_input@@AEAA_NW4conversion_mode@1@_W@Z 000000014004e6b4 f i libucrt:input.obj
 0001:0004d8e8       ??$process_string_specifier_tchar@_W@?$input_processor@_WV?$string_input_adapter@_W@__crt_stdio_input@@@__crt_stdio_input@@AEAA_NW4conversion_mode@1@_W@Z 000000014004e8e8 f i libucrt:input.obj
 0001:0004db14       ??$reset_buffer@D@?$input_processor@DV?$stream_input_adapter@D@__crt_stdio_input@@@__crt_stdio_input@@CAXQEFAD_K@Z 000000014004eb14 f i libucrt:input.obj
 0001:0004db20       ??$reset_buffer@D@?$input_processor@DV?$string_input_adapter@D@__crt_stdio_input@@@__crt_stdio_input@@CAXQEFAD_K@Z 000000014004eb20 f i libucrt:input.obj
 0001:0004db2c       ??$reset_buffer@D@?$input_processor@_WV?$stream_input_adapter@_W@__crt_stdio_input@@@__crt_stdio_input@@CAXQEFAD_K@Z 000000014004eb2c f i libucrt:input.obj
 0001:0004db38       ??$reset_buffer@D@?$input_processor@_WV?$string_input_adapter@_W@__crt_stdio_input@@@__crt_stdio_input@@CAXQEFAD_K@Z 000000014004eb38 f i libucrt:input.obj
 0001:0004db44       ??$reset_buffer@_W@?$input_processor@DV?$stream_input_adapter@D@__crt_stdio_input@@@__crt_stdio_input@@CAXQEFA_W_K@Z 000000014004eb44 f i libucrt:input.obj
 0001:0004db54       ??$reset_buffer@_W@?$input_processor@DV?$string_input_adapter@D@__crt_stdio_input@@@__crt_stdio_input@@CAXQEFA_W_K@Z 000000014004eb54 f i libucrt:input.obj
 0001:0004db64       ??$reset_buffer@_W@?$input_processor@_WV?$stream_input_adapter@_W@__crt_stdio_input@@@__crt_stdio_input@@CAXQEFA_W_K@Z 000000014004eb64 f i libucrt:input.obj
 0001:0004db74       ??$reset_buffer@_W@?$input_processor@_WV?$string_input_adapter@_W@__crt_stdio_input@@@__crt_stdio_input@@CAXQEFA_W_K@Z 000000014004eb74 f i libucrt:input.obj
 0001:0004db84       ??$skip_whitespace@Vstream_input_adapter@__crt_stdio_input@@D@__crt_stdio_input@@YAHAEAV?$stream_input_adapter@D@0@QEAU__crt_locale_pointers@@@Z 000000014004eb84 f i libucrt:input.obj
 0001:0004dbe8       ??$skip_whitespace@Vstream_input_adapter@__crt_stdio_input@@_W@__crt_stdio_input@@YAGAEAV?$stream_input_adapter@_W@0@QEAU__crt_locale_pointers@@@Z 000000014004ebe8 f i libucrt:input.obj
 0001:0004dc40       ??$skip_whitespace@Vstring_input_adapter@__crt_stdio_input@@D@__crt_stdio_input@@YAHAEAV?$string_input_adapter@D@0@QEAU__crt_locale_pointers@@@Z 000000014004ec40 f i libucrt:input.obj
 0001:0004dca8       ??$skip_whitespace@Vstring_input_adapter@__crt_stdio_input@@_W@__crt_stdio_input@@YAGAEAV?$string_input_adapter@_W@0@QEAU__crt_locale_pointers@@@Z 000000014004eca8 f i libucrt:input.obj
 0001:0004dd18       ??$tcsnlen@AEBQEBDAEB_K@?$__crt_char_traits@D@@SA_KAEBQEBDAEB_K@Z 000000014004ed18 f i libucrt:input.obj
 0001:0004dd28       ??$tcsnlen@AEBQEB_WAEB_K@?$__crt_char_traits@_W@@SA_KAEBQEB_WAEB_K@Z 000000014004ed28 f i libucrt:input.obj
 0001:0004dd38       ??$tcstoull@PEBDPEAPEADH@?$__crt_char_traits@D@@SA_K$$QEAPEBD$$QEAPEAPEAD$$QEAH@Z 000000014004ed38 f i libucrt:input.obj
 0001:0004dd4c       ??$tcstoull@PEB_WPEAPEA_WH@?$__crt_char_traits@_W@@SA_K$$QEAPEB_W$$QEAPEAPEA_W$$QEAH@Z 000000014004ed4c f i libucrt:input.obj
 0001:0004dd60       ??$ungettc_nolock@AEBGPEAU_iobuf@@@?$__crt_char_traits@_W@@SAGAEBG$$QEAPEAU_iobuf@@@Z 000000014004ed60 f i libucrt:input.obj
 0001:0004dd70       ??$ungettc_nolock@AEBHPEAU_iobuf@@@?$__crt_char_traits@D@@SAHAEBH$$QEAPEAU_iobuf@@@Z 000000014004ed70 f i libucrt:input.obj
 0001:0004dd7c       ??$write_floating_point@M@?$input_processor@DV?$stream_input_adapter@D@__crt_stdio_input@@@__crt_stdio_input@@AEAA_NAEBM@Z 000000014004ed7c f i libucrt:input.obj
 0001:0004ddc0       ??$write_floating_point@M@?$input_processor@DV?$string_input_adapter@D@__crt_stdio_input@@@__crt_stdio_input@@AEAA_NAEBM@Z 000000014004edc0 f i libucrt:input.obj
 0001:0004de0c       ??$write_floating_point@M@?$input_processor@_WV?$stream_input_adapter@_W@__crt_stdio_input@@@__crt_stdio_input@@AEAA_NAEBM@Z 000000014004ee0c f i libucrt:input.obj
 0001:0004de50       ??$write_floating_point@M@?$input_processor@_WV?$string_input_adapter@_W@__crt_stdio_input@@@__crt_stdio_input@@AEAA_NAEBM@Z 000000014004ee50 f i libucrt:input.obj
 0001:0004de94       ??$write_floating_point@N@?$input_processor@DV?$stream_input_adapter@D@__crt_stdio_input@@@__crt_stdio_input@@AEAA_NAEBN@Z 000000014004ee94 f i libucrt:input.obj
 0001:0004ded8       ??$write_floating_point@N@?$input_processor@DV?$string_input_adapter@D@__crt_stdio_input@@@__crt_stdio_input@@AEAA_NAEBN@Z 000000014004eed8 f i libucrt:input.obj
 0001:0004df24       ??$write_floating_point@N@?$input_processor@_WV?$stream_input_adapter@_W@__crt_stdio_input@@@__crt_stdio_input@@AEAA_NAEBN@Z 000000014004ef24 f i libucrt:input.obj
 0001:0004df68       ??$write_floating_point@N@?$input_processor@_WV?$string_input_adapter@_W@__crt_stdio_input@@@__crt_stdio_input@@AEAA_NAEBN@Z 000000014004ef68 f i libucrt:input.obj
 0001:0004e124       ??0?$__crt_unique_heap_ptr@EU__crt_internal_free_policy@@@@QEAA@QEAE@Z 000000014004f124 f i libucrt:input.obj
 0001:0004e12c       ??0?$format_string_parser@D@__crt_stdio_input@@QEAA@_KQEBE@Z 000000014004f12c f i libucrt:input.obj
 0001:0004e168       ??0?$format_string_parser@_W@__crt_stdio_input@@QEAA@_KQEB_W@Z 000000014004f168 f i libucrt:input.obj
 0001:0004e19c       ??0?$input_adapter_character_source@V?$stream_input_adapter@D@__crt_stdio_input@@@__crt_strtox@@QEAA@QEAV?$stream_input_adapter@D@__crt_stdio_input@@_KQEA_N@Z 000000014004f19c f i libucrt:input.obj
 0001:0004e1c0       ??0?$input_adapter_character_source@V?$stream_input_adapter@_W@__crt_stdio_input@@@__crt_strtox@@QEAA@QEAV?$stream_input_adapter@_W@__crt_stdio_input@@_KQEA_N@Z 000000014004f1c0 f i libucrt:input.obj
 0001:0004e1e4       ??0?$input_adapter_character_source@V?$string_input_adapter@D@__crt_stdio_input@@@__crt_strtox@@QEAA@QEAV?$string_input_adapter@D@__crt_stdio_input@@_KQEA_N@Z 000000014004f1e4 f i libucrt:input.obj
 0001:0004e208       ??0?$input_adapter_character_source@V?$string_input_adapter@_W@__crt_stdio_input@@@__crt_strtox@@QEAA@QEAV?$string_input_adapter@_W@__crt_stdio_input@@_KQEA_N@Z 000000014004f208 f i libucrt:input.obj
 0001:0004e22c       ??0?$input_processor@DV?$stream_input_adapter@D@__crt_stdio_input@@@__crt_stdio_input@@QEAA@AEBV?$stream_input_adapter@D@1@_KQEBDQEAU__crt_locale_pointers@@QEAD@Z 000000014004f22c f i libucrt:input.obj
 0001:0004e298       ??0?$input_processor@DV?$string_input_adapter@D@__crt_stdio_input@@@__crt_stdio_input@@QEAA@AEBV?$string_input_adapter@D@1@_KQEBDQEAU__crt_locale_pointers@@QEAD@Z 000000014004f298 f i libucrt:input.obj
 0001:0004e314       ??0?$input_processor@_WV?$stream_input_adapter@_W@__crt_stdio_input@@@__crt_stdio_input@@QEAA@AEBV?$stream_input_adapter@_W@1@_KQEB_WQEAU__crt_locale_pointers@@QEAD@Z 000000014004f314 f i libucrt:input.obj
 0001:0004e370       ??0?$input_processor@_WV?$string_input_adapter@_W@__crt_stdio_input@@@__crt_stdio_input@@QEAA@AEBV?$string_input_adapter@_W@1@_KQEB_WQEAU__crt_locale_pointers@@QEAD@Z 000000014004f370 f i libucrt:input.obj
 0001:0004e3d8       ??0?$scanset_buffer@E@__crt_stdio_input@@QEAA@XZ 000000014004f3d8 f i libucrt:input.obj
 0001:0004e3ec       ??0?$scanset_buffer@_W@__crt_stdio_input@@QEAA@XZ 000000014004f3ec f i libucrt:input.obj
 0001:0004e3f8       ??0?$scanset_storage@$00@__crt_stdio_input@@QEAA@XZ 000000014004f3f8 f i libucrt:input.obj
 0001:0004e40c       ??0?$scanset_storage@$01@__crt_stdio_input@@QEAA@XZ 000000014004f40c f i libucrt:input.obj
 0001:0004e418       ??0?$stream_input_adapter@D@__crt_stdio_input@@QEAA@QEAU_iobuf@@@Z 000000014004f418 f i libucrt:input.obj
 0001:0004e428       ??0?$stream_input_adapter@_W@__crt_stdio_input@@QEAA@QEAU_iobuf@@@Z 000000014004f428 f i libucrt:input.obj
 0001:0004e438       ??0?$string_input_adapter@D@__crt_stdio_input@@QEAA@QEBD_K@Z 000000014004f438 f i libucrt:input.obj
 0001:0004e450       ??0?$string_input_adapter@_W@__crt_stdio_input@@QEAA@QEB_W_K@Z 000000014004f450 f i libucrt:input.obj
 0001:0004e470       ??0big_integer@__crt_strtox@@QEAA@AEBU01@@Z 000000014004f470 f i libucrt:input.obj
 0001:0004e4b0       ??0big_integer@__crt_strtox@@QEAA@XZ 000000014004f4b0 f i libucrt:input.obj
 0001:0004e4bc       ??0floating_point_value@__crt_strtox@@QEAA@QEAM@Z 000000014004f4bc f i libucrt:input.obj
 0001:0004e4cc       ??0floating_point_value@__crt_strtox@@QEAA@QEAN@Z 000000014004f4cc f i libucrt:input.obj
 0001:0004e4dc       ??1?$__crt_unique_heap_ptr@EU__crt_internal_free_policy@@@@QEAA@XZ 000000014004f4dc f i libucrt:input.obj
 0001:0004e500       ??1?$format_string_parser@_W@__crt_stdio_input@@QEAA@XZ 000000014004f500 f i libucrt:input.obj
 0001:0004e524       ??1?$input_adapter_character_source@V?$stream_input_adapter@D@__crt_stdio_input@@@__crt_strtox@@QEAA@XZ 000000014004f524 f i libucrt:input.obj
 0001:0004e540       ??1?$input_adapter_character_source@V?$stream_input_adapter@_W@__crt_stdio_input@@@__crt_strtox@@QEAA@XZ 000000014004f540 f i libucrt:input.obj
 0001:0004e55c       ??1?$input_adapter_character_source@V?$string_input_adapter@D@__crt_stdio_input@@@__crt_strtox@@QEAA@XZ 000000014004f55c f i libucrt:input.obj
 0001:0004e578       ??1?$input_adapter_character_source@V?$string_input_adapter@_W@__crt_stdio_input@@@__crt_strtox@@QEAA@XZ 000000014004f578 f i libucrt:input.obj
 0001:0004e594       ??1?$input_processor@_WV?$stream_input_adapter@_W@__crt_stdio_input@@@__crt_stdio_input@@QEAA@XZ 000000014004f594 f i libucrt:input.obj
 0001:0004e5b8       ??1?$input_processor@_WV?$string_input_adapter@_W@__crt_stdio_input@@@__crt_stdio_input@@QEAA@XZ 000000014004f5b8 f i libucrt:input.obj
 0001:0004e5dc       ??1?$scanset_buffer@_W@__crt_stdio_input@@QEAA@XZ 000000014004f5dc f i libucrt:input.obj
 0001:0004e600       ??1?$scanset_storage@$01@__crt_stdio_input@@QEAA@XZ 000000014004f600 f i libucrt:input.obj
 0001:0004e624       ??4?$__crt_unique_heap_ptr@EU__crt_internal_free_policy@@@@QEAAAEAV0@$$QEAV0@@Z 000000014004f624 f i libucrt:input.obj
 0001:0004e670       ??4big_integer@__crt_strtox@@QEAAAEAU01@AEBU01@@Z 000000014004f670 f i libucrt:input.obj
 0001:0004e6ac       ??B?$__crt_unique_heap_ptr@EU__crt_internal_free_policy@@@@QEBA_NXZ 000000014004f6ac f i libucrt:input.obj
 0001:0004e6c0       ??M__crt_strtox@@YA_NAEBUbig_integer@0@0@Z 000000014004f6c0 f i libucrt:input.obj
 0001:0004efd8       ?accumulate_decimal_digits_into_big_integer@__crt_strtox@@YAXQEBE0AEAUbig_integer@1@@Z 000000014004ffd8 f i libucrt:input.obj
 0001:0004f6d0       ?add@__crt_strtox@@YA_NAEAUbig_integer@1@I@Z 00000001400506d0 f i libucrt:input.obj
 0001:0004f780       ?add_carry@__crt_strtox@@YAIAEAIII@Z 0000000140050780 f i libucrt:input.obj
 0001:0004f7a0       ?add_multiply_carry@__crt_strtox@@YAIAEAIIII@Z 00000001400507a0 f i libucrt:input.obj
 0001:0004f7c8       ?advance@?$format_string_parser@D@__crt_stdio_input@@QEAA_NXZ 00000001400507c8 f i libucrt:input.obj
 0001:0004fa00       ?advance@?$format_string_parser@_W@__crt_stdio_input@@QEAA_NXZ 0000000140050a00 f i libucrt:input.obj
 0001:0004fc00       ?as_double@floating_point_value@__crt_strtox@@QEBAAEANXZ 0000000140050c00 f i libucrt:input.obj
 0001:0004fc48       ?as_float@floating_point_value@__crt_strtox@@QEBAAEAMXZ 0000000140050c48 f i libucrt:input.obj
 0001:0004fc90       ?assemble_floating_point_infinity@__crt_strtox@@YAX_NAEBVfloating_point_value@1@@Z 0000000140050c90 f i libucrt:input.obj
 0001:0004fccc       ?assemble_floating_point_value@__crt_strtox@@YA?AW4SLD_STATUS@@_KH_N1AEBVfloating_point_value@1@@Z 0000000140050ccc f i libucrt:input.obj
 0001:00050154       ?assemble_floating_point_value_from_big_integer@__crt_strtox@@YA?AW4SLD_STATUS@@AEBUbig_integer@1@I_N1AEBVfloating_point_value@1@@Z 0000000140051154 f i libucrt:input.obj
 0001:0005030c       ?assemble_floating_point_zero@__crt_strtox@@YAX_NAEBVfloating_point_value@1@@Z 000000014005130c f i libucrt:input.obj
 0001:00050340       ?bit_scan_reverse@__crt_strtox@@YAIAEBUbig_integer@1@@Z 0000000140051340 f i libucrt:input.obj
 0001:00050370       ?bit_scan_reverse@__crt_strtox@@YAII@Z 0000000140051370 f i libucrt:input.obj
 0001:00050390       ?bit_scan_reverse@__crt_strtox@@YAI_K@Z 0000000140051390 f i libucrt:input.obj
 0001:000503c0       ?characters_read@?$stream_input_adapter@D@__crt_stdio_input@@QEBA_KXZ 00000001400513c0 f i libucrt:input.obj
 0001:000503c8       ?characters_read@?$stream_input_adapter@_W@__crt_stdio_input@@QEBA_KXZ 00000001400513c8 f i libucrt:input.obj
 0001:000503d0       ?characters_read@?$string_input_adapter@D@__crt_stdio_input@@QEBA_KXZ 00000001400513d0 f i libucrt:input.obj
 0001:000503dc       ?characters_read@?$string_input_adapter@_W@__crt_stdio_input@@QEBA_KXZ 00000001400513dc f i libucrt:input.obj
 0001:000503ec       ?convert_decimal_string_to_floating_type_common@__crt_strtox@@YA?AW4SLD_STATUS@@AEBUfloating_point_string@1@AEBVfloating_point_value@1@@Z 00000001400513ec f i libucrt:input.obj
 0001:000529d0       ?convert_hexadecimal_string_to_floating_type_common@__crt_strtox@@YA?AW4SLD_STATUS@@AEBUfloating_point_string@1@AEBVfloating_point_value@1@@Z 00000001400539d0 f i libucrt:input.obj
 0001:00052ab0       ?count_sequential_high_zeroes@__crt_strtox@@YAII@Z 0000000140053ab0 f i libucrt:input.obj
 0001:00052ac8       ?data@?$scanset_storage@$00@__crt_stdio_input@@QEBAPEAEXZ 0000000140053ac8 f i libucrt:input.obj
 0001:00052acc       ?data@?$scanset_storage@$01@__crt_stdio_input@@QEBAPEAEXZ 0000000140053acc f i libucrt:input.obj
 0001:00052b24       ?denormal_mantissa_mask@floating_point_value@__crt_strtox@@QEBA_KXZ 0000000140053b24 f i libucrt:input.obj
 0001:00052b50       ?divide@__crt_strtox@@YA_KAEAUbig_integer@1@AEBU21@@Z 0000000140053b50 f i libucrt:input.obj
 0001:00053084       ?error_code@?$format_string_parser@D@__crt_stdio_input@@QEBAHXZ 0000000140054084 f i libucrt:input.obj
 0001:00053088       ?error_code@?$format_string_parser@_W@__crt_stdio_input@@QEBAHXZ 0000000140054088 f i libucrt:input.obj
 0001:0005308c       ?exponent_bias@floating_point_value@__crt_strtox@@QEBAHXZ 000000014005408c f i libucrt:input.obj
 0001:000530a0       ?get@?$__crt_unique_heap_ptr@EU__crt_internal_free_policy@@@@QEBAPEAEXZ 00000001400540a0 f i libucrt:input.obj
 0001:000530a4       ?get@?$input_adapter_character_source@V?$stream_input_adapter@D@__crt_stdio_input@@@__crt_strtox@@QEAADXZ 00000001400540a4 f i libucrt:input.obj
 0001:000530f0       ?get@?$input_adapter_character_source@V?$stream_input_adapter@_W@__crt_stdio_input@@@__crt_strtox@@QEAA_WXZ 00000001400540f0 f i libucrt:input.obj
 0001:00053150       ?get@?$input_adapter_character_source@V?$string_input_adapter@D@__crt_stdio_input@@@__crt_strtox@@QEAADXZ 0000000140054150 f i libucrt:input.obj
 0001:00053190       ?get@?$input_adapter_character_source@V?$string_input_adapter@_W@__crt_stdio_input@@@__crt_strtox@@QEAA_WXZ 0000000140054190 f i libucrt:input.obj
 0001:000531e8       ?get@?$stream_input_adapter@D@__crt_stdio_input@@QEAAHXZ 00000001400541e8 f i libucrt:input.obj
 0001:00053210       ?get@?$stream_input_adapter@_W@__crt_stdio_input@@QEAAGXZ 0000000140054210 f i libucrt:input.obj
 0001:00053240       ?get@?$string_input_adapter@D@__crt_stdio_input@@QEAAHXZ 0000000140054240 f i libucrt:input.obj
 0001:00053264       ?get@?$string_input_adapter@_W@__crt_stdio_input@@QEAAGXZ 0000000140054264 f i libucrt:input.obj
 0001:0005328c       ?invert@?$scanset_buffer@E@__crt_stdio_input@@QEAAXXZ 000000014005428c f i libucrt:input.obj
 0001:000532c0       ?invert@?$scanset_buffer@_W@__crt_stdio_input@@QEAAXXZ 00000001400542c0 f i libucrt:input.obj
 0001:00053354       ?is_character_allowed_in_string@?$input_processor@DV?$stream_input_adapter@D@__crt_stdio_input@@@__crt_stdio_input@@AEBA_NW4conversion_mode@2@H@Z 0000000140054354 f i libucrt:input.obj
 0001:000533ac       ?is_character_allowed_in_string@?$input_processor@DV?$string_input_adapter@D@__crt_stdio_input@@@__crt_stdio_input@@AEBA_NW4conversion_mode@2@H@Z 00000001400543ac f i libucrt:input.obj
 0001:00053404       ?is_character_allowed_in_string@?$input_processor@_WV?$stream_input_adapter@_W@__crt_stdio_input@@@__crt_stdio_input@@AEBA_NW4conversion_mode@2@G@Z 0000000140054404 f i libucrt:input.obj
 0001:00053460       ?is_character_allowed_in_string@?$input_processor@_WV?$string_input_adapter@_W@__crt_stdio_input@@@__crt_stdio_input@@AEBA_NW4conversion_mode@2@G@Z 0000000140054460 f i libucrt:input.obj
 0001:000534bc       ?is_digit_or_nondigit@__crt_strtox@@YA_NH@Z 00000001400544bc f i libucrt:input.obj
 0001:000534e8       ?is_double@floating_point_value@__crt_strtox@@QEBA_NXZ 00000001400544e8 f i libucrt:input.obj
 0001:000534ec       ?is_length_valid@__crt_stdio_input@@YA_NW4conversion_mode@1@W4length_modifier@1@@Z 00000001400544ec f i libucrt:input.obj
 0001:00053510       ?is_space@__crt_strtox@@YA_NDQEAU__crt_locale_pointers@@@Z 0000000140054510 f i libucrt:input.obj
 0001:00053538       ?is_space@__crt_strtox@@YA_N_WPEAU__crt_locale_pointers@@@Z 0000000140054538 f i libucrt:input.obj
 0001:00053558       ?is_usable@?$scanset_buffer@E@__crt_stdio_input@@QEAA_NXZ 0000000140054558 f i libucrt:input.obj
 0001:00053560       ?is_usable@?$scanset_buffer@_W@__crt_stdio_input@@QEAA_NXZ 0000000140054560 f i libucrt:input.obj
 0001:000535c0       ?is_valid@?$__crt_unique_heap_ptr@EU__crt_internal_free_policy@@@@QEBA_NXZ 00000001400545c0 f i libucrt:input.obj
 0001:000535cc       ?kind@?$format_string_parser@D@__crt_stdio_input@@QEBA?AW4format_directive_kind@2@XZ 00000001400545cc f i libucrt:input.obj
 0001:000535d0       ?kind@?$format_string_parser@_W@__crt_stdio_input@@QEBA?AW4format_directive_kind@2@XZ 00000001400545d0 f i libucrt:input.obj
 0001:000535d4       ?length@?$format_string_parser@D@__crt_stdio_input@@QEBA_KXZ 00000001400545d4 f i libucrt:input.obj
 0001:00053694       ?length@?$format_string_parser@_W@__crt_stdio_input@@QEBA_KXZ 0000000140054694 f i libucrt:input.obj
 0001:00053754       ?literal_character_lead@?$format_string_parser@D@__crt_stdio_input@@QEBAEXZ 0000000140054754 f i libucrt:input.obj
 0001:00053758       ?literal_character_lead@?$format_string_parser@_W@__crt_stdio_input@@QEBA_WXZ 0000000140054758 f i libucrt:input.obj
 0001:00053760       ?literal_character_trail@?$format_string_parser@D@__crt_stdio_input@@QEBAEXZ 0000000140054760 f i libucrt:input.obj
 0001:00053770       ?make_big_integer@__crt_strtox@@YA?AUbig_integer@1@_K@Z 0000000140054770 f i libucrt:input.obj
 0001:00053790       ?mantissa_bits@floating_point_value@__crt_strtox@@QEBAHXZ 0000000140054790 f i libucrt:input.obj
 0001:000537a4       ?maximum_binary_exponent@floating_point_value@__crt_strtox@@QEBAHXZ 00000001400547a4 f i libucrt:input.obj
 0001:000537b8       ?maximum_signed_value@__crt_strtox@@YA_J_K@Z 00000001400547b8 f i libucrt:input.obj
 0001:000537c8       ?minimum_binary_exponent@floating_point_value@__crt_strtox@@QEBAHXZ 00000001400547c8 f i libucrt:input.obj
 0001:000537dc       ?minimum_signed_value@__crt_strtox@@YA_J_K@Z 00000001400547dc f i libucrt:input.obj
 0001:000537ec       ?mode@?$format_string_parser@D@__crt_stdio_input@@QEBA?AW4conversion_mode@2@XZ 00000001400547ec f i libucrt:input.obj
 0001:000537f0       ?mode@?$format_string_parser@_W@__crt_stdio_input@@QEBA?AW4conversion_mode@2@XZ 00000001400547f0 f i libucrt:input.obj
 0001:00053800       ?multiply@__crt_strtox@@YA_NAEAUbig_integer@1@AEBU21@@Z 0000000140054800 f i libucrt:input.obj
 0001:00053ca0       ?multiply@__crt_strtox@@YA_NAEAUbig_integer@1@I@Z 0000000140054ca0 f i libucrt:input.obj
 0001:00053dd0       ?multiply_64_32@__crt_strtox@@YA_K_KI@Z 0000000140054dd0 f i libucrt:input.obj
 0001:00053de0       ?multiply_by_power_of_ten@__crt_strtox@@YA_NAEAUbig_integer@1@I@Z 0000000140054de0 f i libucrt:input.obj
 0001:00054500       ?multiply_core@__crt_strtox@@YAIQEAIII@Z 0000000140055500 f i libucrt:input.obj
 0001:0005455c       ?normal_mantissa_mask@floating_point_value@__crt_strtox@@QEBA_KXZ 000000014005555c f i libucrt:input.obj
 0001:00054580       ?parse_digit@__crt_strtox@@YAID@Z 0000000140055580 f i libucrt:input.obj
 0001:000545bc       ?parse_digit@__crt_strtox@@YAI_W@Z 00000001400555bc f i libucrt:input.obj
 0001:00054800       ?process@?$input_processor@DV?$stream_input_adapter@D@__crt_stdio_input@@@__crt_stdio_input@@QEAAHXZ 0000000140055800 f i libucrt:input.obj
 0001:000548f0       ?process@?$input_processor@DV?$string_input_adapter@D@__crt_stdio_input@@@__crt_stdio_input@@QEAAHXZ 00000001400558f0 f i libucrt:input.obj
 0001:00054a20       ?process@?$input_processor@_WV?$stream_input_adapter@_W@__crt_stdio_input@@@__crt_stdio_input@@QEAAHXZ 0000000140055a20 f i libucrt:input.obj
 0001:00054b18       ?process@?$input_processor@_WV?$string_input_adapter@_W@__crt_stdio_input@@@__crt_stdio_input@@QEAAHXZ 0000000140055b18 f i libucrt:input.obj
 0001:00054c3c       ?process_character_count_specifier@?$input_processor@DV?$stream_input_adapter@D@__crt_stdio_input@@@__crt_stdio_input@@AEAA_NXZ 0000000140055c3c f i libucrt:input.obj
 0001:00054c54       ?process_character_count_specifier@?$input_processor@DV?$string_input_adapter@D@__crt_stdio_input@@@__crt_stdio_input@@AEAA_NXZ 0000000140055c54 f i libucrt:input.obj
 0001:00054c70       ?process_character_count_specifier@?$input_processor@_WV?$stream_input_adapter@_W@__crt_stdio_input@@@__crt_stdio_input@@AEAA_NXZ 0000000140055c70 f i libucrt:input.obj
 0001:00054c88       ?process_character_count_specifier@?$input_processor@_WV?$string_input_adapter@_W@__crt_stdio_input@@@__crt_stdio_input@@AEAA_NXZ 0000000140055c88 f i libucrt:input.obj
 0001:00054ca8       ?process_conversion_specifier@?$input_processor@DV?$stream_input_adapter@D@__crt_stdio_input@@@__crt_stdio_input@@AEAA_NXZ 0000000140055ca8 f i libucrt:input.obj
 0001:00054e08       ?process_conversion_specifier@?$input_processor@DV?$string_input_adapter@D@__crt_stdio_input@@@__crt_stdio_input@@AEAA_NXZ 0000000140055e08 f i libucrt:input.obj
 0001:00054f70       ?process_conversion_specifier@?$input_processor@_WV?$stream_input_adapter@_W@__crt_stdio_input@@@__crt_stdio_input@@AEAA_NXZ 0000000140055f70 f i libucrt:input.obj
 0001:000550d0       ?process_conversion_specifier@?$input_processor@_WV?$string_input_adapter@_W@__crt_stdio_input@@@__crt_stdio_input@@AEAA_NXZ 00000001400560d0 f i libucrt:input.obj
 0001:0005523c       ?process_floating_point_specifier@?$input_processor@DV?$stream_input_adapter@D@__crt_stdio_input@@@__crt_stdio_input@@AEAA_NXZ 000000014005623c f i libucrt:input.obj
 0001:000552bc       ?process_floating_point_specifier@?$input_processor@DV?$string_input_adapter@D@__crt_stdio_input@@@__crt_stdio_input@@AEAA_NXZ 00000001400562bc f i libucrt:input.obj
 0001:00055348       ?process_floating_point_specifier@?$input_processor@_WV?$stream_input_adapter@_W@__crt_stdio_input@@@__crt_stdio_input@@AEAA_NXZ 0000000140056348 f i libucrt:input.obj
 0001:000553cc       ?process_floating_point_specifier@?$input_processor@_WV?$string_input_adapter@_W@__crt_stdio_input@@@__crt_stdio_input@@AEAA_NXZ 00000001400563cc f i libucrt:input.obj
 0001:00055460       ?process_integer_specifier@?$input_processor@DV?$stream_input_adapter@D@__crt_stdio_input@@@__crt_stdio_input@@AEAA_NI_N@Z 0000000140056460 f i libucrt:input.obj
 0001:00055538       ?process_integer_specifier@?$input_processor@DV?$string_input_adapter@D@__crt_stdio_input@@@__crt_stdio_input@@AEAA_NI_N@Z 0000000140056538 f i libucrt:input.obj
 0001:0005561c       ?process_integer_specifier@?$input_processor@_WV?$stream_input_adapter@_W@__crt_stdio_input@@@__crt_stdio_input@@AEAA_NI_N@Z 000000014005661c f i libucrt:input.obj
 0001:000556fc       ?process_integer_specifier@?$input_processor@_WV?$string_input_adapter@_W@__crt_stdio_input@@@__crt_stdio_input@@AEAA_NI_N@Z 00000001400566fc f i libucrt:input.obj
 0001:000557e8       ?process_literal_character@?$input_processor@DV?$stream_input_adapter@D@__crt_stdio_input@@@__crt_stdio_input@@AEAA_NXZ 00000001400567e8 f i libucrt:input.obj
 0001:00055854       ?process_literal_character@?$input_processor@DV?$string_input_adapter@D@__crt_stdio_input@@@__crt_stdio_input@@AEAA_NXZ 0000000140056854 f i libucrt:input.obj
 0001:0005588c       ?process_literal_character@?$input_processor@_WV?$stream_input_adapter@_W@__crt_stdio_input@@@__crt_stdio_input@@AEAA_NXZ 000000014005688c f i libucrt:input.obj
 0001:000558ec       ?process_literal_character@?$input_processor@_WV?$string_input_adapter@_W@__crt_stdio_input@@@__crt_stdio_input@@AEAA_NXZ 00000001400568ec f i libucrt:input.obj
 0001:00055938       ?process_literal_character_tchar@?$input_processor@DV?$stream_input_adapter@D@__crt_stdio_input@@@__crt_stdio_input@@AEAA_ND@Z 0000000140056938 f i libucrt:input.obj
 0001:000559cc       ?process_literal_character_tchar@?$input_processor@DV?$string_input_adapter@D@__crt_stdio_input@@@__crt_stdio_input@@AEAA_ND@Z 00000001400569cc f i libucrt:input.obj
 0001:00055a70       ?process_literal_character_tchar@?$input_processor@_WV?$stream_input_adapter@_W@__crt_stdio_input@@@__crt_stdio_input@@AEAA_N_W@Z 0000000140056a70 f i libucrt:input.obj
 0001:00055a74       ?process_literal_character_tchar@?$input_processor@_WV?$string_input_adapter@_W@__crt_stdio_input@@@__crt_stdio_input@@AEAA_N_W@Z 0000000140056a74 f i libucrt:input.obj
 0001:00055a78       ?process_state@?$input_processor@DV?$stream_input_adapter@D@__crt_stdio_input@@@__crt_stdio_input@@AEAA_NXZ 0000000140056a78 f i libucrt:input.obj
 0001:00055b64       ?process_state@?$input_processor@DV?$string_input_adapter@D@__crt_stdio_input@@@__crt_stdio_input@@AEAA_NXZ 0000000140056b64 f i libucrt:input.obj
 0001:00055c48       ?process_state@?$input_processor@_WV?$stream_input_adapter@_W@__crt_stdio_input@@@__crt_stdio_input@@AEAA_NXZ 0000000140056c48 f i libucrt:input.obj
 0001:00055d38       ?process_state@?$input_processor@_WV?$string_input_adapter@_W@__crt_stdio_input@@@__crt_stdio_input@@AEAA_NXZ 0000000140056d38 f i libucrt:input.obj
 0001:00055e28       ?process_string_specifier@?$input_processor@DV?$stream_input_adapter@D@__crt_stdio_input@@@__crt_stdio_input@@AEAA_NW4conversion_mode@2@@Z 0000000140056e28 f i libucrt:input.obj
 0001:00055ec8       ?process_string_specifier@?$input_processor@DV?$string_input_adapter@D@__crt_stdio_input@@@__crt_stdio_input@@AEAA_NW4conversion_mode@2@@Z 0000000140056ec8 f i libucrt:input.obj
 0001:00055f74       ?process_string_specifier@?$input_processor@_WV?$stream_input_adapter@_W@__crt_stdio_input@@@__crt_stdio_input@@AEAA_NW4conversion_mode@2@@Z 0000000140056f74 f i libucrt:input.obj
 0001:0005601c       ?process_string_specifier@?$input_processor@_WV?$string_input_adapter@_W@__crt_stdio_input@@@__crt_stdio_input@@AEAA_NW4conversion_mode@2@@Z 000000014005701c f i libucrt:input.obj
 0001:000560d0       ?process_whitespace@?$input_processor@DV?$stream_input_adapter@D@__crt_stdio_input@@@__crt_stdio_input@@AEAA_NXZ 00000001400570d0 f i libucrt:input.obj
 0001:00056110       ?process_whitespace@?$input_processor@DV?$string_input_adapter@D@__crt_stdio_input@@@__crt_stdio_input@@AEAA_NXZ 0000000140057110 f i libucrt:input.obj
 0001:0005615c       ?process_whitespace@?$input_processor@_WV?$stream_input_adapter@_W@__crt_stdio_input@@@__crt_stdio_input@@AEAA_NXZ 000000014005715c f i libucrt:input.obj
 0001:000561a0       ?process_whitespace@?$input_processor@_WV?$string_input_adapter@_W@__crt_stdio_input@@@__crt_stdio_input@@AEAA_NXZ 00000001400571a0 f i libucrt:input.obj
 0001:000561f4       ?release@?$__crt_unique_heap_ptr@EU__crt_internal_free_policy@@@@QEAAXXZ 00000001400571f4 f i libucrt:input.obj
 0001:00056218       ?reset@?$scanset_buffer@E@__crt_stdio_input@@QEAAXXZ 0000000140057218 f i libucrt:input.obj
 0001:0005622c       ?reset@?$scanset_buffer@_W@__crt_stdio_input@@QEAAXXZ 000000014005722c f i libucrt:input.obj
 0001:00056298       ?reset_token_state@?$format_string_parser@D@__crt_stdio_input@@AEAAXXZ 0000000140057298 f i libucrt:input.obj
 0001:000562b8       ?reset_token_state@?$format_string_parser@_W@__crt_stdio_input@@AEAAXXZ 00000001400572b8 f i libucrt:input.obj
 0001:000562d4       ?reset_token_state_for_error@?$format_string_parser@D@__crt_stdio_input@@AEAAXH@Z 00000001400572d4 f i libucrt:input.obj
 0001:000562f8       ?reset_token_state_for_error@?$format_string_parser@_W@__crt_stdio_input@@AEAAXH@Z 00000001400572f8 f i libucrt:input.obj
 0001:00056318       ?restore_state@?$input_adapter_character_source@V?$stream_input_adapter@D@__crt_stdio_input@@@__crt_strtox@@QEAA_N_K@Z 0000000140057318 f i libucrt:input.obj
 0001:00056330       ?restore_state@?$input_adapter_character_source@V?$stream_input_adapter@_W@__crt_stdio_input@@@__crt_strtox@@QEAA_N_K@Z 0000000140057330 f i libucrt:input.obj
 0001:00056348       ?restore_state@?$input_adapter_character_source@V?$string_input_adapter@D@__crt_stdio_input@@@__crt_strtox@@QEAA_N_K@Z 0000000140057348 f i libucrt:input.obj
 0001:00056360       ?restore_state@?$input_adapter_character_source@V?$string_input_adapter@_W@__crt_stdio_input@@@__crt_strtox@@QEAA_N_K@Z 0000000140057360 f i libucrt:input.obj
 0001:00056378       ?right_shift_with_rounding@__crt_strtox@@YA_K_N_KI0@Z 0000000140057378 f i libucrt:input.obj
 0001:00056478       ?save_state@?$input_adapter_character_source@V?$stream_input_adapter@D@__crt_stdio_input@@@__crt_strtox@@QEBA_KXZ 0000000140057478 f i libucrt:input.obj
 0001:00056480       ?save_state@?$input_adapter_character_source@V?$stream_input_adapter@_W@__crt_stdio_input@@@__crt_strtox@@QEBA_KXZ 0000000140057480 f i libucrt:input.obj
 0001:00056488       ?save_state@?$input_adapter_character_source@V?$string_input_adapter@D@__crt_stdio_input@@@__crt_strtox@@QEBA_KXZ 0000000140057488 f i libucrt:input.obj
 0001:00056490       ?save_state@?$input_adapter_character_source@V?$string_input_adapter@_W@__crt_stdio_input@@@__crt_strtox@@QEBA_KXZ 0000000140057490 f i libucrt:input.obj
 0001:00056498       ?scan_conversion_specifier@?$format_string_parser@D@__crt_stdio_input@@AEAA_NXZ 0000000140057498 f i libucrt:input.obj
 0001:000566a8       ?scan_conversion_specifier@?$format_string_parser@_W@__crt_stdio_input@@AEAA_NXZ 00000001400576a8 f i libucrt:input.obj
 0001:000568fc       ?scan_optional_assignment_suppressor@?$format_string_parser@D@__crt_stdio_input@@AEAAXXZ 00000001400578fc f i libucrt:input.obj
 0001:00056918       ?scan_optional_assignment_suppressor@?$format_string_parser@_W@__crt_stdio_input@@AEAAXXZ 0000000140057918 f i libucrt:input.obj
 0001:00056934       ?scan_optional_field_width@?$format_string_parser@D@__crt_stdio_input@@AEAA_NXZ 0000000140057934 f i libucrt:input.obj
 0001:00056a04       ?scan_optional_field_width@?$format_string_parser@_W@__crt_stdio_input@@AEAA_NXZ 0000000140057a04 f i libucrt:input.obj
 0001:00056d10       ?scan_optional_length_modifier@?$format_string_parser@D@__crt_stdio_input@@AEAAXXZ 0000000140057d10 f i libucrt:input.obj
 0001:00056e94       ?scan_optional_length_modifier@?$format_string_parser@_W@__crt_stdio_input@@AEAAXXZ 0000000140057e94 f i libucrt:input.obj
 0001:0005704c       ?scan_optional_literal_character_trail_bytes_tchar@?$format_string_parser@D@__crt_stdio_input@@AEAA_ND@Z 000000014005804c f i libucrt:input.obj
 0001:000570c0       ?scan_optional_literal_character_trail_bytes_tchar@?$format_string_parser@_W@__crt_stdio_input@@AEAA_N_W@Z 00000001400580c0 f i libucrt:input.obj
 0001:000570c4       ?scan_optional_wide_modifier@?$format_string_parser@D@__crt_stdio_input@@AEAAXXZ 00000001400580c4 f i libucrt:input.obj
 0001:000570ec       ?scan_optional_wide_modifier@?$format_string_parser@_W@__crt_stdio_input@@AEAAXXZ 00000001400580ec f i libucrt:input.obj
 0001:0005713c       ?scan_scanset_range@?$format_string_parser@D@__crt_stdio_input@@AEAA_NXZ 000000014005813c f i libucrt:input.obj
 0001:0005735c       ?scan_scanset_range@?$format_string_parser@_W@__crt_stdio_input@@AEAA_NXZ 000000014005835c f i libucrt:input.obj
 0001:000575d0       ?scanset@?$format_string_parser@D@__crt_stdio_input@@QEBAAEBV?$scanset_buffer@E@2@XZ 00000001400585d0 f i libucrt:input.obj
 0001:000575d8       ?scanset@?$format_string_parser@_W@__crt_stdio_input@@QEBAAEBV?$scanset_buffer@_W@2@XZ 00000001400585d8 f i libucrt:input.obj
 0001:000575e0       ?secure_buffers@?$input_processor@DV?$stream_input_adapter@D@__crt_stdio_input@@@__crt_stdio_input@@AEBA_NXZ 00000001400585e0 f i libucrt:input.obj
 0001:000575e8       ?secure_buffers@?$input_processor@DV?$string_input_adapter@D@__crt_stdio_input@@@__crt_stdio_input@@AEBA_NXZ 00000001400585e8 f i libucrt:input.obj
 0001:000575f0       ?secure_buffers@?$input_processor@_WV?$stream_input_adapter@_W@__crt_stdio_input@@@__crt_stdio_input@@AEBA_NXZ 00000001400585f0 f i libucrt:input.obj
 0001:000575f8       ?secure_buffers@?$input_processor@_WV?$string_input_adapter@_W@__crt_stdio_input@@@__crt_stdio_input@@AEBA_NXZ 00000001400585f8 f i libucrt:input.obj
 0001:00057600       ?set@?$scanset_buffer@E@__crt_stdio_input@@QEAAXE@Z 0000000140058600 f i libucrt:input.obj
 0001:00057624       ?set@?$scanset_buffer@_W@__crt_stdio_input@@QEAAX_W@Z 0000000140058624 f i libucrt:input.obj
 0001:000576ac       ?set_wide_for_c_s_or_scanset@?$format_string_parser@D@__crt_stdio_input@@AEAAXXZ 00000001400586ac f i libucrt:input.obj
 0001:000576d4       ?set_wide_for_c_s_or_scanset@?$format_string_parser@_W@__crt_stdio_input@@AEAAXXZ 00000001400586d4 f i libucrt:input.obj
 0001:00057700       ?shift_left@__crt_strtox@@YA_NAEAUbig_integer@1@I@Z 0000000140058700 f i libucrt:input.obj
 0001:000578dc       ?should_default_to_wide@?$format_string_parser@D@__crt_stdio_input@@AEAA_NE@Z 00000001400588dc f i libucrt:input.obj
 0001:000578e8       ?should_default_to_wide@?$format_string_parser@_W@__crt_stdio_input@@AEAA_N_W@Z 00000001400588e8 f i libucrt:input.obj
 0001:00057914       ?should_round_up@__crt_strtox@@YA_N_N000@Z 0000000140058914 f i libucrt:input.obj
 0001:000579bc       ?size@?$scanset_storage@$00@__crt_stdio_input@@QEBA_KXZ 00000001400589bc f i libucrt:input.obj
 0001:000579c4       ?size@?$scanset_storage@$01@__crt_stdio_input@@QEBA_KXZ 00000001400589c4 f i libucrt:input.obj
 0001:000579cc       ?suppress_assignment@?$format_string_parser@D@__crt_stdio_input@@QEBA_NXZ 00000001400589cc f i libucrt:input.obj
 0001:000579d0       ?suppress_assignment@?$format_string_parser@_W@__crt_stdio_input@@QEBA_NXZ 00000001400589d0 f i libucrt:input.obj
 0001:000579d4       ?test@?$scanset_buffer@E@__crt_stdio_input@@QEBA_NE@Z 00000001400589d4 f i libucrt:input.obj
 0001:00057a00       ?test@?$scanset_buffer@_W@__crt_stdio_input@@QEBA_N_W@Z 0000000140058a00 f i libucrt:input.obj
 0001:00057a94       ?to_floating_point_length@__crt_stdio_input@@YA_KW4length_modifier@1@@Z 0000000140058a94 f i libucrt:input.obj
 0001:00057ab8       ?to_integer_length@__crt_stdio_input@@YA_KW4length_modifier@1@@Z 0000000140058ab8 f i libucrt:input.obj
 0001:00057b14       ?unget@?$input_adapter_character_source@V?$stream_input_adapter@D@__crt_stdio_input@@@__crt_strtox@@QEAAXD@Z 0000000140058b14 f i libucrt:input.obj
 0001:00057b68       ?unget@?$input_adapter_character_source@V?$stream_input_adapter@_W@__crt_stdio_input@@@__crt_strtox@@QEAAX_W@Z 0000000140058b68 f i libucrt:input.obj
 0001:00057bc0       ?unget@?$input_adapter_character_source@V?$string_input_adapter@D@__crt_stdio_input@@@__crt_strtox@@QEAAXD@Z 0000000140058bc0 f i libucrt:input.obj
 0001:00057c00       ?unget@?$input_adapter_character_source@V?$string_input_adapter@_W@__crt_stdio_input@@@__crt_strtox@@QEAAX_W@Z 0000000140058c00 f i libucrt:input.obj
 0001:00057c48       ?unget@?$stream_input_adapter@D@__crt_stdio_input@@QEAAXH@Z 0000000140058c48 f i libucrt:input.obj
 0001:00057c70       ?unget@?$stream_input_adapter@_W@__crt_stdio_input@@QEAAXG@Z 0000000140058c70 f i libucrt:input.obj
 0001:00057ca0       ?unget@?$string_input_adapter@D@__crt_stdio_input@@QEAAXH@Z 0000000140058ca0 f i libucrt:input.obj
 0001:00057cc4       ?unget@?$string_input_adapter@_W@__crt_stdio_input@@QEAAXG@Z 0000000140058cc4 f i libucrt:input.obj
 0001:00057cf4       ?validate@?$format_string_parser@D@__crt_stdio_input@@QEBA_NXZ 0000000140058cf4 f i libucrt:input.obj
 0001:00057d24       ?validate@?$format_string_parser@_W@__crt_stdio_input@@QEBA_NXZ 0000000140058d24 f i libucrt:input.obj
 0001:00057d54       ?validate@?$input_adapter_character_source@V?$stream_input_adapter@D@__crt_stdio_input@@@__crt_strtox@@QEBA_NXZ 0000000140058d54 f i libucrt:input.obj
 0001:00057d8c       ?validate@?$input_adapter_character_source@V?$stream_input_adapter@_W@__crt_stdio_input@@@__crt_strtox@@QEBA_NXZ 0000000140058d8c f i libucrt:input.obj
 0001:00057dc4       ?validate@?$input_adapter_character_source@V?$string_input_adapter@D@__crt_stdio_input@@@__crt_strtox@@QEBA_NXZ 0000000140058dc4 f i libucrt:input.obj
 0001:00057dfc       ?validate@?$input_adapter_character_source@V?$string_input_adapter@_W@__crt_stdio_input@@@__crt_strtox@@QEBA_NXZ 0000000140058dfc f i libucrt:input.obj
 0001:00057e34       ?validate@?$stream_input_adapter@D@__crt_stdio_input@@QEBA_NXZ 0000000140058e34 f i libucrt:input.obj
 0001:00057e6c       ?validate@?$stream_input_adapter@_W@__crt_stdio_input@@QEBA_NXZ 0000000140058e6c f i libucrt:input.obj
 0001:00057e9c       ?validate@?$string_input_adapter@D@__crt_stdio_input@@QEAA_NXZ 0000000140058e9c f i libucrt:input.obj
 0001:00057ed8       ?validate@?$string_input_adapter@_W@__crt_stdio_input@@QEAA_NXZ 0000000140058ed8 f i libucrt:input.obj
 0001:00057f14       ?wide_character_to_digit@__crt_strtox@@YAH_W@Z 0000000140058f14 f i libucrt:input.obj
 0001:0005811c       ?width@?$format_string_parser@D@__crt_stdio_input@@QEBA_KXZ 000000014005911c f i libucrt:input.obj
 0001:00058124       ?width@?$format_string_parser@_W@__crt_stdio_input@@QEBA_KXZ 0000000140059124 f i libucrt:input.obj
 0001:0005812c       ?write_character@?$input_processor@DV?$stream_input_adapter@D@__crt_stdio_input@@@__crt_stdio_input@@AEAA_NQEAD_KAEAPEADAEA_KD@Z 000000014005912c f i libucrt:input.obj
 0001:00058148       ?write_character@?$input_processor@DV?$stream_input_adapter@D@__crt_stdio_input@@@__crt_stdio_input@@AEAA_NQEFA_W_KAEAPEFA_WAEA_KD@Z 0000000140059148 f i libucrt:input.obj
 0001:00058200       ?write_character@?$input_processor@DV?$string_input_adapter@D@__crt_stdio_input@@@__crt_stdio_input@@AEAA_NQEAD_KAEAPEADAEA_KD@Z 0000000140059200 f i libucrt:input.obj
 0001:0005821c       ?write_character@?$input_processor@DV?$string_input_adapter@D@__crt_stdio_input@@@__crt_stdio_input@@AEAA_NQEFA_W_KAEAPEFA_WAEA_KD@Z 000000014005921c f i libucrt:input.obj
 0001:000582d8       ?write_character@?$input_processor@_WV?$stream_input_adapter@_W@__crt_stdio_input@@@__crt_stdio_input@@AEAA_NQEAD_KAEAPEADAEA_K_W@Z 00000001400592d8 f i libucrt:input.obj
 0001:000583ac       ?write_character@?$input_processor@_WV?$stream_input_adapter@_W@__crt_stdio_input@@@__crt_stdio_input@@AEAA_NQEFA_W_KAEAPEFA_WAEA_K_W@Z 00000001400593ac f i libucrt:input.obj
 0001:000583cc       ?write_character@?$input_processor@_WV?$string_input_adapter@_W@__crt_stdio_input@@@__crt_stdio_input@@AEAA_NQEAD_KAEAPEADAEA_K_W@Z 00000001400593cc f i libucrt:input.obj
 0001:000584a0       ?write_character@?$input_processor@_WV?$string_input_adapter@_W@__crt_stdio_input@@@__crt_stdio_input@@AEAA_NQEFA_W_KAEAPEFA_WAEA_K_W@Z 00000001400594a0 f i libucrt:input.obj
 0001:000584c0       ?write_integer@?$input_processor@DV?$stream_input_adapter@D@__crt_stdio_input@@@__crt_stdio_input@@AEAA_N_K@Z 00000001400594c0 f i libucrt:input.obj
 0001:00058550       ?write_integer@?$input_processor@DV?$string_input_adapter@D@__crt_stdio_input@@@__crt_stdio_input@@AEAA_N_K@Z 0000000140059550 f i libucrt:input.obj
 0001:000585e8       ?write_integer@?$input_processor@_WV?$stream_input_adapter@_W@__crt_stdio_input@@@__crt_stdio_input@@AEAA_N_K@Z 00000001400595e8 f i libucrt:input.obj
 0001:00058678       ?write_integer@?$input_processor@_WV?$string_input_adapter@_W@__crt_stdio_input@@@__crt_stdio_input@@AEAA_N_K@Z 0000000140059678 f i libucrt:input.obj
 0001:00058708       __acrt_get_locale_data_prefix 0000000140059708 f i libucrt:input.obj
 0001:0005870c       __ascii_iswalpha           000000014005970c f i libucrt:input.obj
 0001:0005872c       __ascii_toupper            000000014005972c f i libucrt:input.obj
 0001:00058740       __ascii_towupper           0000000140059740 f i libucrt:input.obj
 0001:00058750       __stdio_common_vfscanf     0000000140059750 f   libucrt:input.obj
 0001:00058800       __stdio_common_vfwscanf    0000000140059800 f   libucrt:input.obj
 0001:000588b0       __stdio_common_vsscanf     00000001400598b0 f   libucrt:input.obj
 0001:00058a00       __stdio_common_vswscanf    0000000140059a00 f   libucrt:input.obj
 0001:00058b40       _chvalidchk_l              0000000140059b40 f i libucrt:input.obj
 0001:00058bbc       _invoke_watson_if_oneof    0000000140059bbc f i libucrt:input.obj
 0001:00058c08       _ischartype_l              0000000140059c08 f i libucrt:input.obj
 0001:00058d60       strncmp                    0000000140059d60 f   libucrt:strncmp.obj
 0001:00058e24       _seh_filter_dll            0000000140059e24 f   libucrt:exception_filter.obj
 0001:00058e3c       _seh_filter_exe            0000000140059e3c f   libucrt:exception_filter.obj
 0001:0005912c       __acrt_report_runtime_error 000000014005a12c f   libucrt:report_runtime_error.obj
 0001:000592e0       _invoke_watson_if_error    000000014005a2e0 f i libucrt:report_runtime_error.obj
 0001:00059320       _query_app_type            000000014005a320 f   libucrt:report_runtime_error.obj
 0001:00059328       _set_app_type              000000014005a328 f   libucrt:report_runtime_error.obj
 0001:00059330       ??$__crt_fast_decode_pointer@P6AHPEAU_exception@@@Z@@YAP6AHPEAU_exception@@@ZQ6AH0@Z@Z 000000014005a330 f i libucrt:matherr.obj
 0001:0005934c       ??$__crt_fast_encode_pointer@P6AHPEAU_exception@@@Z@@YAP6AHPEAU_exception@@@ZQ6AH0@Z@Z 000000014005a34c f i libucrt:matherr.obj
 0001:00059374       ?get_current_state_index@__crt_state_management@@YA_KXZ 000000014005a374 f i libucrt:matherr.obj
 0001:00059378       ?initialize@?$dual_state_global@P6AHPEAU_exception@@@Z@__crt_state_management@@QEAAXQ6AHPEAU_exception@@@Z@Z 000000014005a378 f i libucrt:matherr.obj
 0001:000593a8       ?value@?$dual_state_global@P6AHPEAU_exception@@@Z@__crt_state_management@@QEAAAEAP6AHPEAU_exception@@@ZXZ 000000014005a3a8 f i libucrt:matherr.obj
 0001:000593ac       __acrt_has_user_matherr    000000014005a3ac f   libucrt:matherr.obj
 0001:000593d0       __acrt_initialize_user_matherr 000000014005a3d0 f   libucrt:matherr.obj
 0001:000593dc       __acrt_invoke_user_matherr 000000014005a3dc f   libucrt:matherr.obj
 0001:00059418       __setusermatherr           000000014005a418 f   libucrt:matherr.obj
 0001:00059448       ??$?RPEAD@__crt_internal_free_policy@@QEBAXQEBQEAD@Z 000000014005a448 f i libucrt:argv_parsing.obj
 0001:00059454       ??$?RPEA_W@__crt_internal_free_policy@@QEBAXQEBQEA_W@Z 000000014005a454 f i libucrt:argv_parsing.obj
 0001:00059804       ??$get_module_file_name@$$TAEAY0BAF@DH@?$__crt_char_traits@D@@SAK$$QEA$$TAEAY0BAF@D$$QEAH@Z 000000014005a804 f i libucrt:argv_parsing.obj
 0001:00059814       ??$get_module_file_name@$$TAEAY0BAF@_WH@?$__crt_char_traits@_W@@SAK$$QEA$$TAEAY0BAF@_W$$QEAH@Z 000000014005a814 f i libucrt:argv_parsing.obj
 0001:00059c5c       ??$set_program_name@PEAD@?$__crt_char_traits@D@@SAX$$QEAPEAD@Z 000000014005ac5c f i libucrt:argv_parsing.obj
 0001:00059c6c       ??$set_program_name@PEA_W@?$__crt_char_traits@_W@@SAX$$QEAPEA_W@Z 000000014005ac6c f i libucrt:argv_parsing.obj
 0001:00059c8c       ??0?$__crt_unique_heap_ptr@PEADU__crt_internal_free_policy@@@@QEAA@QEAPEAD@Z 000000014005ac8c f i libucrt:argv_parsing.obj
 0001:00059c94       ??0?$__crt_unique_heap_ptr@PEA_WU__crt_internal_free_policy@@@@QEAA@QEAPEA_W@Z 000000014005ac94 f i libucrt:argv_parsing.obj
 0001:00059c9c       ??1?$__crt_unique_heap_ptr@PEADU__crt_internal_free_policy@@@@QEAA@XZ 000000014005ac9c f i libucrt:argv_parsing.obj
 0001:00059cc0       ??1?$__crt_unique_heap_ptr@PEA_WU__crt_internal_free_policy@@@@QEAA@XZ 000000014005acc0 f i libucrt:argv_parsing.obj
 0001:00059d2c       ?detach@?$__crt_unique_heap_ptr@EU__crt_internal_free_policy@@@@QEAAPEAEXZ 000000014005ad2c f i libucrt:argv_parsing.obj
 0001:00059d38       ?detach@?$__crt_unique_heap_ptr@PEADU__crt_internal_free_policy@@@@QEAAPEAPEADXZ 000000014005ad38 f i libucrt:argv_parsing.obj
 0001:00059d44       ?detach@?$__crt_unique_heap_ptr@PEA_WU__crt_internal_free_policy@@@@QEAAPEAPEA_WXZ 000000014005ad44 f i libucrt:argv_parsing.obj
 0001:00059d6c       ?get@?$__crt_unique_heap_ptr@PEADU__crt_internal_free_policy@@@@QEBAPEAPEADXZ 000000014005ad6c f i libucrt:argv_parsing.obj
 0001:00059d70       ?get@?$__crt_unique_heap_ptr@PEA_WU__crt_internal_free_policy@@@@QEBAPEAPEA_WXZ 000000014005ad70 f i libucrt:argv_parsing.obj
 0001:00059d74       ?get_address_of@?$__crt_unique_heap_ptr@PEADU__crt_internal_free_policy@@@@QEAAPEAPEAPEADXZ 000000014005ad74 f i libucrt:argv_parsing.obj
 0001:00059d78       ?get_address_of@?$__crt_unique_heap_ptr@PEA_WU__crt_internal_free_policy@@@@QEAAPEAPEAPEA_WXZ 000000014005ad78 f i libucrt:argv_parsing.obj
 0001:00059dac       ?release@?$__crt_unique_heap_ptr@PEADU__crt_internal_free_policy@@@@QEAAXXZ 000000014005adac f i libucrt:argv_parsing.obj
 0001:00059dd0       ?release@?$__crt_unique_heap_ptr@PEA_WU__crt_internal_free_policy@@@@QEAAXXZ 000000014005add0 f i libucrt:argv_parsing.obj
 0001:00059e14       __acrt_allocate_buffer_for_argv 000000014005ae14 f   libucrt:argv_parsing.obj
 0001:00059e88       _configure_narrow_argv     000000014005ae88 f   libucrt:argv_parsing.obj
 0001:0005a070       _configure_wide_argv       000000014005b070 f   libucrt:argv_parsing.obj
 0001:0005a254       _set_pgmptr                000000014005b254 f i libucrt:argv_parsing.obj
 0001:0005a260       _set_wpgmptr               000000014005b260 f i libucrt:argv_parsing.obj
 0001:0005a26c       ??$?R_W@__crt_internal_free_policy@@QEBAXQEB_W@Z 000000014005b26c f i libucrt:environment_initialization.obj
 0001:0005a8b4       ??$get_environment_from_os@$$V@?$__crt_char_traits@D@@SAPEADXZ 000000014005b8b4 f i libucrt:environment_initialization.obj
 0001:0005a8bc       ??$get_environment_from_os@$$V@?$__crt_char_traits@_W@@SAPEA_WXZ 000000014005b8bc f i libucrt:environment_initialization.obj
 0001:0005aaac       ??$set_variable_in_environment_nolock@PEADH@?$__crt_char_traits@D@@SAH$$QEAPEAD$$QEAH@Z 000000014005baac f i libucrt:environment_initialization.obj
 0001:0005aab8       ??$set_variable_in_environment_nolock@PEA_WH@?$__crt_char_traits@_W@@SAH$$QEAPEA_W$$QEAH@Z 000000014005bab8 f i libucrt:environment_initialization.obj
 0001:0005aac4       ??$tcscpy_s@PEADAEB_KAEAPEAD@?$__crt_char_traits@D@@SAH$$QEAPEADAEB_KAEAPEAD@Z 000000014005bac4 f i libucrt:environment_initialization.obj
 0001:0005aad8       ??$tcscpy_s@PEA_WAEB_KAEAPEA_W@?$__crt_char_traits@_W@@SAH$$QEAPEA_WAEB_KAEAPEA_W@Z 000000014005bad8 f i libucrt:environment_initialization.obj
 0001:0005aaec       ??$tcslen@AEAPEAD@?$__crt_char_traits@D@@SA_KAEAPEAD@Z 000000014005baec f i libucrt:environment_initialization.obj
 0001:0005ab04       ??$tcslen@AEAPEA_W@?$__crt_char_traits@_W@@SA_KAEAPEA_W@Z 000000014005bb04 f i libucrt:environment_initialization.obj
 0001:0005ab1c       ??$uninitialize@A6AXAEAPEAPEAD@Z@?$dual_state_global@PEAPEAD@__crt_state_management@@QEAAXA6AXAEAPEAPEAD@Z@Z 000000014005bb1c f i libucrt:environment_initialization.obj
 0001:0005ab70       ??$uninitialize@A6AXAEAPEAPEA_W@Z@?$dual_state_global@PEAPEA_W@__crt_state_management@@QEAAXA6AXAEAPEAPEA_W@Z@Z 000000014005bb70 f i libucrt:environment_initialization.obj
 0001:0005ac04       ??0?$__crt_unique_heap_ptr@_WU__crt_internal_free_policy@@@@QEAA@QEA_W@Z 000000014005bc04 f i libucrt:environment_initialization.obj
 0001:0005ac0c       ??1?$__crt_unique_heap_ptr@_WU__crt_internal_free_policy@@@@QEAA@XZ 000000014005bc0c f i libucrt:environment_initialization.obj
 0001:0005ac30       ??B?$__crt_unique_heap_ptr@PEADU__crt_internal_free_policy@@@@QEBA_NXZ 000000014005bc30 f i libucrt:environment_initialization.obj
 0001:0005ac3c       ??B?$__crt_unique_heap_ptr@PEA_WU__crt_internal_free_policy@@@@QEBA_NXZ 000000014005bc3c f i libucrt:environment_initialization.obj
 0001:0005ac48       ??B?$__crt_unique_heap_ptr@_WU__crt_internal_free_policy@@@@QEBA_NXZ 000000014005bc48 f i libucrt:environment_initialization.obj
 0001:0005ac54       ?__crt_compute_required_transform_buffer_count@@YA_KIQEBD@Z 000000014005bc54 f i libucrt:environment_initialization.obj
 0001:0005ac84       ?__crt_compute_required_transform_buffer_count@@YA_KIQEB_W@Z 000000014005bc84 f i libucrt:environment_initialization.obj
 0001:0005acc0       ?__crt_transform_string@@YA_KIQEBDQEA_W_K@Z 000000014005bcc0 f i libucrt:environment_initialization.obj
 0001:0005acec       ?__crt_transform_string@@YA_KIQEB_WQEAD_K@Z 000000014005bcec f i libucrt:environment_initialization.obj
 0001:0005ad28       ?detach@?$__crt_unique_heap_ptr@DU__crt_internal_free_policy@@@@QEAAPEADXZ 000000014005bd28 f i libucrt:environment_initialization.obj
 0001:0005ad34       ?detach@?$__crt_unique_heap_ptr@_WU__crt_internal_free_policy@@@@QEAAPEA_WXZ 000000014005bd34 f i libucrt:environment_initialization.obj
 0001:0005ad40       ?get@?$__crt_unique_heap_ptr@_WU__crt_internal_free_policy@@@@QEBAPEA_WXZ 000000014005bd40 f i libucrt:environment_initialization.obj
 0001:0005ad8c       ?initialize@?$dual_state_global@PEAPEAD@__crt_state_management@@QEAAXQEAPEAD@Z 000000014005bd8c f i libucrt:environment_initialization.obj
 0001:0005adbc       ?initialize@?$dual_state_global@PEAPEA_W@__crt_state_management@@QEAAXQEAPEA_W@Z 000000014005bdbc f i libucrt:environment_initialization.obj
 0001:0005adec       ?is_valid@?$__crt_unique_heap_ptr@PEADU__crt_internal_free_policy@@@@QEBA_NXZ 000000014005bdec f i libucrt:environment_initialization.obj
 0001:0005adf8       ?is_valid@?$__crt_unique_heap_ptr@PEA_WU__crt_internal_free_policy@@@@QEBA_NXZ 000000014005bdf8 f i libucrt:environment_initialization.obj
 0001:0005ae04       ?is_valid@?$__crt_unique_heap_ptr@_WU__crt_internal_free_policy@@@@QEBA_NXZ 000000014005be04 f i libucrt:environment_initialization.obj
 0001:0005ae1c       ?release@?$__crt_unique_heap_ptr@_WU__crt_internal_free_policy@@@@QEAAXXZ 000000014005be1c f i libucrt:environment_initialization.obj
 0001:0005ae40       ?value@?$dual_state_global@PEAPEAD@__crt_state_management@@QEAAAEAPEAPEADXZ 000000014005be40 f i libucrt:environment_initialization.obj
 0001:0005ae44       ?value@?$dual_state_global@PEAPEA_W@__crt_state_management@@QEAAAEAPEAPEA_WXZ 000000014005be44 f i libucrt:environment_initialization.obj
 0001:0005ae48       __dcrt_get_or_create_narrow_environment_nolock 000000014005be48 f   libucrt:environment_initialization.obj
 0001:0005ae94       __dcrt_get_or_create_wide_environment_nolock 000000014005be94 f   libucrt:environment_initialization.obj
 0001:0005aee0       __dcrt_uninitialize_environments_nolock 000000014005bee0 f   libucrt:environment_initialization.obj
 0001:0005af28       __p__environ               000000014005bf28 f   libucrt:environment_initialization.obj
 0001:0005af34       __p__wenviron              000000014005bf34 f   libucrt:environment_initialization.obj
 0001:0005af40       _get_initial_narrow_environment 000000014005bf40 f   libucrt:environment_initialization.obj
 0001:0005afa4       _get_initial_wide_environment 000000014005bfa4 f   libucrt:environment_initialization.obj
 0001:0005b008       _initialize_narrow_environment 000000014005c008 f   libucrt:environment_initialization.obj
 0001:0005b010       _initialize_wide_environment 000000014005c010 f   libucrt:environment_initialization.obj
 0001:0005b018       _initterm                  000000014005c018 f   libucrt:initterm.obj
 0001:0005b098       _initterm_e                000000014005c098 f   libucrt:initterm.obj
 0001:0005b0e4       ??$__crt_interlocked_read@H@@YAHPEDH@Z 000000014005c0e4 f i libucrt:setmode.obj
 0001:0005b0e8       ?value@?$dual_state_global@H@__crt_state_management@@QEAAAEAHXZ 000000014005c0e8 f i libucrt:setmode.obj
 0001:0005b0ec       _get_fmode                 000000014005c0ec f   libucrt:setmode.obj
 0001:0005b128       _set_fmode                 000000014005c128 f   libucrt:setmode.obj
 0001:0005b174       _setmode                   000000014005c174 f   libucrt:setmode.obj
 0001:0005b2b8       _setmode_nolock            000000014005c2b8 f   libucrt:setmode.obj
 0001:0005b3d0       __acrt_initialize_command_line 000000014005c3d0 f   libucrt:argv_data.obj
 0001:0005b400       __acrt_uninitialize_command_line 000000014005c400 f   libucrt:argv_data.obj
 0001:0005b404       __p___argc                 000000014005c404 f   libucrt:argv_data.obj
 0001:0005b410       __p___argv                 000000014005c410 f   libucrt:argv_data.obj
 0001:0005b41c       __p___wargv                000000014005c41c f   libucrt:argv_data.obj
 0001:0005b428       __p__acmdln                000000014005c428 f   libucrt:argv_data.obj
 0001:0005b434       __p__pgmptr                000000014005c434 f   libucrt:argv_data.obj
 0001:0005b440       __p__wcmdln                000000014005c440 f   libucrt:argv_data.obj
 0001:0005b44c       __p__wpgmptr               000000014005c44c f   libucrt:argv_data.obj
 0001:0005b458       _get_pgmptr                000000014005c458 f   libucrt:argv_data.obj
 0001:0005b49c       _get_wpgmptr               000000014005c49c f   libucrt:argv_data.obj
 0001:0005b4e4       ??$?RU__crt_locale_data@@@__crt_internal_free_policy@@QEBAXQEBU__crt_locale_data@@@Z 000000014005c4e4 f i libucrt:wsetlocale.obj
 0001:0005b4f0       ??$?RU__crt_locale_pointers@@@__crt_internal_free_policy@@QEBAXQEBU__crt_locale_pointers@@@Z 000000014005c4f0 f i libucrt:wsetlocale.obj
 0001:0005b4fc       ??$?RU__crt_multibyte_data@@@__crt_internal_free_policy@@QEBAXQEBU__crt_multibyte_data@@@Z 000000014005c4fc f i libucrt:wsetlocale.obj
 0001:0005ba04       ??0?$__crt_unique_heap_ptr@U__crt_locale_data@@U__crt_internal_free_policy@@@@QEAA@QEAU__crt_locale_data@@@Z 000000014005ca04 f i libucrt:wsetlocale.obj
 0001:0005ba0c       ??0?$__crt_unique_heap_ptr@U__crt_locale_pointers@@U__crt_internal_free_policy@@@@QEAA@QEAU__crt_locale_pointers@@@Z 000000014005ca0c f i libucrt:wsetlocale.obj
 0001:0005ba14       ??0?$__crt_unique_heap_ptr@U__crt_multibyte_data@@U__crt_internal_free_policy@@@@QEAA@QEAU__crt_multibyte_data@@@Z 000000014005ca14 f i libucrt:wsetlocale.obj
 0001:0005ba1c       ??0_expandlocale_locale_name_cache@@QEAA@QEA_W_KQEAU__crt_qualified_locale_data@@@Z 000000014005ca1c f i libucrt:wsetlocale.obj
 0001:0005ba8c       ??1?$__crt_unique_heap_ptr@U__crt_locale_data@@U__crt_internal_free_policy@@@@QEAA@XZ 000000014005ca8c f i libucrt:wsetlocale.obj
 0001:0005bab0       ??1?$__crt_unique_heap_ptr@U__crt_locale_pointers@@U__crt_internal_free_policy@@@@QEAA@XZ 000000014005cab0 f i libucrt:wsetlocale.obj
 0001:0005bad4       ??1?$__crt_unique_heap_ptr@U__crt_multibyte_data@@U__crt_internal_free_policy@@@@QEAA@XZ 000000014005cad4 f i libucrt:wsetlocale.obj
 0001:0005baf8       ??1_expandlocale_locale_name_cache@@QEAA@XZ 000000014005caf8 f i libucrt:wsetlocale.obj
 0001:0005bb54       ??B?$__crt_unique_heap_ptr@U__crt_locale_data@@U__crt_internal_free_policy@@@@QEBA_NXZ 000000014005cb54 f i libucrt:wsetlocale.obj
 0001:0005bb60       ??B?$__crt_unique_heap_ptr@U__crt_locale_pointers@@U__crt_internal_free_policy@@@@QEBA_NXZ 000000014005cb60 f i libucrt:wsetlocale.obj
 0001:0005bb6c       ??B?$__crt_unique_heap_ptr@U__crt_multibyte_data@@U__crt_internal_free_policy@@@@QEBA_NXZ 000000014005cb6c f i libucrt:wsetlocale.obj
 0001:0005be78       ?commit_locale_name@_expandlocale_locale_name_cache@@QEAAXQEB_W_K@Z 000000014005ce78 f i libucrt:wsetlocale.obj
 0001:0005bf0c       ?commit_locale_name_cache_already_updated@_expandlocale_locale_name_cache@@QEAAXQEB_W_K@Z 000000014005cf0c f i libucrt:wsetlocale.obj
 0001:0005bf5c       ?detach@?$__crt_unique_heap_ptr@U__crt_locale_data@@U__crt_internal_free_policy@@@@QEAAPEAU__crt_locale_data@@XZ 000000014005cf5c f i libucrt:wsetlocale.obj
 0001:0005bf68       ?detach@?$__crt_unique_heap_ptr@U__crt_locale_pointers@@U__crt_internal_free_policy@@@@QEAAPEAU__crt_locale_pointers@@XZ 000000014005cf68 f i libucrt:wsetlocale.obj
 0001:0005bf74       ?detach@?$__crt_unique_heap_ptr@U__crt_multibyte_data@@U__crt_internal_free_policy@@@@QEAAPEAU__crt_multibyte_data@@XZ 000000014005cf74 f i libucrt:wsetlocale.obj
 0001:0005bf80       ?get@?$__crt_unique_heap_ptr@U__crt_locale_data@@U__crt_internal_free_policy@@@@QEBAPEAU__crt_locale_data@@XZ 000000014005cf80 f i libucrt:wsetlocale.obj
 0001:0005bf84       ?get@?$__crt_unique_heap_ptr@U__crt_locale_pointers@@U__crt_internal_free_policy@@@@QEBAPEAU__crt_locale_pointers@@XZ 000000014005cf84 f i libucrt:wsetlocale.obj
 0001:0005bf88       ?get@?$__crt_unique_heap_ptr@U__crt_multibyte_data@@U__crt_internal_free_policy@@@@QEBAPEAU__crt_multibyte_data@@XZ 000000014005cf88 f i libucrt:wsetlocale.obj
 0001:0005bf8c       ?is_valid@?$__crt_unique_heap_ptr@U__crt_locale_data@@U__crt_internal_free_policy@@@@QEBA_NXZ 000000014005cf8c f i libucrt:wsetlocale.obj
 0001:0005bf98       ?is_valid@?$__crt_unique_heap_ptr@U__crt_locale_pointers@@U__crt_internal_free_policy@@@@QEBA_NXZ 000000014005cf98 f i libucrt:wsetlocale.obj
 0001:0005bfa4       ?is_valid@?$__crt_unique_heap_ptr@U__crt_multibyte_data@@U__crt_internal_free_policy@@@@QEBA_NXZ 000000014005cfa4 f i libucrt:wsetlocale.obj
 0001:0005bfb0       ?release@?$__crt_unique_heap_ptr@U__crt_locale_data@@U__crt_internal_free_policy@@@@QEAAXXZ 000000014005cfb0 f i libucrt:wsetlocale.obj
 0001:0005bfd4       ?release@?$__crt_unique_heap_ptr@U__crt_locale_pointers@@U__crt_internal_free_policy@@@@QEAAXXZ 000000014005cfd4 f i libucrt:wsetlocale.obj
 0001:0005bff8       ?release@?$__crt_unique_heap_ptr@U__crt_multibyte_data@@U__crt_internal_free_policy@@@@QEAAXXZ 000000014005cff8 f i libucrt:wsetlocale.obj
 0001:0005c01c       ?value@?$dual_state_global@PEAU__crt_locale_data@@@__crt_state_management@@QEAAAEAPEAU__crt_locale_data@@XZ 000000014005d01c f i libucrt:wsetlocale.obj
 0001:0005c020       __acrt_copy_locale_name    000000014005d020 f   libucrt:wsetlocale.obj
 0001:0005c0c4       __acrt_set_locale_changed  000000014005d0c4 f   libucrt:wsetlocale.obj
 0001:0005c0d4       __acrt_uninitialize_locale 000000014005d0d4 f   libucrt:wsetlocale.obj
 0001:0005c110       __ascii_tolower            000000014005d110 f i libucrt:wsetlocale.obj
 0001:0005c124       __ascii_towlower           000000014005d124 f i libucrt:wsetlocale.obj
 0001:0005c134       __lc_lctowcs               000000014005d134 f   libucrt:wsetlocale.obj
 0001:0005c200       __lc_wcstolc               000000014005d200 f   libucrt:wsetlocale.obj
 0001:0005c3c0       _configthreadlocale        000000014005d3c0 f   libucrt:wsetlocale.obj
 0001:0005c534       _create_locale             000000014005d534 f   libucrt:wsetlocale.obj
 0001:0005cb64       _free_locale               000000014005db64 f   libucrt:wsetlocale.obj
 0001:0005cc30       _get_current_locale        000000014005dc30 f   libucrt:wsetlocale.obj
 0001:0005cd1c       _wcreate_locale            000000014005dd1c f   libucrt:wsetlocale.obj
 0001:0005ceb8       _wcscats                   000000014005deb8 f   libucrt:wsetlocale.obj
 0001:0005cf38       _wsetlocale                000000014005df38 f   libucrt:wsetlocale.obj
 0001:0005e0fc       ?value@?$dual_state_global@J@__crt_state_management@@QEAAAEAJXZ 000000014005f0fc f i libucrt:new_mode.obj
 0001:0005e100       _query_new_mode            000000014005f100 f   libucrt:new_mode.obj
 0001:0005e108       _set_new_mode              000000014005f108 f   libucrt:new_mode.obj
 0001:0005e140       __p__commode               000000014005f140 f   libucrt:ncommode.obj
 0001:0005e14c       ??$?B$$A6AXXZ@__crt_fast_encoded_nullptr_t@@QEBAP6AXXZXZ 000000014005f14c f i libucrt:onexit.obj
 0001:0005e158       ??$?BP6AXXZ@__crt_fast_encoded_nullptr_t@@QEBAPEAP6AXXZXZ 000000014005f158 f i libucrt:onexit.obj
 0001:0005e164       ??$?RP6AXXZ@__crt_internal_free_policy@@QEBAXQEBQ6AXXZ@Z 000000014005f164 f i libucrt:onexit.obj
 0001:0005e268       ??$__crt_fast_decode_pointer@P6AXXZ@@YAP6AXXZQ6AXXZ@Z 000000014005f268 f i libucrt:onexit.obj
 0001:0005e284       ??$__crt_fast_decode_pointer@PEAP6AXXZ@@YAPEAP6AXXZQEAP6AXXZ@Z 000000014005f284 f i libucrt:onexit.obj
 0001:0005e2a0       ??$__crt_fast_encode_pointer@P6AHXZ@@YAP6AHXZQ6AHXZ@Z 000000014005f2a0 f i libucrt:onexit.obj
 0001:0005e2c8       ??$__crt_fast_encode_pointer@P6AXXZ@@YAP6AXXZQ6AXXZ@Z 000000014005f2c8 f i libucrt:onexit.obj
 0001:0005e2f0       ??$__crt_fast_encode_pointer@PEAP6AXXZ@@YAPEAP6AXXZQEAP6AXXZ@Z 000000014005f2f0 f i libucrt:onexit.obj
 0001:0005e360       ??0?$__crt_unique_heap_ptr@P6AXXZU__crt_internal_free_policy@@@@QEAA@QEAP6AXXZ@Z 000000014005f360 f i libucrt:onexit.obj
 0001:0005e368       ??1?$__crt_unique_heap_ptr@P6AXXZU__crt_internal_free_policy@@@@QEAA@XZ 000000014005f368 f i libucrt:onexit.obj
 0001:0005e38c       ??1scoped_global_state_reset@__crt_state_management@@QEAA@XZ 000000014005f38c f i libucrt:onexit.obj
 0001:0005e728       ?detach@?$__crt_unique_heap_ptr@P6AXXZU__crt_internal_free_policy@@@@QEAAPEAP6AXXZXZ 000000014005f728 f i libucrt:onexit.obj
 0001:0005e734       ?release@?$__crt_unique_heap_ptr@P6AXXZU__crt_internal_free_policy@@@@QEAAXXZ 000000014005f734 f i libucrt:onexit.obj
 0001:0005e758       _crt_at_quick_exit         000000014005f758 f   libucrt:onexit.obj
 0001:0005e76c       _crt_atexit                000000014005f76c f   libucrt:onexit.obj
 0001:0005e780       _execute_onexit_table      000000014005f780 f   libucrt:onexit.obj
 0001:0005e7c8       _initialize_onexit_table   000000014005f7c8 f   libucrt:onexit.obj
 0001:0005e7f8       _register_onexit_function  000000014005f7f8 f   libucrt:onexit.obj
 0001:0005e9d8       ??$?BX@__crt_fast_encoded_nullptr_t@@QEBAPEAXXZ 000000014005f9d8 f i libucrt:initialization.obj
 0001:0005e9e4       ??$__crt_fast_encode_pointer@PEAX@@YAPEAXQEAX@Z 000000014005f9e4 f i libucrt:initialization.obj
 0001:0005eae8       ?__acrt_stdio_is_initialized@@YA_NXZ 000000014005fae8 f i libucrt:initialization.obj
 0001:0005eaf8       ?initialize@?$dual_state_global@PEAU__crt_locale_data@@@__crt_state_management@@QEAAXQEAU__crt_locale_data@@@Z 000000014005faf8 f i libucrt:initialization.obj
 0001:0005eb28       __acrt_initialize          000000014005fb28 f   libucrt:initialization.obj
 0001:0005eb40       __acrt_thread_attach       000000014005fb40 f   libucrt:initialization.obj
 0001:0005eb5c       __acrt_thread_detach       000000014005fb5c f   libucrt:initialization.obj
 0001:0005eb70       __acrt_uninitialize        000000014005fb70 f   libucrt:initialization.obj
 0001:0005ebb4       __acrt_uninitialize_critical 000000014005fbb4 f   libucrt:initialization.obj
 0001:0005ebe0       _get_terminate             000000014005fbe0 f   libucrt:terminate.obj
 0001:0005ec0c       set_terminate              000000014005fc0c f   libucrt:terminate.obj
 0001:0005ec44       terminate                  000000014005fc44 f   libucrt:terminate.obj
 0001:0005ece8       strcpy_s                   000000014005fce8 f   libucrt:strcpy_s.obj
 0001:0005ed60       _set_abort_behavior        000000014005fd60 f   libucrt:abort.obj
 0001:0005ed84       abort                      000000014005fd84 f   libucrt:abort.obj
 0001:0005edf0       calloc                     000000014005fdf0 f   libucrt:calloc.obj
 0001:0005edf8       ??$is_overflow_condition@K@__crt_strtox@@YA_NIK@Z 000000014005fdf8 f i libucrt:atox.obj
 0001:0005ee28       ??$make_c_string_character_source@D$$T@__crt_strtox@@YA?AV?$c_string_character_source@D@0@QEBD$$T@Z 000000014005fe28 f i libucrt:atox.obj
 0001:0005ee40       ??$make_c_string_character_source@_W$$T@__crt_strtox@@YA?AV?$c_string_character_source@_W@0@QEB_W$$T@Z 000000014005fe40 f i libucrt:atox.obj
 0001:0005ee58       ??$parse_integer@KV?$c_string_character_source@D@__crt_strtox@@@__crt_strtox@@YAKQEAU__crt_locale_pointers@@V?$c_string_character_source@D@0@H_N@Z 000000014005fe58 f i libucrt:atox.obj
 0001:0005f21c       ??$parse_integer@KV?$c_string_character_source@_W@__crt_strtox@@@__crt_strtox@@YAKQEAU__crt_locale_pointers@@V?$c_string_character_source@_W@0@H_N@Z 000000014006021c f i libucrt:atox.obj
 0001:0005fa6c       ??$parse_integer@_KV?$c_string_character_source@D@__crt_strtox@@@__crt_strtox@@YA_KQEAU__crt_locale_pointers@@V?$c_string_character_source@D@0@H_N@Z 0000000140060a6c f i libucrt:atox.obj
 0001:0005fe14       ??$parse_integer@_KV?$c_string_character_source@_W@__crt_strtox@@@__crt_strtox@@YA_KQEAU__crt_locale_pointers@@V?$c_string_character_source@_W@0@H_N@Z 0000000140060e14 f i libucrt:atox.obj
 0001:00060740       ??$parse_integer_from_string@JD$$T@__crt_strtox@@YAJQEBD$$THQEAU__crt_locale_pointers@@@Z 0000000140061740 f i libucrt:atox.obj
 0001:0006077c       ??$parse_integer_from_string@J_W$$T@__crt_strtox@@YAJQEB_W$$THQEAU__crt_locale_pointers@@@Z 000000014006177c f i libucrt:atox.obj
 0001:000607b8       ??$parse_integer_from_string@_JD$$T@__crt_strtox@@YA_JQEBD$$THQEAU__crt_locale_pointers@@@Z 00000001400617b8 f i libucrt:atox.obj
 0001:000607f4       ??$parse_integer_from_string@_J_W$$T@__crt_strtox@@YA_JQEB_W$$THQEAU__crt_locale_pointers@@@Z 00000001400617f4 f i libucrt:atox.obj
 0001:00060830       ??0?$c_string_character_source@D@__crt_strtox@@QEAA@QEBDQEAPEBD@Z 0000000140061830 f i libucrt:atox.obj
 0001:00060848       ??0?$c_string_character_source@_W@__crt_strtox@@QEAA@QEB_WQEAPEB_W@Z 0000000140061848 f i libucrt:atox.obj
 0001:00060860       ??1?$c_string_character_source@D@__crt_strtox@@QEAA@XZ 0000000140061860 f i libucrt:atox.obj
 0001:00060874       ??1?$c_string_character_source@_W@__crt_strtox@@QEAA@XZ 0000000140061874 f i libucrt:atox.obj
 0001:00060888       ?get@?$c_string_character_source@D@__crt_strtox@@QEAADXZ 0000000140061888 f i libucrt:atox.obj
 0001:00060898       ?get@?$c_string_character_source@_W@__crt_strtox@@QEAA_WXZ 0000000140061898 f i libucrt:atox.obj
 0001:000608ac       ?maximum_signed_value@__crt_strtox@@YAJK@Z 00000001400618ac f i libucrt:atox.obj
 0001:000608b4       ?minimum_signed_value@__crt_strtox@@YAJK@Z 00000001400618b4 f i libucrt:atox.obj
 0001:000608bc       ?restore_state@?$c_string_character_source@D@__crt_strtox@@QEAA_NQEBD@Z 00000001400618bc f i libucrt:atox.obj
 0001:000608c4       ?restore_state@?$c_string_character_source@_W@__crt_strtox@@QEAA_NQEB_W@Z 00000001400618c4 f i libucrt:atox.obj
 0001:000608cc       ?save_state@?$c_string_character_source@D@__crt_strtox@@QEBAPEBDXZ 00000001400618cc f i libucrt:atox.obj
 0001:000608d0       ?save_state@?$c_string_character_source@_W@__crt_strtox@@QEBAPEB_WXZ 00000001400618d0 f i libucrt:atox.obj
 0001:000608d4       ?unget@?$c_string_character_source@D@__crt_strtox@@QEAAXD@Z 00000001400618d4 f i libucrt:atox.obj
 0001:00060908       ?unget@?$c_string_character_source@_W@__crt_strtox@@QEAAX_W@Z 0000000140061908 f i libucrt:atox.obj
 0001:00060940       ?validate@?$c_string_character_source@D@__crt_strtox@@QEBA_NXZ 0000000140061940 f i libucrt:atox.obj
 0001:00060970       ?validate@?$c_string_character_source@_W@__crt_strtox@@QEBA_NXZ 0000000140061970 f i libucrt:atox.obj
 0001:000609a0       _atoi64                    00000001400619a0 f   libucrt:atox.obj
 0001:000609d4       _atoi64_l                  00000001400619d4 f   libucrt:atox.obj
 0001:00060a0c       _atoi_l                    0000000140061a0c f   libucrt:atox.obj
 0001:00060a44       _atol_l                    0000000140061a44 f   libucrt:atox.obj
 0001:00060a7c       _atoll_l                   0000000140061a7c f   libucrt:atox.obj
 0001:00060ab4       _wtoi                      0000000140061ab4 f   libucrt:atox.obj
 0001:00060ae8       _wtoi64                    0000000140061ae8 f   libucrt:atox.obj
 0001:00060b1c       _wtoi64_l                  0000000140061b1c f   libucrt:atox.obj
 0001:00060b54       _wtoi_l                    0000000140061b54 f   libucrt:atox.obj
 0001:00060b8c       _wtol                      0000000140061b8c f   libucrt:atox.obj
 0001:00060bc0       _wtol_l                    0000000140061bc0 f   libucrt:atox.obj
 0001:00060bf8       _wtoll                     0000000140061bf8 f   libucrt:atox.obj
 0001:00060c2c       _wtoll_l                   0000000140061c2c f   libucrt:atox.obj
 0001:00060c64       atoi                       0000000140061c64 f   libucrt:atox.obj
 0001:00060c98       atol                       0000000140061c98 f   libucrt:atox.obj
 0001:00060ccc       atoll                      0000000140061ccc f   libucrt:atox.obj
 0001:00060d00       wcsncmp                    0000000140061d00 f   libucrt:wcsncmp.obj
 0001:00060d38       ??$__crt_fast_decode_pointer@P6AXPEB_W00I_K@Z@@YAP6AXPEB_W00I_K@ZQ6AX000I1@Z@Z 0000000140061d38 f i libucrt:invalid_parameter.obj
 0001:00060d54       ??$__crt_fast_encode_pointer@P6AXPEB_W00I_K@Z@@YAP6AXPEB_W00I_K@ZQ6AX000I1@Z@Z 0000000140061d54 f i libucrt:invalid_parameter.obj
 0001:00060d7c       ??$initialize_from_array@$$BY00Q6AXPEB_W00I_K@Z@?$dual_state_global@P6AXPEB_W00I_K@Z@__crt_state_management@@QEAAXAEAY00Q6AXPEB_W00I_K@Z@Z 0000000140061d7c f i libucrt:invalid_parameter.obj
 0001:00060e0c       ?dangerous_get_state_array@?$dual_state_global@P6AXPEB_W00I_K@Z@__crt_state_management@@QEAAPEAP6AXPEB_W00I_K@ZXZ 0000000140061e0c f i libucrt:invalid_parameter.obj
 0001:00060e10       ?value@?$dual_state_global@P6AXPEB_W00I_K@Z@__crt_state_management@@QEAAAEAP6AXPEB_W00I_K@ZXZ 0000000140061e10 f i libucrt:invalid_parameter.obj
 0001:00060e14       __acrt_call_reportfault    0000000140061e14 f   libucrt:invalid_parameter.obj
 0001:00060fc8       __acrt_initialize_invalid_parameter_handler 0000000140061fc8 f   libucrt:invalid_parameter.obj
 0001:00060fd4       _get_invalid_parameter_handler 0000000140061fd4 f   libucrt:invalid_parameter.obj
 0001:00060ff0       _get_thread_local_invalid_parameter_handler 0000000140061ff0 f   libucrt:invalid_parameter.obj
 0001:00061010       _invalid_parameter         0000000140062010 f   libucrt:invalid_parameter.obj
 0001:000610ec       _invalid_parameter_noinfo  00000001400620ec f   libucrt:invalid_parameter.obj
 0001:00061114       _invalid_parameter_noinfo_noreturn 0000000140062114 f   libucrt:invalid_parameter.obj
 0001:00061150       _invoke_watson             0000000140062150 f   libucrt:invalid_parameter.obj
 0001:000611a8       _set_invalid_parameter_handler 00000001400621a8 f   libucrt:invalid_parameter.obj
 0001:000611ec       _set_thread_local_invalid_parameter_handler 00000001400621ec f   libucrt:invalid_parameter.obj
 0001:0006121c       ??$?RU__acrt_ptd@@@__crt_internal_free_policy@@QEBAXQEBU__acrt_ptd@@@Z 000000014006221c f i libucrt:per_thread_data.obj
 0001:000614dc       ??0?$__crt_unique_heap_ptr@U__acrt_ptd@@U__crt_internal_free_policy@@@@QEAA@QEAU__acrt_ptd@@@Z 00000001400624dc f i libucrt:per_thread_data.obj
 0001:000614e4       ??0__crt_scoped_get_last_error_reset@@QEAA@XZ 00000001400624e4 f i libucrt:per_thread_data.obj
 0001:00061504       ??1?$__crt_unique_heap_ptr@U__acrt_ptd@@U__crt_internal_free_policy@@@@QEAA@XZ 0000000140062504 f i libucrt:per_thread_data.obj
 0001:00061528       ??1__crt_scoped_get_last_error_reset@@QEAA@XZ 0000000140062528 f i libucrt:per_thread_data.obj
 0001:00061534       ??B?$__crt_unique_heap_ptr@U__acrt_ptd@@U__crt_internal_free_policy@@@@QEBA_NXZ 0000000140062534 f i libucrt:per_thread_data.obj
 0001:00061804       ?dangerous_get_state_array@?$dual_state_global@PEAU__crt_locale_data@@@__crt_state_management@@QEAAPEAPEAU__crt_locale_data@@XZ 0000000140062804 f i libucrt:per_thread_data.obj
 0001:00061a98       ?detach@?$__crt_unique_heap_ptr@U__acrt_ptd@@U__crt_internal_free_policy@@@@QEAAPEAU__acrt_ptd@@XZ 0000000140062a98 f i libucrt:per_thread_data.obj
 0001:00061aa4       ?get@?$__crt_unique_heap_ptr@U__acrt_ptd@@U__crt_internal_free_policy@@@@QEBAPEAU__acrt_ptd@@XZ 0000000140062aa4 f i libucrt:per_thread_data.obj
 0001:00061aa8       ?get_current_state_index@__crt_state_management@@YA_KAEBV__crt_scoped_get_last_error_reset@@@Z 0000000140062aa8 f i libucrt:per_thread_data.obj
 0001:00061c70       ?is_valid@?$__crt_unique_heap_ptr@U__acrt_ptd@@U__crt_internal_free_policy@@@@QEBA_NXZ 0000000140062c70 f i libucrt:per_thread_data.obj
 0001:00061c7c       ?release@?$__crt_unique_heap_ptr@U__acrt_ptd@@U__crt_internal_free_policy@@@@QEAAXXZ 0000000140062c7c f i libucrt:per_thread_data.obj
 0001:00061d48       __acrt_freeptd             0000000140062d48 f   libucrt:per_thread_data.obj
 0001:00061d9c       __acrt_getptd              0000000140062d9c f   libucrt:per_thread_data.obj
 0001:00061ea8       __acrt_getptd_head         0000000140062ea8 f   libucrt:per_thread_data.obj
 0001:00061f78       __acrt_getptd_noexit       0000000140062f78 f   libucrt:per_thread_data.obj
 0001:00062078       __acrt_initialize_ptd      0000000140063078 f   libucrt:per_thread_data.obj
 0001:000620c0       __acrt_uninitialize_ptd    00000001400630c0 f   libucrt:per_thread_data.obj
 0001:000620ec       __threadhandle             00000001400630ec f   libucrt:per_thread_data.obj
 0001:000620f4       __threadid                 00000001400630f4 f   libucrt:per_thread_data.obj
 0001:00062108       _free_base                 0000000140063108 f   libucrt:free_base.obj
 0001:00062154       _malloc_base               0000000140063154 f   libucrt:malloc_base.obj
 0001:000621cc       _realloc_base              00000001400631cc f   libucrt:realloc_base.obj
 0001:00062314       _d_int                     0000000140063314 f   libucrt:_test.obj
 0001:00062470       _dtest                     0000000140063470 f   libucrt:_test.obj
 0001:000624ec       _fd_int                    00000001400634ec f   libucrt:_test.obj
 0001:000625f8       _fdtest                    00000001400635f8 f   libucrt:_test.obj
 0001:00062654       _fperrraise                0000000140063654 f   libucrt:_test.obj
 0001:00062734       _ld_int                    0000000140063734 f   libucrt:_test.obj
 0001:0006273c       _ldtest                    000000014006373c f   libucrt:_test.obj
 0001:00062744       __acrt_initialize_locks    0000000140063744 f   libucrt:locks.obj
 0001:000627a0       __acrt_lock                00000001400637a0 f   libucrt:locks.obj
 0001:000627c0       __acrt_uninitialize_locks  00000001400637c0 f   libucrt:locks.obj
 0001:00062804       __acrt_unlock              0000000140063804 f   libucrt:locks.obj
 0001:00062824       _lock_locales              0000000140063824 f   libucrt:locks.obj
 0001:00062848       _unlock_locales            0000000140063848 f   libucrt:locks.obj
 0001:00062a64       __acrt_get_begin_thread_init_policy 0000000140063a64 f   libucrt:win_policies.obj
 0001:00062acc       __acrt_get_developer_information_policy 0000000140063acc f   libucrt:win_policies.obj
 0001:00062b34       __acrt_get_process_end_policy 0000000140063b34 f   libucrt:win_policies.obj
 0001:00062b80       __acrt_get_windowing_model_policy 0000000140063b80 f   libucrt:win_policies.obj
 0001:00062c08       _calloc_base               0000000140063c08 f   libucrt:calloc_base.obj
 0001:00062cd0       ??$?B$$A6AHPEA_WK_J@Z@__crt_fast_encoded_nullptr_t@@QEBAP6AHPEA_WK_J@ZXZ 0000000140063cd0 f i libucrt:winapi_thunks.obj
 0001:00062da4       ??$__crt_fast_decode_pointer@P6AHPEA_WK_J@Z@@YAP6AHPEA_WK_J@ZQ6AH0K1@Z@Z 0000000140063da4 f i libucrt:winapi_thunks.obj
 0001:00062dc0       ??$__crt_fast_decode_pointer@PEAX@@YAPEAXQEAX@Z 0000000140063dc0 f i libucrt:winapi_thunks.obj
 0001:00062ddc       ??$__crt_fast_encode_pointer@P6AHPEA_WK_J@Z@@YAP6AHPEA_WK_J@ZQ6AH0K1@Z@Z 0000000140063ddc f i libucrt:winapi_thunks.obj
 0001:00063b90       GetCurrentThreadEffectiveToken 0000000140064b90 f i libucrt:winapi_thunks.obj
 0001:00063b9c       __acrt_AppPolicyGetProcessTerminationMethodInternal 0000000140064b9c f   libucrt:winapi_thunks.obj
 0001:00063c00       __acrt_AppPolicyGetShowDeveloperDiagnosticInternal 0000000140064c00 f   libucrt:winapi_thunks.obj
 0001:00063c64       __acrt_AppPolicyGetThreadInitializationTypeInternal 0000000140064c64 f   libucrt:winapi_thunks.obj
 0001:00063cc8       __acrt_AppPolicyGetWindowingModelInternal 0000000140064cc8 f   libucrt:winapi_thunks.obj
 0001:00063d2c       __acrt_AreFileApisANSI     0000000140064d2c f   libucrt:winapi_thunks.obj
 0001:00063d74       __acrt_CompareStringEx     0000000140064d74 f   libucrt:winapi_thunks.obj
 0001:00063e88       __acrt_EnumSystemLocalesEx 0000000140064e88 f   libucrt:winapi_thunks.obj
 0001:00063f44       __acrt_FlsAlloc            0000000140064f44 f   libucrt:winapi_thunks.obj
 0001:00063fa0       __acrt_FlsFree             0000000140064fa0 f   libucrt:winapi_thunks.obj
 0001:00063ff8       __acrt_FlsGetValue         0000000140064ff8 f   libucrt:winapi_thunks.obj
 0001:00064050       __acrt_FlsSetValue         0000000140065050 f   libucrt:winapi_thunks.obj
 0001:000640b8       __acrt_GetDateFormatEx     00000001400650b8 f   libucrt:winapi_thunks.obj
 0001:0006419c       __acrt_GetEnabledXStateFeatures 000000014006519c f   libucrt:winapi_thunks.obj
 0001:000641e4       __acrt_GetLocaleInfoEx     00000001400651e4 f   libucrt:winapi_thunks.obj
 0001:00064288       __acrt_GetSystemTimePreciseAsFileTime 0000000140065288 f   libucrt:winapi_thunks.obj
 0001:000642e4       __acrt_GetTimeFormatEx     00000001400652e4 f   libucrt:winapi_thunks.obj
 0001:000643bc       __acrt_GetUserDefaultLocaleName 00000001400653bc f   libucrt:winapi_thunks.obj
 0001:00064438       __acrt_GetXStateFeaturesMask 0000000140065438 f   libucrt:winapi_thunks.obj
 0001:000644a0       __acrt_InitializeCriticalSectionEx 00000001400654a0 f   libucrt:winapi_thunks.obj
 0001:0006451c       __acrt_IsValidLocaleName   000000014006551c f   libucrt:winapi_thunks.obj
 0001:00064588       __acrt_LCIDToLocaleName    0000000140065588 f   libucrt:winapi_thunks.obj
 0001:00064614       __acrt_LCMapStringEx       0000000140065614 f   libucrt:winapi_thunks.obj
 0001:00064728       __acrt_LocaleNameToLCID    0000000140065728 f   libucrt:winapi_thunks.obj
 0001:0006478c       __acrt_LocateXStateFeature 000000014006578c f   libucrt:winapi_thunks.obj
 0001:00064804       __acrt_MessageBoxA         0000000140065804 f   libucrt:winapi_thunks.obj
 0001:00064894       __acrt_MessageBoxW         0000000140065894 f   libucrt:winapi_thunks.obj
 0001:00064924       __acrt_RoInitialize        0000000140065924 f   libucrt:winapi_thunks.obj
 0001:00064974       __acrt_RoUninitialize      0000000140065974 f   libucrt:winapi_thunks.obj
 0001:000649b4       __acrt_RtlGenRandom        00000001400659b4 f   libucrt:winapi_thunks.obj
 0001:00064a18       __acrt_SetThreadStackGuarantee 0000000140065a18 f   libucrt:winapi_thunks.obj
 0001:00064a6c       __acrt_can_show_message_box 0000000140065a6c f   libucrt:winapi_thunks.obj
 0001:00064af4       __acrt_can_use_vista_locale_apis 0000000140065af4 f   libucrt:winapi_thunks.obj
 0001:00064b30       __acrt_can_use_xstate_apis 0000000140065b30 f   libucrt:winapi_thunks.obj
 0001:00064b6c       __acrt_eagerly_load_locale_apis 0000000140065b6c f   libucrt:winapi_thunks.obj
 0001:00064d1c       __acrt_get_parent_window   0000000140065d1c f   libucrt:winapi_thunks.obj
 0001:00064db4       __acrt_initialize_winapi_thunks 0000000140065db4 f   libucrt:winapi_thunks.obj
 0001:00064df4       __acrt_is_interactive      0000000140065df4 f   libucrt:winapi_thunks.obj
 0001:00064eec       __acrt_uninitialize_winapi_thunks 0000000140065eec f   libucrt:winapi_thunks.obj
 0001:00064f40       ??0__crt_stdio_stream@@QEAA@QEAU__crt_stdio_stream_data@@@Z 0000000140065f40 f i libucrt:closeall.obj
 0001:00064f48       _fcloseall                 0000000140065f48 f   libucrt:closeall.obj
 0001:000655e4       ?has_all_of@__crt_stdio_stream@@QEBA_NJ@Z 00000001400665e4 f i libucrt:fflush.obj
 0001:0006563c       ?unset_flags@__crt_stdio_stream@@QEBA_NJ@Z 000000014006663c f i libucrt:fflush.obj
 0001:0006566c       __acrt_stdio_flush_nolock  000000014006666c f   libucrt:fflush.obj
 0001:00065704       _fflush_nolock             0000000140066704 f   libucrt:fflush.obj
 0001:00065764       _flushall                  0000000140066764 f   libucrt:fflush.obj
 0001:0006576c       fflush                     000000014006676c f   libucrt:fflush.obj
 0001:000657ec       ?has_crt_buffer@__crt_stdio_stream@@QEBA_NXZ 00000001400667ec f i libucrt:_freebuf.obj
 0001:000657fc       __acrt_stdio_free_buffer_nolock 00000001400667fc f   libucrt:_freebuf.obj
 0001:00065ae8       __acrt_initialize_lowio    0000000140066ae8 f   libucrt:ioinit.obj
 0001:00065b34       __acrt_uninitialize_lowio  0000000140066b34 f   libucrt:ioinit.obj
 0001:00065d70       _close                     0000000140066d70 f   libucrt:close.obj
 0001:00065e3c       _close_nolock              0000000140066e3c f   libucrt:close.obj
 0001:00065f28       ?lowio_handle@__crt_stdio_stream@@QEBAHXZ 0000000140066f28 f i libucrt:fileno.obj
 0001:00065f30       _fileno                    0000000140066f30 f   libucrt:fileno.obj
 0001:00065f60       ??$?RU__crt_stdio_stream_data@@@__crt_internal_free_policy@@QEBAXQEBU__crt_stdio_stream_data@@@Z 0000000140066f60 f i libucrt:stream.obj
 0001:00065f6c       ??0?$__crt_unique_heap_ptr@U__crt_stdio_stream_data@@U__crt_internal_free_policy@@@@QEAA@QEAU__crt_stdio_stream_data@@@Z 0000000140066f6c f i libucrt:stream.obj
 0001:00065f74       ??0__crt_stdio_stream@@QEAA@XZ 0000000140066f74 f i libucrt:stream.obj
 0001:00065f80       ??1?$__crt_unique_heap_ptr@U__crt_stdio_stream_data@@U__crt_internal_free_policy@@@@QEAA@XZ 0000000140066f80 f i libucrt:stream.obj
 0001:00065fa4       ?__acrt_stdio_allocate_stream@@YA?AV__crt_stdio_stream@@XZ 0000000140066fa4 f   libucrt:stream.obj
 0001:00066010       ?__acrt_stdio_free_stream@@YAXV__crt_stdio_stream@@@Z 0000000140067010 f   libucrt:stream.obj
 0001:00066034       ?deallocate@__crt_stdio_stream@@QEAAXXZ 0000000140067034 f i libucrt:stream.obj
 0001:00066040       ?detach@?$__crt_unique_heap_ptr@U__crt_stdio_stream_data@@U__crt_internal_free_policy@@@@QEAAPEAU__crt_stdio_stream_data@@XZ 0000000140067040 f i libucrt:stream.obj
 0001:00066170       ?lock@__crt_stdio_stream@@QEBAXXZ 0000000140067170 f i libucrt:stream.obj
 0001:0006617c       ?release@?$__crt_unique_heap_ptr@U__crt_stdio_stream_data@@U__crt_internal_free_policy@@@@QEAAXXZ 000000014006717c f i libucrt:stream.obj
 0001:000661a0       ?try_allocate@__crt_stdio_stream@@QEAA_NXZ 00000001400671a0 f i libucrt:stream.obj
 0001:000661c8       ??$__acrt_stdio_parse_mode@D@@YA?AU__acrt_stdio_stream_mode@@QEBD@Z 00000001400671c8 f i libucrt:openfile.obj
 0001:0006653c       ??$__acrt_stdio_parse_mode@_W@@YA?AU__acrt_stdio_stream_mode@@QEB_W@Z 000000014006753c f i libucrt:openfile.obj
 0001:00066a78       ??$tcsncmp@AEAPEBDAEAY02$$CBD_K@?$__crt_char_traits@D@@SAHAEAPEBDAEAY02$$CBD$$QEA_K@Z 0000000140067a78 f i libucrt:openfile.obj
 0001:00066a88       ??$tcsncmp@AEAPEB_WAEAY02$$CB_W_K@?$__crt_char_traits@_W@@SAHAEAPEB_WAEAY02$$CB_W$$QEA_K@Z 0000000140067a88 f i libucrt:openfile.obj
 0001:00066a98       ??$tcsnicmp@AEAPEBDAEAY04$$CBD_K@?$__crt_char_traits@D@@SAHAEAPEBDAEAY04$$CBD$$QEA_K@Z 0000000140067a98 f i libucrt:openfile.obj
 0001:00066aa8       ??$tcsnicmp@AEAPEBDAEAY06$$CBD_K@?$__crt_char_traits@D@@SAHAEAPEBDAEAY06$$CBD$$QEA_K@Z 0000000140067aa8 f i libucrt:openfile.obj
 0001:00066ab8       ??$tcsnicmp@AEAPEBDAEAY07$$CBD_K@?$__crt_char_traits@D@@SAHAEAPEBDAEAY07$$CBD$$QEA_K@Z 0000000140067ab8 f i libucrt:openfile.obj
 0001:00066ac8       ??$tcsnicmp@AEAPEB_WAEAY04$$CB_W_K@?$__crt_char_traits@_W@@SAHAEAPEB_WAEAY04$$CB_W$$QEA_K@Z 0000000140067ac8 f i libucrt:openfile.obj
 0001:00066ad8       ??$tcsnicmp@AEAPEB_WAEAY06$$CB_W_K@?$__crt_char_traits@_W@@SAHAEAPEB_WAEAY06$$CB_W$$QEA_K@Z 0000000140067ad8 f i libucrt:openfile.obj
 0001:00066ae8       ??$tcsnicmp@AEAPEB_WAEAY07$$CB_W_K@?$__crt_char_traits@_W@@SAHAEAPEB_WAEAY07$$CB_W$$QEA_K@Z 0000000140067ae8 f i libucrt:openfile.obj
 0001:00066af8       ??$tsopen_s@PEAHAEBQEBDAEBHAEBHH@?$__crt_char_traits@D@@SAH$$QEAPEAHAEBQEBDAEBH2$$QEAH@Z 0000000140067af8 f i libucrt:openfile.obj
 0001:00066b20       ??$tsopen_s@PEAHAEBQEB_WAEBHAEBHH@?$__crt_char_traits@_W@@SAH$$QEAPEAHAEBQEB_WAEBH2$$QEAH@Z 0000000140067b20 f i libucrt:openfile.obj
 0001:00066b48       ?__acrt_stdio_parse_mode_D@@YA_NAEAU__acrt_stdio_stream_mode@@@Z 0000000140067b48 f i libucrt:openfile.obj
 0001:00066b60       ?__acrt_stdio_parse_mode_N@@YA_NAEAU__acrt_stdio_stream_mode@@@Z 0000000140067b60 f i libucrt:openfile.obj
 0001:00066b68       ?__acrt_stdio_parse_mode_R@@YA_NAEAU__acrt_stdio_stream_mode@@AEA_N@Z 0000000140067b68 f i libucrt:openfile.obj
 0001:00066b80       ?__acrt_stdio_parse_mode_S@@YA_NAEAU__acrt_stdio_stream_mode@@AEA_N@Z 0000000140067b80 f i libucrt:openfile.obj
 0001:00066b98       ?__acrt_stdio_parse_mode_T@@YA_NAEAU__acrt_stdio_stream_mode@@@Z 0000000140067b98 f i libucrt:openfile.obj
 0001:00066bb4       ?__acrt_stdio_parse_mode_b@@YA_NAEAU__acrt_stdio_stream_mode@@@Z 0000000140067bb4 f i libucrt:openfile.obj
 0001:00066bd0       ?__acrt_stdio_parse_mode_c@@YA_NAEAU__acrt_stdio_stream_mode@@AEA_N@Z 0000000140067bd0 f i libucrt:openfile.obj
 0001:00066be8       ?__acrt_stdio_parse_mode_n@@YA_NAEAU__acrt_stdio_stream_mode@@AEA_N@Z 0000000140067be8 f i libucrt:openfile.obj
 0001:00066c00       ?__acrt_stdio_parse_mode_plus@@YA_NAEAU__acrt_stdio_stream_mode@@AEA_N@Z 0000000140067c00 f i libucrt:openfile.obj
 0001:00066c38       ?__acrt_stdio_parse_mode_t@@YA_NAEAU__acrt_stdio_stream_mode@@@Z 0000000140067c38 f i libucrt:openfile.obj
 0001:00066c54       ?__acrt_stdio_parse_mode_x@@YA_NAEAU__acrt_stdio_stream_mode@@@Z 0000000140067c54 f i libucrt:openfile.obj
 0001:00066c70       _openfile                  0000000140067c70 f   libucrt:openfile.obj
 0001:00066d34       _wopenfile                 0000000140067d34 f   libucrt:openfile.obj
 0001:000677fc       _read                      00000001400687fc f   libucrt:read.obj
 0001:0006795c       _read_nolock               000000014006895c f   libucrt:read.obj
 0001:00067ec8       _utf8_no_of_trailbytes     0000000140068ec8 f i libucrt:read.obj
 0001:00068334       __acrt_stdio_refill_and_read_narrow_nolock 0000000140069334 f   libucrt:_filbuf.obj
 0001:000684f8       __acrt_stdio_refill_and_read_wide_nolock 00000001400694f8 f   libucrt:_filbuf.obj
 0001:00069190       _write                     000000014006a190 f   libucrt:write.obj
 0001:000692b8       _write_nolock              000000014006a2b8 f   libucrt:write.obj
 0001:00069b00       __acrt_stdio_flush_and_write_narrow_nolock 000000014006ab00 f   libucrt:_flsbuf.obj
 0001:00069be4       __acrt_stdio_flush_and_write_wide_nolock 000000014006abe4 f   libucrt:_flsbuf.obj
 0001:00069cd0       ?has_temporary_buffer@__crt_stdio_stream@@QEBA_NXZ 000000014006acd0 f i libucrt:_sftbuf.obj
 0001:00069ce0       __acrt_should_use_temporary_buffer 000000014006ace0 f   libucrt:_sftbuf.obj
 0001:00069d38       __acrt_stdio_begin_temporary_buffering_nolock 000000014006ad38 f   libucrt:_sftbuf.obj
 0001:00069e34       __acrt_stdio_end_temporary_buffering_nolock 000000014006ae34 f   libucrt:_sftbuf.obj
 0001:00069e7c       ??$make_c_string_character_source@DPEAPEAD@__crt_strtox@@YA?AV?$c_string_character_source@D@0@QEBDQEAPEAD@Z 000000014006ae7c f i libucrt:strtox.obj
 0001:00069e94       ??$make_c_string_character_source@_WPEAPEA_W@__crt_strtox@@YA?AV?$c_string_character_source@_W@0@QEB_WQEAPEA_W@Z 000000014006ae94 f i libucrt:strtox.obj
 0001:00069eac       ??$parse_integer_from_string@JDPEAPEAD@__crt_strtox@@YAJQEBDQEAPEADHQEAU__crt_locale_pointers@@@Z 000000014006aeac f i libucrt:strtox.obj
 0001:00069ee8       ??$parse_integer_from_string@J_WPEAPEA_W@__crt_strtox@@YAJQEB_WQEAPEA_WHQEAU__crt_locale_pointers@@@Z 000000014006aee8 f i libucrt:strtox.obj
 0001:00069f24       ??$parse_integer_from_string@KDPEAPEAD@__crt_strtox@@YAKQEBDQEAPEADHQEAU__crt_locale_pointers@@@Z 000000014006af24 f i libucrt:strtox.obj
 0001:00069f60       ??$parse_integer_from_string@K_WPEAPEA_W@__crt_strtox@@YAKQEB_WQEAPEA_WHQEAU__crt_locale_pointers@@@Z 000000014006af60 f i libucrt:strtox.obj
 0001:00069f9c       ??$parse_integer_from_string@_JDPEAPEAD@__crt_strtox@@YA_JQEBDQEAPEADHQEAU__crt_locale_pointers@@@Z 000000014006af9c f i libucrt:strtox.obj
 0001:00069fd8       ??$parse_integer_from_string@_J_WPEAPEA_W@__crt_strtox@@YA_JQEB_WQEAPEA_WHQEAU__crt_locale_pointers@@@Z 000000014006afd8 f i libucrt:strtox.obj
 0001:0006a014       ??$parse_integer_from_string@_KDPEAPEAD@__crt_strtox@@YA_KQEBDQEAPEADHQEAU__crt_locale_pointers@@@Z 000000014006b014 f i libucrt:strtox.obj
 0001:0006a050       ??$parse_integer_from_string@_K_WPEAPEA_W@__crt_strtox@@YA_KQEB_WQEAPEA_WHQEAU__crt_locale_pointers@@@Z 000000014006b050 f i libucrt:strtox.obj
 0001:0006a08c       _strtoi64                  000000014006b08c f   libucrt:strtox.obj
 0001:0006a0c0       _strtoi64_l                000000014006b0c0 f   libucrt:strtox.obj
 0001:0006a0fc       _strtoimax_l               000000014006b0fc f   libucrt:strtox.obj
 0001:0006a138       _strtol_l                  000000014006b138 f   libucrt:strtox.obj
 0001:0006a174       _strtoll_l                 000000014006b174 f   libucrt:strtox.obj
 0001:0006a1b0       _strtoui64                 000000014006b1b0 f   libucrt:strtox.obj
 0001:0006a1e4       _strtoui64_l               000000014006b1e4 f   libucrt:strtox.obj
 0001:0006a220       _strtoul_l                 000000014006b220 f   libucrt:strtox.obj
 0001:0006a25c       _strtoull_l                000000014006b25c f   libucrt:strtox.obj
 0001:0006a298       _strtoumax_l               000000014006b298 f   libucrt:strtox.obj
 0001:0006a2d4       _wcstoi64                  000000014006b2d4 f   libucrt:strtox.obj
 0001:0006a308       _wcstoi64_l                000000014006b308 f   libucrt:strtox.obj
 0001:0006a344       _wcstoimax_l               000000014006b344 f   libucrt:strtox.obj
 0001:0006a380       _wcstol_l                  000000014006b380 f   libucrt:strtox.obj
 0001:0006a3bc       _wcstoll_l                 000000014006b3bc f   libucrt:strtox.obj
 0001:0006a3f8       _wcstoui64                 000000014006b3f8 f   libucrt:strtox.obj
 0001:0006a42c       _wcstoui64_l               000000014006b42c f   libucrt:strtox.obj
 0001:0006a468       _wcstoul_l                 000000014006b468 f   libucrt:strtox.obj
 0001:0006a4a4       _wcstoull_l                000000014006b4a4 f   libucrt:strtox.obj
 0001:0006a4e0       _wcstoumax_l               000000014006b4e0 f   libucrt:strtox.obj
 0001:0006a51c       strtoimax                  000000014006b51c f   libucrt:strtox.obj
 0001:0006a550       strtol                     000000014006b550 f   libucrt:strtox.obj
 0001:0006a584       strtoll                    000000014006b584 f   libucrt:strtox.obj
 0001:0006a5b8       strtoul                    000000014006b5b8 f   libucrt:strtox.obj
 0001:0006a5ec       strtoull                   000000014006b5ec f   libucrt:strtox.obj
 0001:0006a620       strtoumax                  000000014006b620 f   libucrt:strtox.obj
 0001:0006a654       wcstoimax                  000000014006b654 f   libucrt:strtox.obj
 0001:0006a688       wcstol                     000000014006b688 f   libucrt:strtox.obj
 0001:0006a6bc       wcstoll                    000000014006b6bc f   libucrt:strtox.obj
 0001:0006a6f0       wcstoul                    000000014006b6f0 f   libucrt:strtox.obj
 0001:0006a724       wcstoull                   000000014006b724 f   libucrt:strtox.obj
 0001:0006a758       wcstoumax                  000000014006b758 f   libucrt:strtox.obj
 0001:0006a78c       _mbtowc_l                  000000014006b78c f   libucrt:mbtowc.obj
 0001:0006a96c       mbtowc                     000000014006b96c f   libucrt:mbtowc.obj
 0001:0006a978       _wctomb_l                  000000014006b978 f   libucrt:wctomb.obj
 0001:0006aa08       _wctomb_s_l                000000014006ba08 f   libucrt:wctomb.obj
 0001:0006ac0c       wctomb                     000000014006bc0c f   libucrt:wctomb.obj
 0001:0006ac6c       wctomb_s                   000000014006bc6c f   libucrt:wctomb.obj
 0001:0006b754       ??1?$__crt_simd_cleanup_guard@$00@@QEAA@XZ 000000014006c754 f i libucrt:strnlen.obj
 0001:0006b758       ??1?$__crt_simd_cleanup_guard@$0A@@@QEAA@XZ 000000014006c758 f i libucrt:strnlen.obj
 0001:0006b75c       ?compare_equals@?$__crt_simd_traits@$00E@@SA?AT__m256i@@T2@0@Z 000000014006c75c f i libucrt:strnlen.obj
 0001:0006b768       ?compare_equals@?$__crt_simd_traits@$00G@@SA?AT__m256i@@T2@0@Z 000000014006c768 f i libucrt:strnlen.obj
 0001:0006b774       ?compare_equals@?$__crt_simd_traits@$0A@E@@SA?AT__m128i@@T2@0@Z 000000014006c774 f i libucrt:strnlen.obj
 0001:0006b780       ?compare_equals@?$__crt_simd_traits@$0A@G@@SA?AT__m128i@@T2@0@Z 000000014006c780 f i libucrt:strnlen.obj
 0001:0006b78c       ?compute_byte_mask@?$__crt_simd_pack_traits@$00@@SAHT__m256i@@@Z 000000014006c78c f i libucrt:strnlen.obj
 0001:0006b79c       ?compute_byte_mask@?$__crt_simd_pack_traits@$0A@@@SAHT__m128i@@@Z 000000014006c79c f i libucrt:strnlen.obj
 0001:0006b7a8       ?get_zero_pack@?$__crt_simd_pack_traits@$00@@SA?AT__m256i@@XZ 000000014006c7a8 f i libucrt:strnlen.obj
 0001:0006b7b0       ?get_zero_pack@?$__crt_simd_pack_traits@$0A@@@SA?AT__m128i@@XZ 000000014006c7b0 f i libucrt:strnlen.obj
 0001:0006b7b4       strnlen                    000000014006c7b4 f   libucrt:strnlen.obj
 0001:0006b958       wcslen                     000000014006c958 f   libucrt:strnlen.obj
 0001:0006bacc       wcsnlen                    000000014006cacc f   libucrt:strnlen.obj
 0001:0006bd18       ?value@?$dual_state_global@PEAU__crt_multibyte_data@@@__crt_state_management@@QEAAAEAPEAU__crt_multibyte_data@@XZ 000000014006cd18 f i libucrt:locale_update.obj
 0001:0006bd1c       __acrt_should_sync_with_global_locale 000000014006cd1c f i libucrt:locale_update.obj
 0001:0006bd30       __acrt_update_locale_info  000000014006cd30 f   libucrt:locale_update.obj
 0001:0006bd70       __acrt_update_multibyte_info 000000014006cd70 f   libucrt:locale_update.obj
 0001:0006bdb0       ?__acrt_fp_classify@@YA?AW4__acrt_fp_class@@AEBN@Z 000000014006cdb0 f i libucrt:cvt.obj
 0001:0006be24       ?__acrt_fp_is_negative@@YA_NAEBN@Z 000000014006ce24 f i libucrt:cvt.obj
 0001:0006cd40       ?strrchr@@YAPEADQEADH@Z    000000014006dd40 f i libucrt:cvt.obj
 0001:0006cd48       __acrt_fp_format           000000014006dd48 f   libucrt:cvt.obj
 0001:0006d170       _fputwc_nolock             000000014006e170 f   libucrt:fputwc.obj
 0001:0006d34c       _fputwchar                 000000014006e34c f   libucrt:fputwc.obj
 0001:0006d378       _putwc_nolock              000000014006e378 f   libucrt:fputwc.obj
 0001:0006d380       fputwc                     000000014006e380 f   libucrt:fputwc.obj
 0001:0006d3f8       putwc                      000000014006e3f8 f   libucrt:fputwc.obj
 0001:0006d400       putwchar                   000000014006e400 f   libucrt:fputwc.obj
 0001:0006d408       _fputc_nolock              000000014006e408 f   libucrt:fputc.obj
 0001:0006d424       _fputchar                  000000014006e424 f   libucrt:fputc.obj
 0001:0006d450       _putc_nolock               000000014006e450 f   libucrt:fputc.obj
 0001:0006d46c       fputc                      000000014006e46c f   libucrt:fputc.obj
 0001:0006d5dc       putc                       000000014006e5dc f   libucrt:fputc.obj
 0001:0006d5e4       putchar                    000000014006e5e4 f   libucrt:fputc.obj
 0001:0006d5ec       _get_printf_count_output   000000014006e5ec f   libucrt:printf_count_output.obj
 0001:0006d60c       _set_printf_count_output   000000014006e60c f   libucrt:printf_count_output.obj
 0001:0006d63c       __p___mb_cur_max           000000014006e63c f   libucrt:nlsdata.obj
 0001:0006d678       __pctype_func              000000014006e678 f   libucrt:ctype.obj
 0001:0006d6b4       __pwctype_func             000000014006e6b4 f   libucrt:ctype.obj
 0001:0006d6c0       _iswctype_l                000000014006e6c0 f   libucrt:iswctype.obj
 0001:0006d6c8       iswctype                   000000014006e6c8 f   libucrt:iswctype.obj
 0001:0006d750       _isctype                   000000014006e750 f   libucrt:isctype.obj
 0001:0006d78c       _isctype_l                 000000014006e78c f   libucrt:isctype.obj
 0001:0006d8d8       _isleadbyte_fast_internal  000000014006e8d8 f i libucrt:isctype.obj
 0001:0006db80       __isascii                  000000014006eb80 f   libucrt:_ctype.obj
 0001:0006db90       __iscsym                   000000014006eb90 f   libucrt:_ctype.obj
 0001:0006dc30       __iscsymf                  000000014006ec30 f   libucrt:_ctype.obj
 0001:0006dd10       __toascii                  000000014006ed10 f   libucrt:_ctype.obj
 0001:0006dd20       _isalnum_l                 000000014006ed20 f   libucrt:_ctype.obj
 0001:0006de60       _isalpha_l                 000000014006ee60 f   libucrt:_ctype.obj
 0001:0006dfa0       _isblank_l                 000000014006efa0 f   libucrt:_ctype.obj
 0001:0006e0d0       _iscntrl_l                 000000014006f0d0 f   libucrt:_ctype.obj
 0001:0006e200       _iscsym_l                  000000014006f200 f   libucrt:_ctype.obj
 0001:0006e310       _iscsymf_l                 000000014006f310 f   libucrt:_ctype.obj
 0001:0006e420       _isdigit_l                 000000014006f420 f   libucrt:_ctype.obj
 0001:0006e550       _isgraph_l                 000000014006f550 f   libucrt:_ctype.obj
 0001:0006e690       _islower_l                 000000014006f690 f   libucrt:_ctype.obj
 0001:0006e7c0       _isprint_l                 000000014006f7c0 f   libucrt:_ctype.obj
 0001:0006e900       _ispunct_l                 000000014006f900 f   libucrt:_ctype.obj
 0001:0006ea30       _isspace_l                 000000014006fa30 f   libucrt:_ctype.obj
 0001:0006eb60       _isupper_l                 000000014006fb60 f   libucrt:_ctype.obj
 0001:0006ec90       _isxdigit_l                000000014006fc90 f   libucrt:_ctype.obj
 0001:0006edd0       isalnum                    000000014006fdd0 f   libucrt:_ctype.obj
 0001:0006eeb0       isalpha                    000000014006feb0 f   libucrt:_ctype.obj
 0001:0006ef90       isblank                    000000014006ff90 f   libucrt:_ctype.obj
 0001:0006f080       iscntrl                    0000000140070080 f   libucrt:_ctype.obj
 0001:0006f150       isdigit                    0000000140070150 f   libucrt:_ctype.obj
 0001:0006f220       isgraph                    0000000140070220 f   libucrt:_ctype.obj
 0001:0006f300       islower                    0000000140070300 f   libucrt:_ctype.obj
 0001:0006f3d0       isprint                    00000001400703d0 f   libucrt:_ctype.obj
 0001:0006f4b0       ispunct                    00000001400704b0 f   libucrt:_ctype.obj
 0001:0006f580       isspace                    0000000140070580 f   libucrt:_ctype.obj
 0001:0006f650       isupper                    0000000140070650 f   libucrt:_ctype.obj
 0001:0006f720       isxdigit                   0000000140070720 f   libucrt:_ctype.obj
 0001:0006f7f8       _fgetwc_nolock             00000001400707f8 f   libucrt:fgetwc.obj
 0001:0006fa04       _fgetwchar                 0000000140070a04 f   libucrt:fgetwc.obj
 0001:0006fa20       _getwc_nolock              0000000140070a20 f   libucrt:fgetwc.obj
 0001:0006fa28       fgetwc                     0000000140070a28 f   libucrt:fgetwc.obj
 0001:0006fa94       getwc                      0000000140070a94 f   libucrt:fgetwc.obj
 0001:0006fa9c       getwchar                   0000000140070a9c f   libucrt:fgetwc.obj
 0001:0006fcb8       _ungetwc_nolock            0000000140070cb8 f   libucrt:ungetwc.obj
 0001:0006fe40       ungetwc                    0000000140070e40 f   libucrt:ungetwc.obj
 0001:0006feb8       _fgetc_nolock              0000000140070eb8 f   libucrt:fgetc.obj
 0001:0006ff0c       _fgetchar                  0000000140070f0c f   libucrt:fgetc.obj
 0001:0006ff28       _getc_nolock               0000000140070f28 f   libucrt:fgetc.obj
 0001:0006ff30       fgetc                      0000000140070f30 f   libucrt:fgetc.obj
 0001:0007007c       getc                       000000014007107c f   libucrt:fgetc.obj
 0001:00070084       getchar                    0000000140071084 f   libucrt:fgetc.obj
 0001:000700a0       _ungetc_nolock             00000001400710a0 f   libucrt:ungetc.obj
 0001:00070210       ungetc                     0000000140071210 f   libucrt:ungetc.obj
 0001:00070280       __fpe_flt_rounds           0000000140071280 f   libucrt:fegetround.obj
 0001:000702d8       fegetround                 00000001400712d8 f   libucrt:fegetround.obj
 0001:000702f4       _set_error_mode            00000001400712f4 f   libucrt:set_error_mode.obj
 0001:000703ec       wcscat_s                   00000001400713ec f   libucrt:wcscat_s.obj
 0001:00070514       wcscpy_s                   0000000140071514 f   libucrt:wcscpy_s.obj
 0001:000706a8       wcsncpy_s                  00000001400716a8 f   libucrt:wcsncpy_s.obj
 0001:00070964       ??$message_box@$$TAEBQEBDAEBQEBDK@?$__crt_char_traits@D@@SAH$$QEA$$TAEBQEBD1$$QEAK@Z 0000000140071964 f i libucrt:crtmbox.obj
 0001:0007097c       ??$message_box@$$TAEBQEB_WAEBQEB_WK@?$__crt_char_traits@_W@@SAH$$QEA$$TAEBQEB_W1$$QEAK@Z 000000014007197c f i libucrt:crtmbox.obj
 0001:00070994       ??$message_box@PEAUHWND__@@AEBQEBDAEBQEBDAEBI@?$__crt_char_traits@D@@SAH$$QEAPEAUHWND__@@AEBQEBD1AEBI@Z 0000000140071994 f i libucrt:crtmbox.obj
 0001:000709ac       ??$message_box@PEAUHWND__@@AEBQEB_WAEBQEB_WAEBI@?$__crt_char_traits@_W@@SAH$$QEAPEAUHWND__@@AEBQEB_W1AEBI@Z 00000001400719ac f i libucrt:crtmbox.obj
 0001:000709c4       ??$output_debug_string@AEBQEBD@?$__crt_char_traits@D@@SAXAEBQEBD@Z 00000001400719c4 f i libucrt:crtmbox.obj
 0001:000709d0       ??$output_debug_string@AEBQEB_W@?$__crt_char_traits@_W@@SAXAEBQEB_W@Z 00000001400719d0 f i libucrt:crtmbox.obj
 0001:000709dc       __acrt_show_narrow_message_box 00000001400719dc f   libucrt:crtmbox.obj
 0001:00070aa8       __acrt_show_wide_message_box 0000000140071aa8 f   libucrt:crtmbox.obj
 0001:00070f70       ??$__acrt_mbs_to_wcs_cp@U__crt_win32_buffer_internal_dynamic_resizing@@@@YAHQEBDAEAV?$__crt_win32_buffer@_WU__crt_win32_buffer_internal_dynamic_resizing@@@@I@Z 0000000140071f70 f i libucrt:argv_wildcards.obj
 0001:00071144       ??$__acrt_wcs_to_mbs_cp@U__crt_win32_buffer_internal_dynamic_resizing@@@@YAHQEB_WAEAV?$__crt_win32_buffer@DU__crt_win32_buffer_internal_dynamic_resizing@@@@I@Z 0000000140072144 f i libucrt:argv_wildcards.obj
 0001:00072424       ??$tcslen@AEBQEBD@?$__crt_char_traits@D@@SA_KAEBQEBD@Z 0000000140073424 f i libucrt:argv_wildcards.obj
 0001:0007243c       ??$tcslen@AEBQEB_W@?$__crt_char_traits@_W@@SA_KAEBQEB_W@Z 000000014007343c f i libucrt:argv_wildcards.obj
 0001:00072454       ??$tcsncpy_s@AEAPEAD_KAEAPEADAEB_K@?$__crt_char_traits@D@@SAHAEAPEAD$$QEA_K0AEB_K@Z 0000000140073454 f i libucrt:argv_wildcards.obj
 0001:0007246c       ??$tcsncpy_s@AEAPEA_W_KAEAPEA_WAEB_K@?$__crt_char_traits@_W@@SAHAEAPEA_W$$QEA_K0AEB_K@Z 000000014007346c f i libucrt:argv_wildcards.obj
 0001:00072484       ??$tcsncpy_s@PEADAEB_KAEBQEBDAEB_K@?$__crt_char_traits@D@@SAH$$QEAPEADAEB_KAEBQEBD1@Z 0000000140073484 f i libucrt:argv_wildcards.obj
 0001:0007249c       ??$tcsncpy_s@PEAD_KAEBQEBDAEB_K@?$__crt_char_traits@D@@SAH$$QEAPEAD$$QEA_KAEBQEBDAEB_K@Z 000000014007349c f i libucrt:argv_wildcards.obj
 0001:000724b4       ??$tcsncpy_s@PEA_WAEB_KAEBQEB_WAEB_K@?$__crt_char_traits@_W@@SAH$$QEAPEA_WAEB_KAEBQEB_W1@Z 00000001400734b4 f i libucrt:argv_wildcards.obj
 0001:000724cc       ??$tcsncpy_s@PEA_W_KAEBQEB_WAEB_K@?$__crt_char_traits@_W@@SAH$$QEAPEA_W$$QEA_KAEBQEB_WAEB_K@Z 00000001400734cc f i libucrt:argv_wildcards.obj
 0001:000724e4       ??$tcspbrk@AEAPEADAEAY02$$CBD@?$__crt_char_traits@D@@SAPEADAEAPEADAEAY02$$CBD@Z 00000001400734e4 f i libucrt:argv_wildcards.obj
 0001:000724f0       ??$tcspbrk@AEAPEA_WAEAY02$$CB_W@?$__crt_char_traits@_W@@SAPEA_WAEAPEA_WAEAY02$$CB_W@Z 00000001400734f0 f i libucrt:argv_wildcards.obj
 0001:000724fc       ??0?$__crt_unique_handle_t@U__crt_findfile_traits@@@@QEAA@QEAX@Z 00000001400734fc f i libucrt:argv_wildcards.obj
 0001:00072504       ??0?$__crt_win32_buffer@DU__crt_win32_buffer_internal_dynamic_resizing@@@@QEAA@XZ 0000000140073504 f i libucrt:argv_wildcards.obj
 0001:00072528       ??0?$__crt_win32_buffer@_WU__crt_win32_buffer_internal_dynamic_resizing@@@@QEAA@XZ 0000000140073528 f i libucrt:argv_wildcards.obj
 0001:0007257c       ??1?$__crt_unique_handle_t@U__crt_findfile_traits@@@@QEAA@XZ 000000014007357c f i libucrt:argv_wildcards.obj
 0001:000725a8       ??1?$__crt_win32_buffer@DU__crt_win32_buffer_internal_dynamic_resizing@@@@QEAA@XZ 00000001400735a8 f i libucrt:argv_wildcards.obj
 0001:000725d4       ??1?$__crt_win32_buffer@_WU__crt_win32_buffer_internal_dynamic_resizing@@@@QEAA@XZ 00000001400735d4 f i libucrt:argv_wildcards.obj
 0001:0007279c       ?__acrt_get_utf8_acp_compatibility_codepage@@YAIXZ 000000014007379c f i libucrt:argv_wildcards.obj
 0001:000727f8       ?_deallocate@?$__crt_win32_buffer@DU__crt_win32_buffer_internal_dynamic_resizing@@@@AEAAXXZ 00000001400737f8 f i libucrt:argv_wildcards.obj
 0001:00072824       ?_deallocate@?$__crt_win32_buffer@_WU__crt_win32_buffer_internal_dynamic_resizing@@@@AEAAXXZ 0000000140073824 f i libucrt:argv_wildcards.obj
 0001:00072850       ?allocate@?$__crt_win32_buffer@DU__crt_win32_buffer_internal_dynamic_resizing@@@@QEAAH_K@Z 0000000140073850 f i libucrt:argv_wildcards.obj
 0001:000728c4       ?allocate@?$__crt_win32_buffer@_WU__crt_win32_buffer_internal_dynamic_resizing@@@@QEAAH_K@Z 00000001400738c4 f i libucrt:argv_wildcards.obj
 0001:00072938       ?allocate@__crt_win32_buffer_internal_dynamic_resizing@@SAHQEAPEAX_KAEBV__crt_win32_buffer_empty_debug_info@@@Z 0000000140073938 f i libucrt:argv_wildcards.obj
 0001:00072ba0       ?capacity@?$__crt_win32_buffer@DU__crt_win32_buffer_internal_dynamic_resizing@@@@QEBA_KXZ 0000000140073ba0 f i libucrt:argv_wildcards.obj
 0001:00072ba8       ?capacity@?$__crt_win32_buffer@_WU__crt_win32_buffer_internal_dynamic_resizing@@@@QEBA_KXZ 0000000140073ba8 f i libucrt:argv_wildcards.obj
 0001:00072bb0       ?close@?$__crt_unique_handle_t@U__crt_findfile_traits@@@@QEAAXXZ 0000000140073bb0 f i libucrt:argv_wildcards.obj
 0001:00072bdc       ?close@__crt_findfile_traits@@SA_NPEAX@Z 0000000140073bdc f i libucrt:argv_wildcards.obj
 0001:00072bf8       ?data@?$__crt_win32_buffer@DU__crt_win32_buffer_internal_dynamic_resizing@@@@QEAAPEADXZ 0000000140073bf8 f i libucrt:argv_wildcards.obj
 0001:00072c00       ?data@?$__crt_win32_buffer@_WU__crt_win32_buffer_internal_dynamic_resizing@@@@QEAAPEA_WXZ 0000000140073c00 f i libucrt:argv_wildcards.obj
 0001:00072c08       ?deallocate@__crt_win32_buffer_internal_dynamic_resizing@@SAXQEAXAEBV__crt_win32_buffer_empty_debug_info@@@Z 0000000140073c08 f i libucrt:argv_wildcards.obj
 0001:00072c10       ?debug_info@?$__crt_win32_buffer@DU__crt_win32_buffer_internal_dynamic_resizing@@@@QEBAAEBV__crt_win32_buffer_empty_debug_info@@XZ 0000000140073c10 f i libucrt:argv_wildcards.obj
 0001:00072c14       ?debug_info@?$__crt_win32_buffer@_WU__crt_win32_buffer_internal_dynamic_resizing@@@@QEBAAEBV__crt_win32_buffer_empty_debug_info@@XZ 0000000140073c14 f i libucrt:argv_wildcards.obj
 0001:00072e18       ?get@?$__crt_unique_handle_t@U__crt_findfile_traits@@@@QEBAPEAXXZ 0000000140073e18 f i libucrt:argv_wildcards.obj
 0001:00072ee4       ?get_invalid_value@__crt_findfile_traits@@SAPEAXXZ 0000000140073ee4 f i libucrt:argv_wildcards.obj
 0001:00072fc4       ?set_to_nullptr@?$__crt_win32_buffer@DU__crt_win32_buffer_internal_dynamic_resizing@@@@QEAAXXZ 0000000140073fc4 f i libucrt:argv_wildcards.obj
 0001:00073004       ?set_to_nullptr@?$__crt_win32_buffer@_WU__crt_win32_buffer_internal_dynamic_resizing@@@@QEAAXXZ 0000000140074004 f i libucrt:argv_wildcards.obj
 0001:00073044       ?size@?$__crt_win32_buffer@DU__crt_win32_buffer_internal_dynamic_resizing@@@@QEAAX_K@Z 0000000140074044 f i libucrt:argv_wildcards.obj
 0001:0007304c       ?size@?$__crt_win32_buffer@_WU__crt_win32_buffer_internal_dynamic_resizing@@@@QEAAX_K@Z 000000014007404c f i libucrt:argv_wildcards.obj
 0001:00073074       ?strpbrk@@YAPEADQEADQEBD@Z 0000000140074074 f i libucrt:argv_wildcards.obj
 0001:0007307c       ?wcspbrk@@YAPEA_WPEA_WPEB_W@Z 000000014007407c f i libucrt:argv_wildcards.obj
 0001:00073084       __acrt_expand_narrow_argv_wildcards 0000000140074084 f   libucrt:argv_wildcards.obj
 0001:0007308c       __acrt_expand_wide_argv_wildcards 000000014007408c f   libucrt:argv_wildcards.obj
 0001:000731f4       ??$__acrt_wcs_to_mbs_cp@U__crt_win32_buffer_no_resizing@@@@YAHQEB_WAEAV?$__crt_win32_buffer@DU__crt_win32_buffer_no_resizing@@@@I@Z 00000001400741f4 f i libucrt:getmodulefilenamea.obj
 0001:0007334c       ??0?$__crt_win32_buffer@DU__crt_win32_buffer_no_resizing@@@@QEAA@QEAD_K@Z 000000014007434c f i libucrt:getmodulefilenamea.obj
 0001:00073370       ??1?$__crt_win32_buffer@DU__crt_win32_buffer_no_resizing@@@@QEAA@XZ 0000000140074370 f i libucrt:getmodulefilenamea.obj
 0001:000733bc       ?_deallocate@?$__crt_win32_buffer@DU__crt_win32_buffer_no_resizing@@@@AEAAXXZ 00000001400743bc f i libucrt:getmodulefilenamea.obj
 0001:000733cc       ?allocate@?$__crt_win32_buffer@DU__crt_win32_buffer_no_resizing@@@@QEAAH_K@Z 00000001400743cc f i libucrt:getmodulefilenamea.obj
 0001:00073408       ?allocate@__crt_win32_buffer_no_resizing@@SAHQEAPEAX_KAEBV__crt_win32_buffer_empty_debug_info@@@Z 0000000140074408 f i libucrt:getmodulefilenamea.obj
 0001:00073424       ?capacity@?$__crt_win32_buffer@DU__crt_win32_buffer_no_resizing@@@@QEBA_KXZ 0000000140074424 f i libucrt:getmodulefilenamea.obj
 0001:0007342c       ?data@?$__crt_win32_buffer@DU__crt_win32_buffer_no_resizing@@@@QEAAPEADXZ 000000014007442c f i libucrt:getmodulefilenamea.obj
 0001:00073434       ?deallocate@__crt_win32_buffer_no_resizing@@SAXQEAXAEBV__crt_win32_buffer_empty_debug_info@@@Z 0000000140074434 f i libucrt:getmodulefilenamea.obj
 0001:00073438       ?debug_info@?$__crt_win32_buffer@DU__crt_win32_buffer_no_resizing@@@@QEBAAEBV__crt_win32_buffer_empty_debug_info@@XZ 0000000140074438 f i libucrt:getmodulefilenamea.obj
 0001:0007343c       ?set_to_nullptr@?$__crt_win32_buffer@DU__crt_win32_buffer_no_resizing@@@@QEAAXXZ 000000014007443c f i libucrt:getmodulefilenamea.obj
 0001:00073458       ?size@?$__crt_win32_buffer@DU__crt_win32_buffer_no_resizing@@@@QEAAX_K@Z 0000000140074458 f i libucrt:getmodulefilenamea.obj
 0001:00073460       ?size@?$__crt_win32_buffer@DU__crt_win32_buffer_no_resizing@@@@QEBA_KXZ 0000000140074460 f i libucrt:getmodulefilenamea.obj
 0001:00073468       __acrt_GetModuleFileNameA  0000000140074468 f   libucrt:getmodulefilenamea.obj
 0001:00073828       ??$initialize_from_array@$$BY10BAA@E@?$dual_state_global@PEAE@__crt_state_management@@QEAAXAEAY10BAA@E@Z 0000000140074828 f i libucrt:mbctype.obj
 0001:0007382c       ??$initialize_from_array@$$BY10BAB@E@?$dual_state_global@PEAE@__crt_state_management@@QEAAXAEAY10BAB@E@Z 000000014007482c f i libucrt:mbctype.obj
 0001:00073ab8       ?dangerous_get_state_array@?$dual_state_global@PEAE@__crt_state_management@@QEAAPEAPEAEXZ 0000000140074ab8 f i libucrt:mbctype.obj
 0001:00073abc       ?dangerous_get_state_array@?$dual_state_global@PEAU__crt_multibyte_data@@@__crt_state_management@@QEAAPEAPEAU__crt_multibyte_data@@XZ 0000000140074abc f i libucrt:mbctype.obj
 0001:00073b5c       ?initialize@?$dual_state_global@PEAU__crt_multibyte_data@@@__crt_state_management@@QEAAXQEAU__crt_multibyte_data@@@Z 0000000140074b5c f i libucrt:mbctype.obj
 0001:000741b4       ?value@?$dual_state_global@PEAE@__crt_state_management@@QEAAAEAPEAEXZ 00000001400751b4 f i libucrt:mbctype.obj
 0001:000741b8       __acrt_initialize_multibyte 00000001400751b8 f   libucrt:mbctype.obj
 0001:00074230       __acrt_update_thread_multibyte_data 0000000140075230 f   libucrt:mbctype.obj
 0001:00074254       __p__mbcasemap             0000000140075254 f   libucrt:mbctype.obj
 0001:00074260       __p__mbctype               0000000140075260 f   libucrt:mbctype.obj
 0001:0007426c       _getmbcp                   000000014007526c f   libucrt:mbctype.obj
 0001:000742b4       _setmbcp                   00000001400752b4 f   libucrt:mbctype.obj
 0001:000742e4       _setmbcp_nolock            00000001400752e4 f   libucrt:mbctype.obj
 0001:00074788       _ismbbalnum                0000000140075788 f   libucrt:ismbbyte.obj
 0001:000747a4       _ismbbalnum_l              00000001400757a4 f   libucrt:ismbbyte.obj
 0001:000747c4       _ismbbalpha                00000001400757c4 f   libucrt:ismbbyte.obj
 0001:000747e0       _ismbbalpha_l              00000001400757e0 f   libucrt:ismbbyte.obj
 0001:00074800       _ismbbblank                0000000140075800 f   libucrt:ismbbyte.obj
 0001:00074824       _ismbbblank_l              0000000140075824 f   libucrt:ismbbyte.obj
 0001:0007484c       _ismbbgraph                000000014007584c f   libucrt:ismbbyte.obj
 0001:00074868       _ismbbgraph_l              0000000140075868 f   libucrt:ismbbyte.obj
 0001:00074888       _ismbbkalnum               0000000140075888 f   libucrt:ismbbyte.obj
 0001:000748a0       _ismbbkalnum_l             00000001400758a0 f   libucrt:ismbbyte.obj
 0001:000748bc       _ismbbkana                 00000001400758bc f   libucrt:ismbbyte.obj
 0001:000748c4       _ismbbkana_l               00000001400758c4 f   libucrt:ismbbyte.obj
 0001:00074944       _ismbbkprint               0000000140075944 f   libucrt:ismbbyte.obj
 0001:0007495c       _ismbbkprint_l             000000014007595c f   libucrt:ismbbyte.obj
 0001:00074978       _ismbbkpunct               0000000140075978 f   libucrt:ismbbyte.obj
 0001:00074990       _ismbbkpunct_l             0000000140075990 f   libucrt:ismbbyte.obj
 0001:000749ac       _ismbblead                 00000001400759ac f   libucrt:ismbbyte.obj
 0001:000749c4       _ismbblead_l               00000001400759c4 f   libucrt:ismbbyte.obj
 0001:000749e0       _ismbbprint                00000001400759e0 f   libucrt:ismbbyte.obj
 0001:000749fc       _ismbbprint_l              00000001400759fc f   libucrt:ismbbyte.obj
 0001:00074a1c       _ismbbpunct                0000000140075a1c f   libucrt:ismbbyte.obj
 0001:00074a34       _ismbbpunct_l              0000000140075a34 f   libucrt:ismbbyte.obj
 0001:00074a50       _ismbbtrail                0000000140075a50 f   libucrt:ismbbyte.obj
 0001:00074a68       _ismbbtrail_l              0000000140075a68 f   libucrt:ismbbyte.obj
 0001:00074af0       __acrt_MultiByteToWideChar 0000000140075af0 f   libucrt:multibytetowidechar.obj
 0001:00074bb8       __acrt_WideCharToMultiByte 0000000140075bb8 f   libucrt:widechartomultibyte.obj
 0001:00074d54       __dcrt_get_narrow_environment_from_os 0000000140075d54 f   libucrt:get_environment_from_os.obj
 0001:00074e98       __dcrt_get_wide_environment_from_os 0000000140075e98 f   libucrt:get_environment_from_os.obj
 0001:00075b3c       ??$get_or_create_environment_nolock@$$V@?$__crt_char_traits@D@@SAPEAPEADXZ 0000000140076b3c f i libucrt:setenv.obj
 0001:00075b44       ??$get_or_create_environment_nolock@$$V@?$__crt_char_traits@_W@@SAPEAPEA_WXZ 0000000140076b44 f i libucrt:setenv.obj
 0001:00075b4c       ??$set_environment_variable@AEBQEADQEAD@?$__crt_char_traits@D@@SAHAEBQEAD$$QEBQEAD@Z 0000000140076b4c f i libucrt:setenv.obj
 0001:00075b5c       ??$set_environment_variable@AEBQEA_WQEA_W@?$__crt_char_traits@_W@@SAHAEBQEA_W$$QEBQEA_W@Z 0000000140076b5c f i libucrt:setenv.obj
 0001:00075b6c       ??$tcschr@AEBQEADD@?$__crt_char_traits@D@@SAPEADAEBQEAD$$QEAD@Z 0000000140076b6c f i libucrt:setenv.obj
 0001:00075b7c       ??$tcschr@AEBQEA_WD@?$__crt_char_traits@_W@@SAPEA_WAEBQEA_W$$QEAD@Z 0000000140076b7c f i libucrt:setenv.obj
 0001:00075b8c       ??$tcscpy_s@AEAPEADAEB_KAEAPEAD@?$__crt_char_traits@D@@SAHAEAPEADAEB_K0@Z 0000000140076b8c f i libucrt:setenv.obj
 0001:00075ba0       ??$tcscpy_s@AEAPEA_WAEB_KAEAPEA_W@?$__crt_char_traits@_W@@SAHAEAPEA_WAEB_K0@Z 0000000140076ba0 f i libucrt:setenv.obj
 0001:00075bb4       ??$tcscpy_s@AEBQEADAEB_KAEBQEAD@?$__crt_char_traits@D@@SAHAEBQEADAEB_K0@Z 0000000140076bb4 f i libucrt:setenv.obj
 0001:00075bc8       ??$tcscpy_s@AEBQEA_WAEB_KAEBQEA_W@?$__crt_char_traits@_W@@SAHAEBQEA_WAEB_K0@Z 0000000140076bc8 f i libucrt:setenv.obj
 0001:00075bdc       ??$tcslen@AEBQEAD@?$__crt_char_traits@D@@SA_KAEBQEAD@Z 0000000140076bdc f i libucrt:setenv.obj
 0001:00075bf4       ??$tcslen@AEBQEA_W@?$__crt_char_traits@_W@@SA_KAEBQEA_W@Z 0000000140076bf4 f i libucrt:setenv.obj
 0001:00075c0c       ??$tcsnicoll@AEBQEBDAEAPEADAEB_K@?$__crt_char_traits@D@@SAHAEBQEBDAEAPEADAEB_K@Z 0000000140076c0c f i libucrt:setenv.obj
 0001:00075c20       ??$tcsnicoll@AEBQEB_WAEAPEA_WAEB_K@?$__crt_char_traits@_W@@SAHAEBQEB_WAEAPEA_WAEB_K@Z 0000000140076c20 f i libucrt:setenv.obj
 0001:00075c7c       ?strchr@@YAPEADQEADH@Z     0000000140076c7c f i libucrt:setenv.obj
 0001:00075c84       ?wcschr@@YAPEA_WPEA_W_W@Z  0000000140076c84 f i libucrt:setenv.obj
 0001:00075c8c       __dcrt_set_variable_in_narrow_environment_nolock 0000000140076c8c f   libucrt:setenv.obj
 0001:00075c94       __dcrt_set_variable_in_wide_environment_nolock 0000000140076c94 f   libucrt:setenv.obj
 0001:00075c9c       ??$?RU__crt_lowio_handle_data@@@__crt_internal_free_policy@@QEBAXQEBU__crt_lowio_handle_data@@@Z 0000000140076c9c f i libucrt:osfinfo.obj
 0001:00075ca8       ??0?$__crt_unique_heap_ptr@U__crt_lowio_handle_data@@U__crt_internal_free_policy@@@@QEAA@QEAU__crt_lowio_handle_data@@@Z 0000000140076ca8 f i libucrt:osfinfo.obj
 0001:00075cb0       ??1?$__crt_unique_heap_ptr@U__crt_lowio_handle_data@@U__crt_internal_free_policy@@@@QEAA@XZ 0000000140076cb0 f i libucrt:osfinfo.obj
 0001:00075cd4       ??B?$__crt_unique_heap_ptr@U__crt_lowio_handle_data@@U__crt_internal_free_policy@@@@QEBA_NXZ 0000000140076cd4 f i libucrt:osfinfo.obj
 0001:00075ce0       ?detach@?$__crt_unique_heap_ptr@U__crt_lowio_handle_data@@U__crt_internal_free_policy@@@@QEAAPEAU__crt_lowio_handle_data@@XZ 0000000140076ce0 f i libucrt:osfinfo.obj
 0001:00075cec       ?get@?$__crt_unique_heap_ptr@U__crt_lowio_handle_data@@U__crt_internal_free_policy@@@@QEBAPEAU__crt_lowio_handle_data@@XZ 0000000140076cec f i libucrt:osfinfo.obj
 0001:00075cf0       ?is_valid@?$__crt_unique_heap_ptr@U__crt_lowio_handle_data@@U__crt_internal_free_policy@@@@QEBA_NXZ 0000000140076cf0 f i libucrt:osfinfo.obj
 0001:00075cfc       ?release@?$__crt_unique_heap_ptr@U__crt_lowio_handle_data@@U__crt_internal_free_policy@@@@QEAAXXZ 0000000140076cfc f i libucrt:osfinfo.obj
 0001:00075d20       __acrt_lowio_create_handle_array 0000000140076d20 f   libucrt:osfinfo.obj
 0001:00075df0       __acrt_lowio_destroy_handle_array 0000000140076df0 f   libucrt:osfinfo.obj
 0001:00075e54       __acrt_lowio_ensure_fh_exists 0000000140076e54 f   libucrt:osfinfo.obj
 0001:00075f28       __acrt_lowio_lock_fh       0000000140076f28 f   libucrt:osfinfo.obj
 0001:00075f58       __acrt_lowio_set_os_handle 0000000140076f58 f   libucrt:osfinfo.obj
 0001:00076048       __acrt_lowio_unlock_fh     0000000140077048 f   libucrt:osfinfo.obj
 0001:00076078       _alloc_osfhnd              0000000140077078 f   libucrt:osfinfo.obj
 0001:00076208       _free_osfhnd               0000000140077208 f   libucrt:osfinfo.obj
 0001:000762f0       _get_osfhandle             00000001400772f0 f   libucrt:osfinfo.obj
 0001:00076384       _open_osfhandle            0000000140077384 f   libucrt:osfinfo.obj
 0001:000764c8       ?dangerous_get_state_array@?$dual_state_global@H@__crt_state_management@@QEAAPEAHXZ 00000001400774c8 f i libucrt:txtmode.obj
 0001:000764cc       __acrt_initialize_fmode    00000001400774cc f   libucrt:txtmode.obj
 0001:000764ec       __p__fmode                 00000001400774ec f   libucrt:txtmode.obj
 0001:000764f8       ??$?RG@__crt_internal_free_policy@@QEBAXQEBG@Z 00000001400774f8 f i libucrt:initctype.obj
 0001:00076504       ??$?RJ@__crt_internal_free_policy@@QEBAXQEBJ@Z 0000000140077504 f i libucrt:initctype.obj
 0001:00076510       ??0?$__crt_unique_heap_ptr@GU__crt_internal_free_policy@@@@QEAA@QEAG@Z 0000000140077510 f i libucrt:initctype.obj
 0001:00076518       ??0?$__crt_unique_heap_ptr@JU__crt_internal_free_policy@@@@QEAA@QEAJ@Z 0000000140077518 f i libucrt:initctype.obj
 0001:00076520       ??1?$__crt_unique_heap_ptr@GU__crt_internal_free_policy@@@@QEAA@XZ 0000000140077520 f i libucrt:initctype.obj
 0001:00076544       ??1?$__crt_unique_heap_ptr@JU__crt_internal_free_policy@@@@QEAA@XZ 0000000140077544 f i libucrt:initctype.obj
 0001:00076568       ?detach@?$__crt_unique_heap_ptr@GU__crt_internal_free_policy@@@@QEAAPEAGXZ 0000000140077568 f i libucrt:initctype.obj
 0001:00076574       ?detach@?$__crt_unique_heap_ptr@JU__crt_internal_free_policy@@@@QEAAPEAJXZ 0000000140077574 f i libucrt:initctype.obj
 0001:00076580       ?release@?$__crt_unique_heap_ptr@GU__crt_internal_free_policy@@@@QEAAXXZ 0000000140077580 f i libucrt:initctype.obj
 0001:000765a4       ?release@?$__crt_unique_heap_ptr@JU__crt_internal_free_policy@@@@QEAAXXZ 00000001400775a4 f i libucrt:initctype.obj
 0001:000765c8       ___lc_codepage_func        00000001400775c8 f   libucrt:initctype.obj
 0001:00076604       ___lc_collate_cp_func      0000000140077604 f   libucrt:initctype.obj
 0001:00076640       ___lc_locale_name_func     0000000140077640 f   libucrt:initctype.obj
 0001:00076680       ___mb_cur_max_func         0000000140077680 f   libucrt:initctype.obj
 0001:000766bc       ___mb_cur_max_l_func       00000001400776bc f   libucrt:initctype.obj
 0001:000766d0       __acrt_locale_initialize_ctype 00000001400776d0 f   libucrt:initctype.obj
 0001:00076ecc       ??$?RUlconv@@@__crt_internal_free_policy@@QEBAXQEBUlconv@@@Z 0000000140077ecc f i libucrt:initmon.obj
 0001:00076ed8       ??0?$__crt_unique_heap_ptr@Ulconv@@U__crt_internal_free_policy@@@@QEAA@QEAUlconv@@@Z 0000000140077ed8 f i libucrt:initmon.obj
 0001:00076ee0       ??1?$__crt_unique_heap_ptr@Ulconv@@U__crt_internal_free_policy@@@@QEAA@XZ 0000000140077ee0 f i libucrt:initmon.obj
 0001:00076f04       ?detach@?$__crt_unique_heap_ptr@Ulconv@@U__crt_internal_free_policy@@@@QEAAPEAUlconv@@XZ 0000000140077f04 f i libucrt:initmon.obj
 0001:00076f10       ?release@?$__crt_unique_heap_ptr@Ulconv@@U__crt_internal_free_policy@@@@QEAAXXZ 0000000140077f10 f i libucrt:initmon.obj
 0001:00076f34       __acrt_locale_free_monetary 0000000140077f34 f   libucrt:initmon.obj
 0001:00077080       __acrt_locale_initialize_monetary 0000000140078080 f   libucrt:initmon.obj
 0001:00077740       __acrt_locale_free_numeric 0000000140078740 f   libucrt:initnum.obj
 0001:000777c8       __acrt_locale_initialize_numeric 00000001400787c8 f   libucrt:initnum.obj
 0001:00077ba8       ??$?RU__crt_lc_time_data@@@__crt_internal_free_policy@@QEBAXQEBU__crt_lc_time_data@@@Z 0000000140078ba8 f i libucrt:inittime.obj
 0001:00077bfc       ??0?$__crt_unique_heap_ptr@U__crt_lc_time_data@@U__crt_internal_free_policy@@@@QEAA@QEAU__crt_lc_time_data@@@Z 0000000140078bfc f i libucrt:inittime.obj
 0001:00077c04       ??1?$__crt_unique_heap_ptr@U__crt_lc_time_data@@U__crt_internal_free_policy@@@@QEAA@XZ 0000000140078c04 f i libucrt:inittime.obj
 0001:00077c28       ??B?$__crt_unique_heap_ptr@U__crt_lc_time_data@@U__crt_internal_free_policy@@@@QEBA_NXZ 0000000140078c28 f i libucrt:inittime.obj
 0001:00077c34       ?detach@?$__crt_unique_heap_ptr@U__crt_lc_time_data@@U__crt_internal_free_policy@@@@QEAAPEAU__crt_lc_time_data@@XZ 0000000140078c34 f i libucrt:inittime.obj
 0001:00077cb0       ?get@?$__crt_unique_heap_ptr@U__crt_lc_time_data@@U__crt_internal_free_policy@@@@QEBAPEAU__crt_lc_time_data@@XZ 0000000140078cb0 f i libucrt:inittime.obj
 0001:00078158       ?is_valid@?$__crt_unique_heap_ptr@U__crt_lc_time_data@@U__crt_internal_free_policy@@@@QEBA_NXZ 0000000140079158 f i libucrt:inittime.obj
 0001:00078164       ?release@?$__crt_unique_heap_ptr@U__crt_lc_time_data@@U__crt_internal_free_policy@@@@QEAAXXZ 0000000140079164 f i libucrt:inittime.obj
 0001:00078188       __acrt_locale_free_time    0000000140079188 f   libucrt:inittime.obj
 0001:000782d4       __acrt_locale_initialize_time 00000001400792d4 f   libucrt:inittime.obj
 0001:000784cc       wcsncat_s                  00000001400794cc f   libucrt:wcsncat_s.obj
 0001:00078608       wcscspn                    0000000140079608 f   libucrt:wcscspn.obj
 0001:00078658       wcspbrk                    0000000140079658 f   libucrt:wcspbrk.obj
 0001:0007869c       ??0?$__crt_scoped_stack_ptr@_W@@QEAA@U?$__crt_scoped_stack_ptr_tag@_W@@@Z 000000014007969c f i libucrt:getstringtypea.obj
 0001:000786a4       ??0?$__crt_scoped_stack_ptr_tag@_W@@QEAA@QEA_W@Z 00000001400796a4 f i libucrt:getstringtypea.obj
 0001:000786ac       ??1?$__crt_scoped_stack_ptr@_W@@QEAA@XZ 00000001400796ac f i libucrt:getstringtypea.obj
 0001:000786d8       ?get@?$__crt_scoped_stack_ptr@_W@@QEBAPEA_WXZ 00000001400796d8 f i libucrt:getstringtypea.obj
 0001:000786dc       _MallocaComputeSize        00000001400796dc f i libucrt:getstringtypea.obj
 0001:000786f0       _MarkAllocaS               00000001400796f0 f i libucrt:getstringtypea.obj
 0001:00078704       __acrt_GetStringTypeA      0000000140079704 f   libucrt:getstringtypea.obj
 0001:000788f4       _freea_crt                 00000001400798f4 f i libucrt:getstringtypea.obj
 0001:0007891c       __acrt_add_locale_ref      000000014007991c f   libucrt:locale_refcounting.obj
 0001:000789cc       __acrt_free_locale         00000001400799cc f   libucrt:locale_refcounting.obj
 0001:00078ba0       __acrt_locale_add_lc_time_reference 0000000140079ba0 f   libucrt:locale_refcounting.obj
 0001:00078bd0       __acrt_locale_free_lc_time_if_unreferenced 0000000140079bd0 f   libucrt:locale_refcounting.obj
 0001:00078c14       __acrt_locale_release_lc_time_reference 0000000140079c14 f   libucrt:locale_refcounting.obj
 0001:00078c44       __acrt_release_locale_ref  0000000140079c44 f   libucrt:locale_refcounting.obj
 0001:00078d18       __acrt_update_thread_locale_data 0000000140079d18 f   libucrt:locale_refcounting.obj
 0001:00078da4       _updatetlocinfoEx_nolock   0000000140079da4 f   libucrt:locale_refcounting.obj
 0001:00079888       __acrt_get_qualified_locale 000000014007a888 f   libucrt:get_qualified_locale.obj
 0001:0007a648       __acrt_get_qualified_locale_downlevel 000000014007b648 f   libucrt:getqloc_downlevel.obj
 0001:0007a968       localeconv                 000000014007b968 f   libucrt:localeconv.obj
 0001:0007a9a8       _recalloc                  000000014007b9a8 f   libucrt:recalloc.obj
 0001:0007a9b0       _recalloc_base             000000014007b9b0 f   libucrt:recalloc.obj
 0001:0007aa6c       __acrt_getheap             000000014007ba6c f   libucrt:heap_handle.obj
 0001:0007aa78       __acrt_initialize_heap     000000014007ba78 f   libucrt:heap_handle.obj
 0001:0007aa9c       __acrt_uninitialize_heap   000000014007ba9c f   libucrt:heap_handle.obj
 0001:0007aaac       _get_heap_handle           000000014007baac f   libucrt:heap_handle.obj
 0001:0007aab8       __acrt_execute_initializers 000000014007bab8 f   libucrt:shared_initialization.obj
 0001:0007ab58       __acrt_execute_uninitializers 000000014007bb58 f   libucrt:shared_initialization.obj
 0001:0007aba4       ??$?B$$A6AH_K@Z@__crt_fast_encoded_nullptr_t@@QEBAP6AH_K@ZXZ 000000014007bba4 f i libucrt:new_handler.obj
 0001:0007abb0       ??$__crt_fast_decode_pointer@P6AH_K@Z@@YAP6AH_K@ZQ6AH0@Z@Z 000000014007bbb0 f i libucrt:new_handler.obj
 0001:0007abcc       ??$__crt_fast_encode_pointer@P6AH_K@Z@@YAP6AH_K@ZQ6AH0@Z@Z 000000014007bbcc f i libucrt:new_handler.obj
 0001:0007abf4       ?_set_new_handler@@YAP6AH_K@ZH@Z 000000014007bbf4 f   libucrt:new_handler.obj
 0001:0007ac04       ?initialize@?$dual_state_global@P6AH_K@Z@__crt_state_management@@QEAAXQ6AH_K@Z@Z 000000014007bc04 f i libucrt:new_handler.obj
 0001:0007ac34       ?value@?$dual_state_global@P6AH_K@Z@__crt_state_management@@QEAAAEAP6AH_K@ZXZ 000000014007bc34 f i libucrt:new_handler.obj
 0001:0007ac38       __acrt_initialize_new_handler 000000014007bc38 f   libucrt:new_handler.obj
 0001:0007ac44       _callnewh                  000000014007bc44 f   libucrt:new_handler.obj
 0001:0007ac80       _query_new_handler         000000014007bc80 f   libucrt:new_handler.obj
 0001:0007acc4       _set_new_handler           000000014007bcc4 f   libucrt:new_handler.obj
 0001:0007ad34       ??$?B$$A6AXH@Z@__crt_fast_encoded_nullptr_t@@QEBAP6AXH@ZXZ 000000014007bd34 f i libucrt:signal.obj
 0001:0007adc8       ??$__crt_fast_decode_pointer@P6AXH@Z@@YAP6AXH@ZQ6AXH@Z@Z 000000014007bdc8 f i libucrt:signal.obj
 0001:0007ade4       ??$__crt_fast_encode_pointer@P6AXH@Z@@YAP6AXH@ZQ6AXH@Z@Z 000000014007bde4 f i libucrt:signal.obj
 0001:0007af54       ?initialize@?$dual_state_global@P6AXH@Z@__crt_state_management@@QEAAXQ6AXH@Z@Z 000000014007bf54 f i libucrt:signal.obj
 0001:0007b010       ?value@?$dual_state_global@P6AXH@Z@__crt_state_management@@QEAAAEAP6AXH@ZXZ 000000014007c010 f i libucrt:signal.obj
 0001:0007b014       __acrt_get_sigabrt_handler 000000014007c014 f   libucrt:signal.obj
 0001:0007b050       __acrt_initialize_signal_handlers 000000014007c050 f   libucrt:signal.obj
 0001:0007b074       __fpecode                  000000014007c074 f   libucrt:signal.obj
 0001:0007b08c       __pxcptinfoptrs            000000014007c08c f   libucrt:signal.obj
 0001:0007b0a4       raise                      000000014007c0a4 f   libucrt:signal.obj
 0001:0007b3a8       signal                     000000014007c3a8 f   libucrt:signal.obj
 0001:0007b5f8       ??_4@YAAEAW4__acrt_fenv_abstract_status@@AEAW40@W40@@Z 000000014007c5f8 f i libucrt:fegetexceptflag.obj
 0001:0007b600       fegetexceptflag            000000014007c600 f   libucrt:fegetexceptflag.obj
 0001:0007b654       ??I@YA?AW4__acrt_fenv_abstract_status@@W40@0@Z 000000014007c654 f i libucrt:fesetexceptflag.obj
 0001:0007b65c       ??S@YA?AW4__acrt_fenv_abstract_status@@W40@@Z 000000014007c65c f i libucrt:fesetexceptflag.obj
 0001:0007b664       ??_5@YAAEAW4__acrt_fenv_abstract_status@@AEAW40@W40@@Z 000000014007c664 f i libucrt:fesetexceptflag.obj
 0001:0007b66c       fesetexceptflag            000000014007c66c f   libucrt:fesetexceptflag.obj
 0001:0007b6f4       ??$__acrt_fenv_shift_bits@W4__acrt_fenv_abstract_control@@@@YA?AW4__acrt_fenv_abstract_control@@W40@0I@Z 000000014007c6f4 f i libucrt:_fenvutils.obj
 0001:0007b700       ??$__acrt_fenv_shift_bits@W4__acrt_fenv_abstract_status@@@@YA?AW4__acrt_fenv_abstract_status@@W40@0I@Z 000000014007c700 f i libucrt:_fenvutils.obj
 0001:0007b70c       ??$__acrt_fenv_translate_bit@W4__acrt_fenv_abstract_control@@W4__acrt_fenv_machine_sse_control@@@@YA?AW4__acrt_fenv_abstract_control@@W4__acrt_fenv_machine_sse_control@@0W40@1@Z 000000014007c70c f i libucrt:_fenvutils.obj
 0001:0007b71c       ??$__acrt_fenv_translate_bit@W4__acrt_fenv_abstract_status@@W4__acrt_fenv_machine_sse_status@@@@YA?AW4__acrt_fenv_abstract_status@@W4__acrt_fenv_machine_sse_status@@0W40@1@Z 000000014007c71c f i libucrt:_fenvutils.obj
 0001:0007b728       ??$__acrt_fenv_translate_bit@W4__acrt_fenv_machine_sse_control@@W4__acrt_fenv_abstract_control@@@@YA?AW4__acrt_fenv_machine_sse_control@@W4__acrt_fenv_abstract_control@@0W40@1@Z 000000014007c728 f i libucrt:_fenvutils.obj
 0001:0007b738       ??$__acrt_fenv_translate_bit@W4__acrt_fenv_machine_sse_status@@W4__acrt_fenv_abstract_status@@@@YA?AW4__acrt_fenv_machine_sse_status@@W4__acrt_fenv_abstract_status@@0W40@1@Z 000000014007c738 f i libucrt:_fenvutils.obj
 0001:0007b744       ??$__acrt_fenv_unshift_bits@W4__acrt_fenv_abstract_control@@@@YA?AW4__acrt_fenv_abstract_control@@W40@0I@Z 000000014007c744 f i libucrt:_fenvutils.obj
 0001:0007b750       ??$__acrt_fenv_unshift_bits@W4__acrt_fenv_abstract_status@@@@YA?AW4__acrt_fenv_abstract_status@@W40@0I@Z 000000014007c750 f i libucrt:_fenvutils.obj
 0001:0007ba2c       ??I@YA?AW4__acrt_fenv_abstract_control@@W40@0@Z 000000014007ca2c f i libucrt:_fenvutils.obj
 0001:0007ba34       ??I@YA?AW4__acrt_fenv_machine_sse_control@@W40@0@Z 000000014007ca34 f i libucrt:_fenvutils.obj
 0001:0007ba3c       ??I@YA?AW4__acrt_fenv_machine_sse_status@@W40@0@Z 000000014007ca3c f i libucrt:_fenvutils.obj
 0001:0007ba44       ??U@YA?AW4__acrt_fenv_abstract_control@@W40@0@Z 000000014007ca44 f i libucrt:_fenvutils.obj
 0001:0007ba4c       ??U@YA?AW4__acrt_fenv_abstract_status@@W40@0@Z 000000014007ca4c f i libucrt:_fenvutils.obj
 0001:0007ba54       ??U@YA?AW4__acrt_fenv_machine_sse_control@@W40@0@Z 000000014007ca54 f i libucrt:_fenvutils.obj
 0001:0007ba5c       ??_5@YAAEAW4__acrt_fenv_abstract_control@@AEAW40@W40@@Z 000000014007ca5c f i libucrt:_fenvutils.obj
 0001:0007ba64       ??_5@YAAEAW4__acrt_fenv_machine_sse_control@@AEAW40@W40@@Z 000000014007ca64 f i libucrt:_fenvutils.obj
 0001:0007ba6c       ??_5@YAAEAW4__acrt_fenv_machine_sse_status@@AEAW40@W40@@Z 000000014007ca6c f i libucrt:_fenvutils.obj
 0001:0007ba74       ?__acrt_fenv_shift_abstract_sse_control@@YA?AW4__acrt_fenv_abstract_control@@W41@@Z 000000014007ca74 f i libucrt:_fenvutils.obj
 0001:0007ba8c       ?__acrt_fenv_shift_abstract_sse_status@@YA?AW4__acrt_fenv_abstract_status@@W41@@Z 000000014007ca8c f i libucrt:_fenvutils.obj
 0001:0007ba98       ?__acrt_fenv_unshift_abstract_sse_control@@YA?AW4__acrt_fenv_abstract_control@@W41@@Z 000000014007ca98 f i libucrt:_fenvutils.obj
 0001:0007bab4       ?__acrt_fenv_unshift_abstract_sse_status@@YA?AW4__acrt_fenv_abstract_status@@W41@@Z 000000014007cab4 f i libucrt:_fenvutils.obj
 0001:0007beb8       __acrt_fenv_expand_round_control 000000014007ceb8 f   libucrt:_fenvutils.obj
 0001:0007bed4       __acrt_fenv_get_common_round_control 000000014007ced4 f   libucrt:_fenvutils.obj
 0001:0007bee0       __acrt_fenv_get_control    000000014007cee0 f   libucrt:_fenvutils.obj
 0001:0007c010       __acrt_fenv_get_fp_status_word_from_exception_mask 000000014007d010 f   libucrt:_fenvutils.obj
 0001:0007c020       __acrt_fenv_get_status     000000014007d020 f   libucrt:_fenvutils.obj
 0001:0007c088       __acrt_fenv_set_control    000000014007d088 f   libucrt:_fenvutils.obj
 0001:0007c220       __acrt_fenv_set_status     000000014007d220 f   libucrt:_fenvutils.obj
 0001:0007c3cc       __acrt_DownlevelLCIDToLocaleName 000000014007d3cc f   libucrt:lcidtoname_downlevel.obj
 0001:0007c500       __acrt_DownlevelLocaleNameToLCID 000000014007d500 f   libucrt:lcidtoname_downlevel.obj
 0001:0007c770       _commit                    000000014007d770 f   libucrt:commit.obj
 0001:0007c828       __ascii_wcsnicmp           000000014007d828 f   libucrt:wcsnicmp.obj
 0001:0007c888       _towlower_fast_internal    000000014007d888 f i libucrt:wcsnicmp.obj
 0001:0007c8b8       _towlower_internal         000000014007d8b8 f i libucrt:wcsnicmp.obj
 0001:0007c8fc       _wcsnicmp                  000000014007d8fc f   libucrt:wcsnicmp.obj
 0001:0007c954       _wcsnicmp_l                000000014007d954 f   libucrt:wcsnicmp.obj
 0001:0007caf8       __ascii_strnicmp           000000014007daf8 f   libucrt:strnicmp.obj
 0001:0007cb54       _strnicmp                  000000014007db54 f   libucrt:strnicmp.obj
 0001:0007cbb8       _strnicmp_l                000000014007dbb8 f   libucrt:strnicmp.obj
 0001:0007d208       ??$tsopen_nolock@PEAHAEBQEAHAEBQEBDAEBHAEBHAEBHAEBH@?$__crt_char_traits@D@@SAH$$QEAPEAHAEBQEAHAEBQEBDAEBH333@Z 000000014007e208 f i libucrt:open.obj
 0001:0007d250       ??$tsopen_nolock@PEAHAEBQEAHAEBQEB_WAEBHAEBHAEBHAEBH@?$__crt_char_traits@_W@@SAH$$QEAPEAHAEBQEAHAEBQEB_WAEBH333@Z 000000014007e250 f i libucrt:open.obj
 0001:0007d298       ??$tsopen_nolock@PEAHPEAHAEBQEBDAEBHHAEBHH@?$__crt_char_traits@D@@SAH$$QEAPEAH0AEBQEBDAEBH$$QEAH23@Z 000000014007e298 f i libucrt:open.obj
 0001:0007d2e0       ??$tsopen_nolock@PEAHPEAHAEBQEB_WAEBHHAEBHH@?$__crt_char_traits@_W@@SAH$$QEAPEAH0AEBQEB_WAEBH$$QEAH23@Z 000000014007e2e0 f i libucrt:open.obj
 0001:0007dc2c       _open                      000000014007ec2c f   libucrt:open.obj
 0001:0007dc58       _sopen                     000000014007ec58 f   libucrt:open.obj
 0001:0007dcac       _sopen_dispatch            000000014007ecac f   libucrt:open.obj
 0001:0007dcb4       _sopen_nolock              000000014007ecb4 f   libucrt:open.obj
 0001:0007de10       _sopen_s                   000000014007ee10 f   libucrt:open.obj
 0001:0007de50       _wopen                     000000014007ee50 f   libucrt:open.obj
 0001:0007de7c       _wsopen                    000000014007ee7c f   libucrt:open.obj
 0001:0007ded0       _wsopen_dispatch           000000014007eed0 f   libucrt:open.obj
 0001:0007ded8       _wsopen_nolock             000000014007eed8 f   libucrt:open.obj
 0001:0007e3b8       _wsopen_s                  000000014007f3b8 f   libucrt:open.obj
 0001:0007e3f8       _isatty                    000000014007f3f8 f   libucrt:isatty.obj
 0001:0007e9bc       _lseek                     000000014007f9bc f   libucrt:lseek.obj
 0001:0007e9c4       _lseek_nolock              000000014007f9c4 f   libucrt:lseek.obj
 0001:0007e9cc       _lseeki64                  000000014007f9cc f   libucrt:lseek.obj
 0001:0007e9d4       _lseeki64_nolock           000000014007f9d4 f   libucrt:lseek.obj
 0001:0007e9dc       __acrt_stdio_allocate_buffer_nolock 000000014007f9dc f   libucrt:_getbuf.obj
 0001:0007ea94       ?__mbrtowc_utf8@__crt_mbstring@@YA_KPEA_WPEBD_KPEAU_Mbstatet@@@Z 000000014007fa94 f   libucrt:mbrtowc.obj
 0001:0007eadc       ?__mbsrtowcs_utf8@__crt_mbstring@@YA_KPEA_WPEAPEBD_KPEAU_Mbstatet@@@Z 000000014007fadc f   libucrt:mbrtowc.obj
 0001:0007f150       btowc                      0000000140080150 f   libucrt:mbrtowc.obj
 0001:0007f1d0       mbrlen                     00000001400801d0 f   libucrt:mbrtowc.obj
 0001:0007f220       mbrtowc                    0000000140080220 f   libucrt:mbrtowc.obj
 0001:0007f298       mbsrtowcs                  0000000140080298 f   libucrt:mbrtowc.obj
 0001:0007f2a0       mbsrtowcs_s                00000001400802a0 f   libucrt:mbrtowc.obj
 0001:0007f458       _putwch                    0000000140080458 f   libucrt:putwch.obj
 0001:0007f4a4       _putwch_nolock             00000001400804a4 f   libucrt:putwch.obj
 0001:0007f4f0       __iswcsym                  00000001400804f0 f i libucrt:_wctype.obj
 0001:0007f528       __iswcsymf                 0000000140080528 f i libucrt:_wctype.obj
 0001:0007f560       _isleadbyte_l              0000000140080560 f i libucrt:_wctype.obj
 0001:0007f5c0       _iswalnum_l                00000001400805c0 f i libucrt:_wctype.obj
 0001:0007f5cc       _iswalpha_l                00000001400805cc f i libucrt:_wctype.obj
 0001:0007f5d8       _iswblank_l                00000001400805d8 f i libucrt:_wctype.obj
 0001:0007f5f4       _iswcntrl_l                00000001400805f4 f i libucrt:_wctype.obj
 0001:0007f600       _iswcsym_l                 0000000140080600 f i libucrt:_wctype.obj
 0001:0007f638       _iswcsymf_l                0000000140080638 f i libucrt:_wctype.obj
 0001:0007f670       _iswdigit_l                0000000140080670 f i libucrt:_wctype.obj
 0001:0007f67c       _iswgraph_l                000000014008067c f i libucrt:_wctype.obj
 0001:0007f688       _iswlower_l                0000000140080688 f i libucrt:_wctype.obj
 0001:0007f694       _iswprint_l                0000000140080694 f i libucrt:_wctype.obj
 0001:0007f6a0       _iswpunct_l                00000001400806a0 f i libucrt:_wctype.obj
 0001:0007f6ac       _iswspace_l                00000001400806ac f i libucrt:_wctype.obj
 0001:0007f6b8       _iswupper_l                00000001400806b8 f i libucrt:_wctype.obj
 0001:0007f6c4       _iswxdigit_l               00000001400806c4 f i libucrt:_wctype.obj
 0001:0007f6d0       isleadbyte                 00000001400806d0 f i libucrt:_wctype.obj
 0001:0007f730       iswalnum                   0000000140080730 f i libucrt:_wctype.obj
 0001:0007f73c       iswalpha                   000000014008073c f i libucrt:_wctype.obj
 0001:0007f748       iswascii                   0000000140080748 f i libucrt:_wctype.obj
 0001:0007f75c       iswblank                   000000014008075c f i libucrt:_wctype.obj
 0001:0007f778       iswcntrl                   0000000140080778 f i libucrt:_wctype.obj
 0001:0007f784       iswdigit                   0000000140080784 f i libucrt:_wctype.obj
 0001:0007f790       iswgraph                   0000000140080790 f i libucrt:_wctype.obj
 0001:0007f79c       iswlower                   000000014008079c f i libucrt:_wctype.obj
 0001:0007f7a8       iswprint                   00000001400807a8 f i libucrt:_wctype.obj
 0001:0007f7b4       iswpunct                   00000001400807b4 f i libucrt:_wctype.obj
 0001:0007f7c0       iswspace                   00000001400807c0 f i libucrt:_wctype.obj
 0001:0007f7cc       iswupper                   00000001400807cc f i libucrt:_wctype.obj
 0001:0007f7d8       iswxdigit                  00000001400807d8 f i libucrt:_wctype.obj
 0001:0007f7e4       ?__c32rtomb_utf8@__crt_mbstring@@YA_KPEAD_UPEAU_Mbstatet@@@Z 00000001400807e4 f   libucrt:c32rtomb.obj
 0001:0007f8c4       ?reset_and_return@__crt_mbstring@@YA_K_KPEAU_Mbstatet@@@Z 00000001400808c4 f i libucrt:c32rtomb.obj
 0001:0007f8d0       ?return_illegal_sequence@__crt_mbstring@@YA_KPEAU_Mbstatet@@@Z 00000001400808d0 f i libucrt:c32rtomb.obj
 0001:0007f8f4       c32rtomb                   00000001400808f4 f   libucrt:c32rtomb.obj
 0001:0007f9d8       __acrt_fp_strflt_to_string 00000001400809d8 f   libucrt:_fptostr.obj
 0001:000811a0       ??8__crt_strtox@@YA_NAEBUbig_integer@0@0@Z 00000001400821a0 f i libucrt:cfout.obj
 0001:000811e0       ??9__crt_strtox@@YA_NAEBUbig_integer@0@0@Z 00000001400821e0 f i libucrt:cfout.obj
 0001:00081230       ?is_zero@__crt_strtox@@YA_NAEBUbig_integer@1@@Z 0000000140082230 f i libucrt:cfout.obj
 0001:00081240       ?make_big_integer_power_of_two@__crt_strtox@@YA?AUbig_integer@1@I@Z 0000000140082240 f i libucrt:cfout.obj
 0001:000812c0       __acrt_fltout              00000001400822c0 f   libucrt:cfout.obj
 0001:00082a40       __acrt_GetStringTypeW      0000000140083a40 f   libucrt:getstringtypew.obj
 0001:00082a48       __acrt_OutputDebugStringA  0000000140083a48 f   libucrt:outputdebugstringa.obj
 0001:00082c40       qsort                      0000000140083c40 f   libucrt:qsort.obj
 0001:000831bc       strncpy_s                  00000001400841bc f   libucrt:strncpy_s.obj
 0001:00083390       strpbrk                    0000000140084390 f   libucrt:strpbrk.obj
 0001:0008384c       _mbsdec                    000000014008484c f   libucrt:mbsdec.obj
 0001:00083858       _mbsdec_l                  0000000140084858 f   libucrt:mbsdec.obj
 0001:00083914       ??B?$__crt_scoped_stack_ptr@_W@@QEBA_NXZ 0000000140084914 f i libucrt:lcmapstringa.obj
 0001:00083cfc       __acrt_LCMapStringA        0000000140084cfc f   libucrt:lcmapstringa.obj
 0001:00083dd4       _wcsnicoll                 0000000140084dd4 f   libucrt:wcsnicol.obj
 0001:00083e38       _wcsnicoll_l               0000000140084e38 f   libucrt:wcsnicol.obj
 0001:00083f64       _strnicoll                 0000000140084f64 f   libucrt:strnicol.obj
 0001:00083f80       _strnicoll_l               0000000140084f80 f   libucrt:strnicol.obj
 0001:000842c8       __acrt_SetEnvironmentVariableA 00000001400852c8 f   libucrt:setenvironmentvariablea.obj
 0001:0008469c       __acrt_GetLocaleInfoA      000000014008569c f   libucrt:getlocaleinfoa.obj
 0001:00084ef4       _i64toa                    0000000140085ef4 f   libucrt:xtoa.obj
 0001:00084f34       _i64toa_s                  0000000140085f34 f   libucrt:xtoa.obj
 0001:00084f60       _i64tow                    0000000140085f60 f   libucrt:xtoa.obj
 0001:00084fa0       _i64tow_s                  0000000140085fa0 f   libucrt:xtoa.obj
 0001:00084fcc       _itoa                      0000000140085fcc f   libucrt:xtoa.obj
 0001:00085008       _itoa_s                    0000000140086008 f   libucrt:xtoa.obj
 0001:00085030       _itow                      0000000140086030 f   libucrt:xtoa.obj
 0001:0008506c       _itow_s                    000000014008606c f   libucrt:xtoa.obj
 0001:00085094       _ltoa                      0000000140086094 f   libucrt:xtoa.obj
 0001:000850d0       _ltoa_s                    00000001400860d0 f   libucrt:xtoa.obj
 0001:000850f8       _ltow                      00000001400860f8 f   libucrt:xtoa.obj
 0001:00085134       _ltow_s                    0000000140086134 f   libucrt:xtoa.obj
 0001:0008515c       _ui64toa                   000000014008615c f   libucrt:xtoa.obj
 0001:00085188       _ui64toa_s                 0000000140086188 f   libucrt:xtoa.obj
 0001:000851a0       _ui64tow                   00000001400861a0 f   libucrt:xtoa.obj
 0001:000851cc       _ui64tow_s                 00000001400861cc f   libucrt:xtoa.obj
 0001:000851e4       _ultoa                     00000001400861e4 f   libucrt:xtoa.obj
 0001:00085210       _ultoa_s                   0000000140086210 f   libucrt:xtoa.obj
 0001:00085228       _ultow                     0000000140086228 f   libucrt:xtoa.obj
 0001:00085254       _ultow_s                   0000000140086254 f   libucrt:xtoa.obj
 0001:0008526c       __ascii_wcsicmp            000000014008626c f   libucrt:wcsicmp.obj
 0001:000852bc       _wcsicmp                   00000001400862bc f   libucrt:wcsicmp.obj
 0001:00085314       _wcsicmp_l                 0000000140086314 f   libucrt:wcsicmp.obj
 0001:00085484       wcscmp                     0000000140086484 f   libucrt:wcscmp.obj
 0001:000854c8       _msize                     00000001400864c8 f   libucrt:msize.obj
 0001:000854d0       _msize_base                00000001400864d0 f   libucrt:msize.obj
 0001:00085518       fetestexcept               0000000140086518 f   libucrt:fetestexcept.obj
 0001:00085544       _towlower_l                0000000140086544 f   libucrt:towlower.obj
 0001:00085630       towlower                   0000000140086630 f   libucrt:towlower.obj
 0001:00085724       ??0__crt_seek_guard@@QEAA@H_J@Z 0000000140086724 f i libucrt:chsize.obj
 0001:00085790       ??1__crt_seek_guard@@QEAA@XZ 0000000140086790 f i libucrt:chsize.obj
 0001:0008581c       _chsize                    000000014008681c f   libucrt:chsize.obj
 0001:00085838       _chsize_nolock             0000000140086838 f   libucrt:chsize.obj
 0001:00085a00       _chsize_s                  0000000140086a00 f   libucrt:chsize.obj
 0001:00085af8       _umask                     0000000140086af8 f   libucrt:umask.obj
 0001:00085b10       _umask_s                   0000000140086b10 f   libucrt:umask.obj
 0001:00085b5c       ?__mbrtoc32_utf8@__crt_mbstring@@YA_KPEA_UPEBD_KPEAU_Mbstatet@@@Z 0000000140086b5c f   libucrt:mbrtoc32.obj
 0001:00085da8       mbrtoc32                   0000000140086da8 f   libucrt:mbrtoc32.obj
 0001:00085f1c       __dcrt_lowio_ensure_console_output_initialized 0000000140086f1c f   libucrt:initcon.obj
 0001:00085f84       __dcrt_terminate_console_output 0000000140086f84 f   libucrt:initcon.obj
 0001:00085fa8       __dcrt_write_console       0000000140086fa8 f   libucrt:initcon.obj
 0001:00086098       _controlfp_s               0000000140087098 f   libucrt:contrlfp.obj
 0001:00086114       fegetenv                   0000000140087114 f   libucrt:fegetenv.obj
 0001:0008613c       fesetenv                   000000014008713c f   libucrt:fesetenv.obj
 0001:0008619c       feholdexcept               000000014008719c f   libucrt:feholdexcept.obj
 0001:00086200       ceil                       0000000140087200 f   libucrt:ceil.obj
 0001:00086300       log10                      0000000140087300 f   libucrt:log10.obj
 0001:00086c98       _mbstowcs_l                0000000140087c98 f   libucrt:mbstowcs.obj
 0001:00086ca0       _mbstowcs_s_l              0000000140087ca0 f   libucrt:mbstowcs.obj
 0001:00086e20       mbstowcs                   0000000140087e20 f   libucrt:mbstowcs.obj
 0001:00086e40       mbstowcs_s                 0000000140087e40 f   libucrt:mbstowcs.obj
 0001:00086e68       __strncnt                  0000000140087e68 f   libucrt:strncnt.obj
 0001:00086e84       __acrt_CompareStringW      0000000140087e84 f   libucrt:comparestringw.obj
 0001:000873a4       __acrt_CompareStringA      00000001400883a4 f   libucrt:comparestringa.obj
 0001:00087450       __acrt_LCMapStringW        0000000140088450 f   libucrt:lcmapstringw.obj
 0001:00087664       _clearfp                   0000000140088664 f   libucrt:ieee.obj
 0001:000876f0       _control87                 00000001400886f0 f   libucrt:ieee.obj
 0001:000876f8       _controlfp                 00000001400886f8 f   libucrt:ieee.obj
 0001:00087704       _fpreset                   0000000140088704 f   libucrt:ieee.obj
 0001:00087800       _set_controlfp             0000000140088800 f   libucrt:ieee.obj
 0001:00087844       _statusfp                  0000000140088844 f   libucrt:ieee.obj
 0001:00087d98       _handle_error              0000000140088d98 f   libucrt:libm_error.obj
 0001:00087f08       _handle_errorf             0000000140088f08 f   libucrt:libm_error.obj
 0001:00088088       _handle_nan                0000000140089088 f   libucrt:libm_error.obj
 0001:000880a8       _handle_nanf               00000001400890a8 f   libucrt:libm_error.obj
 0001:000880c0       __acrt_initialize_fma3     00000001400890c0 f   libucrt:fma3_available.obj
 0001:0008814c       _get_FMA3_enable           000000014008914c f   libucrt:fma3_available.obj
 0001:00088154       _set_FMA3_enable           0000000140089154 f   libucrt:fma3_available.obj
 0001:00088170       _log10_special             0000000140089170 f   libucrt:log_special.obj
 0001:00088198       _log10f_special            0000000140089198 f   libucrt:log_special.obj
 0001:000881c0       _log_special               00000001400891c0 f   libucrt:log_special.obj
 0001:000882a4       _logf_special              00000001400892a4 f   libucrt:log_special.obj
 0001:000883a0       _get_fpsr                  00000001400893a0 f   libucrt:fpsr.obj
 0001:000883b0       _set_fpsr                  00000001400893b0 f   libucrt:fpsr.obj
 0001:000883ba       _fclrf                     00000001400893ba f   libucrt:fpsr.obj
 0001:000883ce       _frnd                      00000001400893ce f   libucrt:fpsr.obj
 0001:00088404       _errcode                   0000000140089404 f   libucrt:fpexcept.obj
 0001:00088458       _except1                   0000000140089458 f   libucrt:fpexcept.obj
 0001:00088588       _except2                   0000000140089588 f   libucrt:fpexcept.obj
 0001:00088710       _handle_exc                0000000140089710 f   libucrt:fpexcept.obj
 0001:00088a10       _handle_qnan2              0000000140089a10 f   libucrt:fpexcept.obj
 0001:00088a18       _raise_exc                 0000000140089a18 f   libucrt:fpexcept.obj
 0001:00088a48       _raise_exc_ex              0000000140089a48 f   libucrt:fpexcept.obj
 0001:00088e18       _raise_excf                0000000140089e18 f   libucrt:fpexcept.obj
 0001:00088e4c       _set_errno_from_matherr    0000000140089e4c f   libucrt:fpexcept.obj
 0001:00088e88       _umatherr                  0000000140089e88 f   libucrt:fpexcept.obj
 0001:00088f94       _clrfp                     0000000140089f94 f   libucrt:fpctrl.obj
 0001:00088fb8       _ctrlfp                    0000000140089fb8 f   libucrt:fpctrl.obj
 0001:00089054       _set_statfp                000000014008a054 f   libucrt:fpctrl.obj
 0001:0008907c       _statfp                    000000014008a07c f   libucrt:fpctrl.obj
 0001:00089094       _add_exp                   000000014008a094 f   libucrt:util.obj
 0001:000890f8       _decomp                    000000014008a0f8 f   libucrt:util.obj
 0001:00089274       _get_exp                   000000014008a274 f   libucrt:util.obj
 0001:00089298       _set_bexp                  000000014008a298 f   libucrt:util.obj
 0001:000892d4       _set_exp                   000000014008a2d4 f   libucrt:util.obj
 0001:0008931c       _sptype                    000000014008a31c f   libucrt:util.obj
 0001:000893b0       _FindPESection             000000014008a3b0 f   LIBCMT:pesect.obj
 0001:00089410       _IsNonwritableInCurrentImage 000000014008a410 f   LIBCMT:pesect.obj
 0001:00089470       _ValidateImageBase         000000014008a470 f   LIBCMT:pesect.obj
 0001:000894a8       ??1type_info@@UEAA@XZ      000000014008a4a8 f   LIBCMT:std_type_info_static.obj
 0001:000894b8       ??_Etype_info@@UEAAPEAXI@Z 000000014008a4b8 f i LIBCMT:std_type_info_static.obj
 0001:000894b8       ??_Gtype_info@@UEAAPEAXI@Z 000000014008a4b8 f i LIBCMT:std_type_info_static.obj
 0001:000894f0       ??3@YAXPEAX_K@Z            000000014008a4f0 f   LIBCMT:delete_scalar_size.obj
 0001:000894f8       __GSHandlerCheck_SEH       000000014008a4f8 f   LIBCMT:gshandlerseh.obj
 0001:000895b0       __chkstk                   000000014008a5b0 f   LIBCMT:chkstk.obj
 0001:000895b0       _alloca_probe              000000014008a5b0 f   LIBCMT:chkstk.obj
 0001:00089618       ??3@YAXPEAX@Z              000000014008a618 f   LIBCMT:delete_scalar.obj
 0001:0008961d       RtlUnwindEx                000000014008a61d f   kernel32:KERNEL32.dll
 0001:00089623       InterlockedPushEntrySList  000000014008a623 f   kernel32:KERNEL32.dll
 0001:00089629       InterlockedFlushSList      000000014008a629 f   kernel32:KERNEL32.dll
 0001:0008962f       GetLastError               000000014008a62f f   kernel32:KERNEL32.dll
 0001:00089635       SetLastError               000000014008a635 f   kernel32:KERNEL32.dll
 0001:0008963b       EnterCriticalSection       000000014008a63b f   kernel32:KERNEL32.dll
 0001:00089641       LeaveCriticalSection       000000014008a641 f   kernel32:KERNEL32.dll
 0001:00089647       DeleteCriticalSection      000000014008a647 f   kernel32:KERNEL32.dll
 0001:0008964d       InitializeCriticalSectionAndSpinCount 000000014008a64d f   kernel32:KERNEL32.dll
 0001:00089653       TlsAlloc                   000000014008a653 f   kernel32:KERNEL32.dll
 0001:00089659       TlsGetValue                000000014008a659 f   kernel32:KERNEL32.dll
 0001:0008965f       TlsSetValue                000000014008a65f f   kernel32:KERNEL32.dll
 0001:00089665       TlsFree                    000000014008a665 f   kernel32:KERNEL32.dll
 0001:0008966b       LoadLibraryExW             000000014008a66b f   kernel32:KERNEL32.dll
 0001:00089671       EncodePointer              000000014008a671 f   kernel32:KERNEL32.dll
 0001:00089677       RaiseException             000000014008a677 f   kernel32:KERNEL32.dll
 0001:0008967d       RtlPcToFileHeader          000000014008a67d f   kernel32:KERNEL32.dll
 0001:00089683       ExitProcess                000000014008a683 f   kernel32:KERNEL32.dll
 0001:00089689       GetModuleHandleExW         000000014008a689 f   kernel32:KERNEL32.dll
 0001:0008968f       GetStdHandle               000000014008a68f f   kernel32:KERNEL32.dll
 0001:00089695       WriteFile                  000000014008a695 f   kernel32:KERNEL32.dll
 0001:0008969b       GetModuleFileNameW         000000014008a69b f   kernel32:KERNEL32.dll
 0001:000896a1       GetCommandLineA            000000014008a6a1 f   kernel32:KERNEL32.dll
 0001:000896a7       GetCommandLineW            000000014008a6a7 f   kernel32:KERNEL32.dll
 0001:000896ad       GetCurrentThread           000000014008a6ad f   kernel32:KERNEL32.dll
 0001:000896b3       HeapFree                   000000014008a6b3 f   kernel32:KERNEL32.dll
 0001:000896b9       HeapAlloc                  000000014008a6b9 f   kernel32:KERNEL32.dll
 0001:000896bf       HeapReAlloc                000000014008a6bf f   kernel32:KERNEL32.dll
 0001:000896c5       GetDateFormatW             000000014008a6c5 f   kernel32:KERNEL32.dll
 0001:000896cb       GetTimeFormatW             000000014008a6cb f   kernel32:KERNEL32.dll
 0001:000896d1       CompareStringW             000000014008a6d1 f   kernel32:KERNEL32.dll
 0001:000896d7       LCMapStringW               000000014008a6d7 f   kernel32:KERNEL32.dll
 0001:000896dd       GetLocaleInfoW             000000014008a6dd f   kernel32:KERNEL32.dll
 0001:000896e3       IsValidLocale              000000014008a6e3 f   kernel32:KERNEL32.dll
 0001:000896e9       GetUserDefaultLCID         000000014008a6e9 f   kernel32:KERNEL32.dll
 0001:000896ef       EnumSystemLocalesW         000000014008a6ef f   kernel32:KERNEL32.dll
 0001:000896f5       GetFileType                000000014008a6f5 f   kernel32:KERNEL32.dll
 0001:000896fb       CloseHandle                000000014008a6fb f   kernel32:KERNEL32.dll
 0001:00089701       ReadFile                   000000014008a701 f   kernel32:KERNEL32.dll
 0001:00089707       GetConsoleMode             000000014008a707 f   kernel32:KERNEL32.dll
 0001:0008970d       ReadConsoleW               000000014008a70d f   kernel32:KERNEL32.dll
 0001:00089713       GetConsoleOutputCP         000000014008a713 f   kernel32:KERNEL32.dll
 0001:00089719       GetFileSizeEx              000000014008a719 f   kernel32:KERNEL32.dll
 0001:0008971f       SetFilePointerEx           000000014008a71f f   kernel32:KERNEL32.dll
 0001:00089725       OutputDebugStringW         000000014008a725 f   kernel32:KERNEL32.dll
 0001:0008972b       FindClose                  000000014008a72b f   kernel32:KERNEL32.dll
 0001:00089731       FindFirstFileExW           000000014008a731 f   kernel32:KERNEL32.dll
 0001:00089737       FindNextFileW              000000014008a737 f   kernel32:KERNEL32.dll
 0001:0008973d       IsValidCodePage            000000014008a73d f   kernel32:KERNEL32.dll
 0001:00089743       GetACP                     000000014008a743 f   kernel32:KERNEL32.dll
 0001:00089749       GetOEMCP                   000000014008a749 f   kernel32:KERNEL32.dll
 0001:0008974f       GetCPInfo                  000000014008a74f f   kernel32:KERNEL32.dll
 0001:00089755       MultiByteToWideChar        000000014008a755 f   kernel32:KERNEL32.dll
 0001:0008975b       WideCharToMultiByte        000000014008a75b f   kernel32:KERNEL32.dll
 0001:00089761       GetEnvironmentStringsW     000000014008a761 f   kernel32:KERNEL32.dll
 0001:00089767       FreeEnvironmentStringsW    000000014008a767 f   kernel32:KERNEL32.dll
 0001:0008976d       SetEnvironmentVariableW    000000014008a76d f   kernel32:KERNEL32.dll
 0001:00089773       SetStdHandle               000000014008a773 f   kernel32:KERNEL32.dll
 0001:00089779       GetStringTypeW             000000014008a779 f   kernel32:KERNEL32.dll
 0001:0008977f       GetProcessHeap             000000014008a77f f   kernel32:KERNEL32.dll
 0001:00089785       SetConsoleCtrlHandler      000000014008a785 f   kernel32:KERNEL32.dll
 0001:0008978b       FlushFileBuffers           000000014008a78b f   kernel32:KERNEL32.dll
 0001:00089791       CreateFileW                000000014008a791 f   kernel32:KERNEL32.dll
 0001:00089797       HeapSize                   000000014008a797 f   kernel32:KERNEL32.dll
 0001:0008979d       SetEndOfFile               000000014008a79d f   kernel32:KERNEL32.dll
 0001:000897a3       WriteConsoleW              000000014008a7a3 f   kernel32:KERNEL32.dll
 0001:000897c0       memcmp                     000000014008a7c0 f   libvcruntime:memcmp.obj
 0001:000898bc       strrchr                    000000014008a8bc f   libvcruntime:strrchr.obj
 0001:00089a48       _local_unwind              000000014008aa48 f   libvcruntime:jmpuwind.obj
 0001:00089a7c       strchr                     000000014008aa7c f   libvcruntime:strchr.obj
 0001:00089b18       wcschr                     000000014008ab18 f   libvcruntime:wcschr.obj
 0001:00089baf       RtlUnwind                  000000014008abaf f   kernel32:KERNEL32.dll
 0001:0008d5f0       _guard_dispatch_icall_nop  000000014008e5f0 f   LIBCMT:guard_dispatch.obj
 0001:0008d610       _guard_xfg_dispatch_icall_nop 000000014008e610 f   LIBCMT:guard_xfg_dispatch.obj
 0002:00000000       __xc_a                     0000000140092000     LIBCMT:initializers.obj
 0002:00000220       __xc_z                     0000000140092220     LIBCMT:initializers.obj
 0002:00000330       __xi_a                     0000000140092330     LIBCMT:initializers.obj
 0002:00000660       __acrt_stdio_initializer   0000000140092660     libucrt:stdio_initializer.obj
 0002:00000670       __acrt_multibyte_initializer 0000000140092670     libucrt:multibyte_initializer.obj
 0002:00000680       __acrt_fmode_initializer   0000000140092680     libucrt:fmode_initializer.obj
 0002:00000690       __acrt_tran_fma3_initializer 0000000140092690     libucrt:fma3_initializer.obj
 0002:000007a0       __xi_z                     00000001400927a0     LIBCMT:initializers.obj
 0002:000008b0       __xp_a                     00000001400928b0     LIBCMT:initializers.obj
 0002:000009c0       __acrt_locale_terminator   00000001400929c0     libucrt:locale_initializer.obj
 0002:000009d0       __dcrt_console_output_terminator 00000001400929d0     libucrt:console_output_initializer.obj
 0002:00000ae0       __acrt_stdio_terminator    0000000140092ae0     libucrt:stdio_initializer.obj
 0002:00000bf0       __xp_z                     0000000140092bf0     LIBCMT:initializers.obj
 0002:00000d00       __xt_a                     0000000140092d00     LIBCMT:initializers.obj
 0002:00000e10       __xt_z                     0000000140092e10     LIBCMT:initializers.obj
 0002:00001438       __real@ff800000            0000000140093438     main.obj
 0002:0000153c       __real@00000000            000000014009353c     main.obj
 0002:00001540       __real@3dcccccd            0000000140093540     main.obj
 0002:00001544       __real@3e99999a            0000000140093544     main.obj
 0002:00001548       __real@3f000000            0000000140093548     main.obj
 0002:0000154c       __real@3f800000            000000014009354c     main.obj
 0002:00001550       __real@3fe0000000000000    0000000140093550     main.obj
 0002:0000155c       __real@40000000            000000014009355c     main.obj
 0002:00001560       __real@40400000            0000000140093560     main.obj
 0002:00001568       __real@4090e00000000000    0000000140093568     main.obj
 0002:00001578       __real@409e000000000000    0000000140093578     main.obj
 0002:00001584       __real@40a00000            0000000140093584     main.obj
 0002:00001588       __real@42480000            0000000140093588     main.obj
 0002:0000158c       __real@42960000            000000014009358c     main.obj
 0002:00001590       __real@43960000            0000000140093590     main.obj
 0002:00001594       __real@43c80000            0000000140093594     main.obj
 0002:00001598       __real@44160000            0000000140093598     main.obj
 0002:0000159c       __real@44480000            000000014009359c     main.obj
 0002:000015a0       __real@447a0000            00000001400935a0     main.obj
 0002:000015a4       __real@473eef00            00000001400935a4     main.obj
 0002:000015a8       __real@7f800000            00000001400935a8     main.obj
 0002:000015ac       __real@bf000000            00000001400935ac     main.obj
 0002:000015b0       __real@c0000000            00000001400935b0     main.obj
 0002:000015b4       __real@c3480000            00000001400935b4     main.obj
 0002:000015b8       __real@c61c4000            00000001400935b8     main.obj
 0002:000015c0       __xmm@80000000800000008000000080000000 00000001400935c0     main.obj
 0002:000015f0       __xmm@ffffffffffffffffffffffffffffffff 00000001400935f0     LIBCMT:utility.obj
 0002:00001608       _pDestructExceptionObject  0000000140093608     libvcruntime:ehhelpers.obj
 0002:00001ea0       ??_C@_08EHJDFFNH@__based?$CI@ 0000000140093ea0     libvcruntime:undname.obj
 0002:00001eb0       ??_C@_07KOLFKCDI@__cdecl@  0000000140093eb0     libvcruntime:undname.obj
 0002:00001ec0       ??_C@_08GHMPAG@__pascal@   0000000140093ec0     libvcruntime:undname.obj
 0002:00001ed0       ??_C@_09IFJBGAPI@__stdcall@ 0000000140093ed0     libvcruntime:undname.obj
 0002:00001ee0       ??_C@_0L@NPHFGOKO@__thiscall@ 0000000140093ee0     libvcruntime:undname.obj
 0002:00001ef0       ??_C@_0L@JMKHOMEK@__fastcall@ 0000000140093ef0     libvcruntime:undname.obj
 0002:00001f00       ??_C@_0N@BCKKPABJ@__vectorcall@ 0000000140093f00     libvcruntime:undname.obj
 0002:00001f10       ??_C@_09HIJEGCPM@__clrcall@ 0000000140093f10     libvcruntime:undname.obj
 0002:00001f1c       ??_C@_06GHPCKEAG@__eabi@   0000000140093f1c     libvcruntime:undname.obj
 0002:00001f28       ??_C@_09IOPIDJLG@__swift_1@ 0000000140093f28     libvcruntime:undname.obj
 0002:00001f38       ??_C@_09KFNFGKHF@__swift_2@ 0000000140093f38     libvcruntime:undname.obj
 0002:00001f48       ??_C@_09LMMOFLDE@__swift_3@ 0000000140093f48     libvcruntime:undname.obj
 0002:00001f58       ??_C@_07JOMMBBKO@__ptr64@  0000000140093f58     libvcruntime:undname.obj
 0002:00001f68       ??_C@_0L@PILCLIHE@__restrict@ 0000000140093f68     libvcruntime:undname.obj
 0002:00001f78       ??_C@_0M@GFIIJFMG@__unaligned@ 0000000140093f78     libvcruntime:undname.obj
 0002:00001f88       ??_C@_09DHDLOLLB@restrict?$CI@ 0000000140093f88     libvcruntime:undname.obj
 0002:00001f94       ??_C@_00CNPNBAHC@@         0000000140093f94     libvcruntime:undname.obj
 0002:00001f98       ??_C@_04NIHEBCM@?5new@     0000000140093f98     libvcruntime:undname.obj
 0002:00001fa0       ??_C@_07FPCDHGMM@?5delete@ 0000000140093fa0     libvcruntime:undname.obj
 0002:00001fac       ??_C@_01NEMOKFLO@?$DN@     0000000140093fac     libvcruntime:undname.obj
 0002:00001fb0       ??_C@_02GPIOPFAK@?$DO?$DO@ 0000000140093fb0     libvcruntime:undname.obj
 0002:00001fb4       ??_C@_02FODMEDOG@?$DM?$DM@ 0000000140093fb4     libvcruntime:undname.obj
 0002:00001fb8       ??_C@_01DCLJPIOD@?$CB@     0000000140093fb8     libvcruntime:undname.obj
 0002:00001fbc       ??_C@_02EGOFBIJA@?$DN?$DN@ 0000000140093fbc     libvcruntime:undname.obj
 0002:00001fc0       ??_C@_02FDNJECIE@?$CB?$DN@ 0000000140093fc0     libvcruntime:undname.obj
 0002:00001fc4       ??_C@_02GPECMEKF@?$FL?$FN@ 0000000140093fc4     libvcruntime:undname.obj
 0002:00001fc8       ??_C@_08LHJFAFGD@operator@ 0000000140093fc8     libvcruntime:undname.obj
 0002:00001fd4       ??_C@_02HBOOOICD@?9?$DO@   0000000140093fd4     libvcruntime:undname.obj
 0002:00001fd8       ??_C@_01NBENCBCI@?$CK@     0000000140093fd8     libvcruntime:undname.obj
 0002:00001fdc       ??_C@_02ECNGHCIF@?$CL?$CL@ 0000000140093fdc     libvcruntime:undname.obj
 0002:00001fe0       ??_C@_02BAABKJLB@?9?9@     0000000140093fe0     libvcruntime:undname.obj
 0002:00001fe4       ??_C@_01JOAMLHOP@?9@       0000000140093fe4     libvcruntime:undname.obj
 0002:00001fe8       ??_C@_01MIFGBAGJ@?$CL@     0000000140093fe8     libvcruntime:undname.obj
 0002:00001fec       ??_C@_01HNPIGOCE@?$CG@     0000000140093fec     libvcruntime:undname.obj
 0002:00001ff0       ??_C@_03MNHNFDLC@?9?$DO?$CK@ 0000000140093ff0     libvcruntime:undname.obj
 0002:00001ff4       ??_C@_01KMDKNFGN@?1@       0000000140093ff4     libvcruntime:undname.obj
 0002:00001ff8       ??_C@_01FGNFDNOH@?$CF@     0000000140093ff8     libvcruntime:undname.obj
 0002:00001ffc       ??_C@_01MNNFJEPP@?$DM@     0000000140093ffc     libvcruntime:undname.obj
 0002:00002000       ??_C@_02EHCHHCKH@?$DM?$DN@ 0000000140094000     libvcruntime:undname.obj
 0002:00002004       ??_C@_01PPODPGHN@?$DO@     0000000140094004     libvcruntime:undname.obj
 0002:00002008       ??_C@_02EEKDKGMJ@?$DO?$DN@ 0000000140094008     libvcruntime:undname.obj
 0002:0000200c       ??_C@_01IHBHIGKO@?0@       000000014009400c     libvcruntime:undname.obj
 0002:00002010       ??_C@_02HCKGKOFO@?$CI?$CJ@ 0000000140094010     libvcruntime:undname.obj
 0002:00002014       ??_C@_01PJKLJHI@?$HO@      0000000140094014     libvcruntime:undname.obj
 0002:00002018       ??_C@_01JKBOJNNK@?$FO@     0000000140094018     libvcruntime:undname.obj
 0002:0000201c       ??_C@_01DNKMNLPK@?$HM@     000000014009401c     libvcruntime:undname.obj
 0002:00002020       ??_C@_02PPKAJPJL@?$CG?$CG@ 0000000140094020     libvcruntime:undname.obj
 0002:00002024       ??_C@_02NONPIBCD@?$HM?$HM@ 0000000140094024     libvcruntime:undname.obj
 0002:00002028       ??_C@_02FPIMKNGF@?$CK?$DN@ 0000000140094028     libvcruntime:undname.obj
 0002:0000202c       ??_C@_02FOEOMHFC@?$CL?$DN@ 000000014009402c     libvcruntime:undname.obj
 0002:00002030       ??_C@_02FKMDLLOA@?9?$DN@   0000000140094030     libvcruntime:undname.obj
 0002:00002034       ??_C@_02FJEHGPIO@?1?$DN@   0000000140094034     libvcruntime:undname.obj
 0002:00002038       ??_C@_02FENAOKFI@?$CF?$DN@ 0000000140094038     libvcruntime:undname.obj
 0002:0000203c       ??_C@_03IKFCCPFF@?$DO?$DO?$DN@ 000000014009403c     libvcruntime:undname.obj
 0002:00002040       ??_C@_03CDNPDDLA@?$DM?$DM?$DN@ 0000000140094040     libvcruntime:undname.obj
 0002:00002044       ??_C@_02FGJGFEAB@?$CG?$DN@ 0000000140094044     libvcruntime:undname.obj
 0002:00002048       ??_C@_02DHLNPPGH@?$HM?$DN@ 0000000140094048     libvcruntime:undname.obj
 0002:0000204c       ??_C@_02MHEGNOJ@?$FO?$DN@  000000014009404c     libvcruntime:undname.obj
 0002:00002050       ??_C@_09IFPLHPGF@?$GAvftable?8@ 0000000140094050     libvcruntime:undname.obj
 0002:00002060       ??_C@_09BLBHBJP@?$GAvbtable?8@ 0000000140094060     libvcruntime:undname.obj
 0002:00002070       ??_C@_07FEEIOKP@?$GAvcall?8@ 0000000140094070     libvcruntime:undname.obj
 0002:00002080       ??_C@_08LLFFHHDJ@?$GAtypeof?8@ 0000000140094080     libvcruntime:undname.obj
 0002:00002090       ??_C@_0BF@KDPPACIK@?$GAlocal?5static?5guard?8@ 0000000140094090     libvcruntime:undname.obj
 0002:000020b0       ??_C@_08OBABFOLI@?$GAstring?8@ 00000001400940b0     libvcruntime:undname.obj
 0002:000020c0       ??_C@_0BD@JDLKDPAB@?$GAvbase?5destructor?8@ 00000001400940c0     libvcruntime:undname.obj
 0002:000020d8       ??_C@_0BN@DEGPLNFK@?$GAvector?5deleting?5destructor?8@ 00000001400940d8     libvcruntime:undname.obj
 0002:00002100       ??_C@_0BO@OBMKPJIG@?$GAdefault?5constructor?5closure?8@ 0000000140094100     libvcruntime:undname.obj
 0002:00002128       ??_C@_0BN@IMDCHIKM@?$GAscalar?5deleting?5destructor?8@ 0000000140094128     libvcruntime:undname.obj
 0002:00002150       ??_C@_0BO@PFGOCPJJ@?$GAvector?5constructor?5iterator?8@ 0000000140094150     libvcruntime:undname.obj
 0002:00002178       ??_C@_0BN@LFPFMEDL@?$GAvector?5destructor?5iterator?8@ 0000000140094178     libvcruntime:undname.obj
 0002:000021a0       ??_C@_0CE@IKBNEHA@?$GAvector?5vbase?5constructor?5itera@ 00000001400941a0     libvcruntime:undname.obj
 0002:000021d0       ??_C@_0BL@NILFHHPC@?$GAvirtual?5displacement?5map?8@ 00000001400941d0     libvcruntime:undname.obj
 0002:000021f0       ??_C@_0CB@JONCMFFK@?$GAeh?5vector?5constructor?5iterator@ 00000001400941f0     libvcruntime:undname.obj
 0002:00002218       ??_C@_0CA@GCEOPDGL@?$GAeh?5vector?5destructor?5iterator?8@ 0000000140094218     libvcruntime:undname.obj
 0002:00002240       ??_C@_0CH@OOJPLCPH@?$GAeh?5vector?5vbase?5constructor?5it@ 0000000140094240     libvcruntime:undname.obj
 0002:00002270       ??_C@_0BL@LLKPOHJI@?$GAcopy?5constructor?5closure?8@ 0000000140094270     libvcruntime:undname.obj
 0002:00002290       ??_C@_0BA@KBCDOMBN@?$GAudt?5returning?8@ 0000000140094290     libvcruntime:undname.obj
 0002:000022a4       ??_C@_03KLGMFNMG@?$GAEH@   00000001400942a4     libvcruntime:undname.obj
 0002:000022a8       ??_C@_05KHLCHHI@?$GARTTI@  00000001400942a8     libvcruntime:undname.obj
 0002:000022b0       ??_C@_0BA@KKLDJDLB@?$GAlocal?5vftable?8@ 00000001400942b0     libvcruntime:undname.obj
 0002:000022c8       ??_C@_0CE@IIHCMGGL@?$GAlocal?5vftable?5constructor?5clos@ 00000001400942c8     libvcruntime:undname.obj
 0002:000022f4       ??_C@_06FHBGPFGH@?5new?$FL?$FN@ 00000001400942f4     libvcruntime:undname.obj
 0002:00002300       ??_C@_09LBNFPBCA@?5delete?$FL?$FN@ 0000000140094300     libvcruntime:undname.obj
 0002:00002310       ??_C@_0P@HJKNJFNN@?$GAomni?5callsig?8@ 0000000140094310     libvcruntime:undname.obj
 0002:00002328       ??_C@_0BL@CNOONJFP@?$GAplacement?5delete?5closure?8@ 0000000140094328     libvcruntime:undname.obj
 0002:00002348       ??_C@_0BN@CKNJLHMB@?$GAplacement?5delete?$FL?$FN?5closure?8@ 0000000140094348     libvcruntime:undname.obj
 0002:00002370       ??_C@_0CG@CFDHKGGD@?$GAmanaged?5vector?5constructor?5ite@ 0000000140094370     libvcruntime:undname.obj
 0002:000023a0       ??_C@_0CF@IMGKMJNO@?$GAmanaged?5vector?5destructor?5iter@ 00000001400943a0     libvcruntime:undname.obj
 0002:000023d0       ??_C@_0CG@HLDDJMAG@?$GAeh?5vector?5copy?5constructor?5ite@ 00000001400943d0     libvcruntime:undname.obj
 0002:00002400       ??_C@_0CM@FCBBDIGB@?$GAeh?5vector?5vbase?5copy?5construct@ 0000000140094400     libvcruntime:undname.obj
 0002:00002438       ??_C@_0BL@CLIPGLGB@?$GAdynamic?5initializer?5for?5?8@ 0000000140094438     libvcruntime:undname.obj
 0002:00002458       ??_C@_0CB@PDBIFEP@?$GAdynamic?5atexit?5destructor?5for?5@ 0000000140094458     libvcruntime:undname.obj
 0002:00002480       ??_C@_0CD@CGAJBKEJ@?$GAvector?5copy?5constructor?5iterat@ 0000000140094480     libvcruntime:undname.obj
 0002:000024b0       ??_C@_0CJ@GJELGAMM@?$GAvector?5vbase?5copy?5constructor?5@ 00000001400944b0     libvcruntime:undname.obj
 0002:000024e8       ??_C@_0CL@FGIJHLCE@?$GAmanaged?5vector?5copy?5constructo@ 00000001400944e8     libvcruntime:undname.obj
 0002:00002520       ??_C@_0BM@PMGGMLDN@?$GAlocal?5static?5thread?5guard?8@ 0000000140094520     libvcruntime:undname.obj
 0002:00002548       ??_C@_0N@BDNMDMOL@operator?5?$CC?$CC?5@ 0000000140094548     libvcruntime:undname.obj
 0002:00002558       ??_C@_0BC@GGEBGALA@operator?5co_await@ 0000000140094558     libvcruntime:undname.obj
 0002:00002570       ??_C@_0M@GAAIMMOH@operator?$DM?$DN?$DO@ 0000000140094570     libvcruntime:undname.obj
 0002:00002580       ??_C@_0BC@DAFEJGAK@?5Type?5Descriptor?8@ 0000000140094580     libvcruntime:undname.obj
 0002:00002598       ??_C@_0BM@LDKODKLH@?5Base?5Class?5Descriptor?5at?5?$CI@ 0000000140094598     libvcruntime:undname.obj
 0002:000025c0       ??_C@_0BD@LGICGFMM@?5Base?5Class?5Array?8@ 00000001400945c0     libvcruntime:undname.obj
 0002:000025d8       ??_C@_0BN@MECKDCOJ@?5Class?5Hierarchy?5Descriptor?8@ 00000001400945d8     libvcruntime:undname.obj
 0002:00002600       ??_C@_0BK@CFCOFLF@?5Complete?5Object?5Locator?8@ 0000000140094600     libvcruntime:undname.obj
 0002:00002620       ??_C@_0BG@JNJLAMPM@?$GAanonymous?5namespace?8@ 0000000140094620     libvcruntime:undname.obj
 0002:0000263c       ??_C@_04HEJADOOB@CV?3?5@   000000014009463c     libvcruntime:undname.obj
 0002:00002644       ??_C@_02MOLJINC@?3?3@      0000000140094644     libvcruntime:undname.obj
 0002:00002648       ??_C@_0BE@JAEOCHPE@template?9parameter?9@ 0000000140094648     libvcruntime:undname.obj
 0002:00002660       ??_C@_0BF@LNLGBBNL@?$GAtemplate?9parameter?9@ 0000000140094660     libvcruntime:undname.obj
 0002:00002680       ??_C@_0O@KHGCOMHP@generic?9type?9@ 0000000140094680     libvcruntime:undname.obj
 0002:00002690       ??_C@_0P@ODDENDLM@?$GAgeneric?9type?9@ 0000000140094690     libvcruntime:undname.obj
 0002:000026a4       ??_C@_02OHHJMEON@?8?8@     00000001400946a4     libvcruntime:undname.obj
 0002:000026a8       ??_C@_0BN@IBLMMFAP@?$GAnon?9type?9template?9parameter@ 00000001400946a8     libvcruntime:undname.obj
 0002:000026cc       ??_C@_03DLDNIBIK@?$CFlf@   00000001400946cc     libvcruntime:undname.obj
 0002:000026d0       ??_C@_04OFALKAJ@?$DP?$DP_C@ 00000001400946d0     libvcruntime:undname.obj
 0002:000026d8       ??_C@_03KHICJKCI@?4?4?4@   00000001400946d8     libvcruntime:undname.obj
 0002:000026dc       ??_C@_04HIBGFPH@NULL@      00000001400946dc     libvcruntime:undname.obj
 0002:000026e4       ??_C@_02DPKJAMEF@?$CFd@    00000001400946e4     libvcruntime:undname.obj
 0002:000026e8       ??_C@_0BK@IHCCFNEL@?$GAtemplate?9type?9parameter?9@ 00000001400946e8     libvcruntime:undname.obj
 0002:00002708       ??_C@_0BK@OFCNNNKO@?$GAgeneric?9class?9parameter?9@ 0000000140094708     libvcruntime:undname.obj
 0002:00002728       ??_C@_0BL@NGJBLFIL@?$GAgeneric?9method?9parameter?9@ 0000000140094728     libvcruntime:undname.obj
 0002:00002748       ??_C@_07OHNGEDJK@nullptr@  0000000140094748     libvcruntime:undname.obj
 0002:00002754       ??_C@_06COJIGPIB@lambda@   0000000140094754     libvcruntime:undname.obj
 0002:0000275c       ??_C@_04GKJNKENE@void@     000000014009475c     libvcruntime:undname.obj
 0002:00002768       ??_C@_0BE@EODMJLIF@?$GAtemplate?9parameter@ 0000000140094768     libvcruntime:undname.obj
 0002:00002780       ??_C@_03OPGICMGF@?$HN?8?5@ 0000000140094780     libvcruntime:undname.obj
 0002:00002784       ??_C@_02IGFCGPIL@?$HN?8@   0000000140094784     libvcruntime:undname.obj
 0002:00002788       ??_C@_0N@CBHHHENL@?$GAvtordispex?$HL@ 0000000140094788     libvcruntime:undname.obj
 0002:00002798       ??_C@_0L@GHPFDFH@?$GAvtordisp?$HL@ 0000000140094798     libvcruntime:undname.obj
 0002:000027a8       ??_C@_0L@HNGCOGAE@?$GAadjustor?$HL@ 00000001400947a8     libvcruntime:undname.obj
 0002:000027b8       ??_C@_0CB@KJDOOODE@?$GAlocal?5static?5destructor?5helper@ 00000001400947b8     libvcruntime:undname.obj
 0002:000027e0       ??_C@_0DB@ILEFOCIJ@?$GAtemplate?5static?5data?5member?5co@ 00000001400947e0     libvcruntime:undname.obj
 0002:00002820       ??_C@_0DA@HGFJFBBE@?$GAtemplate?5static?5data?5member?5de@ 0000000140094820     libvcruntime:undname.obj
 0002:00002860       ??_C@_07PGOEDBHP@static?5@ 0000000140094860     libvcruntime:undname.obj
 0002:00002870       ??_C@_08NIEOINHE@virtual?5@ 0000000140094870     libvcruntime:undname.obj
 0002:00002880       ??_C@_09LAPHOOG@private?3?5@ 0000000140094880     libvcruntime:undname.obj
 0002:00002890       ??_C@_0M@GAIFPFIP@protected?3?5@ 0000000140094890     libvcruntime:undname.obj
 0002:000028a0       ??_C@_08GPDDCMKI@public?3?5@ 00000001400948a0     libvcruntime:undname.obj
 0002:000028b0       ??_C@_08KJLFOPNE@?$FLthunk?$FN?3@ 00000001400948b0     libvcruntime:undname.obj
 0002:000028c0       ??_C@_0M@DHNBOJMP@extern?5?$CCC?$CC?5@ 00000001400948c0     libvcruntime:undname.obj
 0002:000028d0       ??_C@_02KCKGHPCA@?$CJ?5@   00000001400948d0     libvcruntime:undname.obj
 0002:000028d4       ??_C@_05CIHEBHNO@char?5@   00000001400948d4     libvcruntime:undname.obj
 0002:000028dc       ??_C@_06EHJMALKF@short?5@  00000001400948dc     libvcruntime:undname.obj
 0002:000028e4       ??_C@_04LAHKHJMA@int?5@    00000001400948e4     libvcruntime:undname.obj
 0002:000028ec       ??_C@_05CJIMAING@long?5@   00000001400948ec     libvcruntime:undname.obj
 0002:000028f8       ??_C@_09EBBEKKIH@unsigned?5@ 00000001400948f8     libvcruntime:undname.obj
 0002:00002904       ??_C@_05BEFAKPML@void?5@   0000000140094904     libvcruntime:undname.obj
 0002:00002910       ??_C@_09GAIEOBLP@volatile?5@ 0000000140094910     libvcruntime:undname.obj
 0002:00002920       ??_C@_08PABEKFH@volatile@  0000000140094920     libvcruntime:undname.obj
 0002:00002930       ??_C@_0BA@LKIJLKPP@std?3?3nullptr_t?5@ 0000000140094930     libvcruntime:undname.obj
 0002:00002948       ??_C@_0P@GCOCNKDM@std?3?3nullptr_t@ 0000000140094948     libvcruntime:undname.obj
 0002:00002960       ??_C@_0L@EGPHHEKN@?$DMellipsis?$DO@ 0000000140094960     libvcruntime:undname.obj
 0002:00002970       ??_C@_04EENFHACM@?0?4?4?4@ 0000000140094970     libvcruntime:undname.obj
 0002:00002978       ??_C@_0M@ELJOJFFH@?0?$DMellipsis?$DO@ 0000000140094978     libvcruntime:undname.obj
 0002:00002988       ??_C@_09DNHFEOJI@?5noexcept@ 0000000140094988     libvcruntime:undname.obj
 0002:00002994       ??_C@_03PBJBJNON@cpu@      0000000140094994     libvcruntime:undname.obj
 0002:00002998       ??_C@_03DCBBJBAA@amp@      0000000140094998     libvcruntime:undname.obj
 0002:0000299c       ??_C@_02KEGNLNML@?0?5@     000000014009499c     libvcruntime:undname.obj
 0002:000029a0       ??_C@_04ENMBGAPA@char@     00000001400949a0     libvcruntime:undname.obj
 0002:000029a8       ??_C@_05BFKKPKCG@short@    00000001400949a8     libvcruntime:undname.obj
 0002:000029b0       ??_C@_03JBIPMCLC@int@      00000001400949b0     libvcruntime:undname.obj
 0002:000029b4       ??_C@_04GOKPGOLB@long@     00000001400949b4     libvcruntime:undname.obj
 0002:000029bc       ??_C@_05KNFBNCOH@float@    00000001400949bc     libvcruntime:undname.obj
 0002:000029c4       ??_C@_06BNJCAIGJ@double@   00000001400949c4     libvcruntime:undname.obj
 0002:000029cc       ??_C@_04DDKJGDCM@bool@     00000001400949cc     libvcruntime:undname.obj
 0002:000029d4       ??_C@_06EBGKOKIG@__int8@   00000001400949d4     libvcruntime:undname.obj
 0002:000029e0       ??_C@_07ICFHOGAF@__int16@  00000001400949e0     libvcruntime:undname.obj
 0002:000029f0       ??_C@_07OFLPPHGP@__int32@  00000001400949f0     libvcruntime:undname.obj
 0002:00002a00       ??_C@_07LFCOJCAC@__int64@  0000000140094a00     libvcruntime:undname.obj
 0002:00002a10       ??_C@_08GAHOLHEO@__int128@ 0000000140094a10     libvcruntime:undname.obj
 0002:00002a20       ??_C@_09EEKGDCPH@?$DMunknown?$DO@ 0000000140094a20     libvcruntime:undname.obj
 0002:00002a30       ??_C@_07CFHGOPCN@char8_t@  0000000140094a30     libvcruntime:undname.obj
 0002:00002a40       ??_C@_08HBIPOFJB@char16_t@ 0000000140094a40     libvcruntime:undname.obj
 0002:00002a50       ??_C@_08IECNCBKG@char32_t@ 0000000140094a50     libvcruntime:undname.obj
 0002:00002a60       ??_C@_07CLGGIAMF@wchar_t@  0000000140094a60     libvcruntime:undname.obj
 0002:00002a6c       ??_C@_04HAPDLBFF@auto@     0000000140094a6c     libvcruntime:undname.obj
 0002:00002a78       ??_C@_0P@LHCGKIGK@decltype?$CIauto?$CJ@ 0000000140094a78     libvcruntime:undname.obj
 0002:00002a8c       ??_C@_05PCNBGHCF@this?5@   0000000140094a8c     libvcruntime:undname.obj
 0002:00002a94       ??_C@_06GCICPBLB@__w64?5@  0000000140094a94     libvcruntime:undname.obj
 0002:00002aa0       ??_C@_07NFANNNEC@UNKNOWN@  0000000140094aa0     libvcruntime:undname.obj
 0002:00002ab0       ??_C@_07EDHNAJHC@signed?5@ 0000000140094ab0     libvcruntime:undname.obj
 0002:00002abc       ??_C@_05BNCCCJPP@const@    0000000140094abc     libvcruntime:undname.obj
 0002:00002ac8       ??_C@_09EFNPDFFP@?5volatile@ 0000000140094ac8     libvcruntime:undname.obj
 0002:00002ad8       ??_C@_0P@GCIFDJCJ@?$GAunknown?5ecsu?8@ 0000000140094ad8     libvcruntime:undname.obj
 0002:00002aec       ??_C@_06MOJHIBMG@union?5@  0000000140094aec     libvcruntime:undname.obj
 0002:00002af8       ??_C@_07DIBCDNGL@struct?5@ 0000000140094af8     libvcruntime:undname.obj
 0002:00002b04       ??_C@_06LJBABKPM@class?5@  0000000140094b04     libvcruntime:undname.obj
 0002:00002b10       ??_C@_08KOFANOFK@coclass?5@ 0000000140094b10     libvcruntime:undname.obj
 0002:00002b20       ??_C@_0N@DLIEFKNA@cointerface?5@ 0000000140094b20     libvcruntime:undname.obj
 0002:00002b30       ??_C@_05LJGMCFOG@enum?5@   0000000140094b30     libvcruntime:undname.obj
 0002:00002b38       ??_C@_06LIJLOJAG@const?5@  0000000140094b38     libvcruntime:undname.obj
 0002:00002b40       ??_C@_02KJPKDIBN@?$CG?5@   0000000140094b40     libvcruntime:undname.obj
 0002:00002b44       ??_C@_03PCKGMOPB@?$CG?$CG?5@ 0000000140094b44     libvcruntime:undname.obj
 0002:00002b48       ??_C@_0M@EALIELKG@cli?3?3array?$DM@ 0000000140094b48     libvcruntime:undname.obj
 0002:00002b58       ??_C@_0O@GKABPPIF@cli?3?3pin_ptr?$DM@ 0000000140094b58     libvcruntime:undname.obj
 0002:00002b68       ??_C@_02GOGNNPBN@?$CJ?$FL@ 0000000140094b68     libvcruntime:undname.obj
 0002:00002b6c       ??_C@_06EEGAIFAK@?$HLflat?$HN@ 0000000140094b6c     libvcruntime:undname.obj
 0002:00002b74       ??_C@_05JIBOFOHK@?$HLfor?5@ 0000000140094b74     libvcruntime:undname.obj
 0002:00002b7c       ??_C@_02MDINNEEG@s?5@      0000000140094b7c     libvcruntime:undname.obj
 0002:00002b88       ??_7DNameNode@@6B@         0000000140094b88     libvcruntime:undname.obj
 0002:00002bb8       ??_7charNode@@6B@          0000000140094bb8     libvcruntime:undname.obj
 0002:00002be8       ??_7pcharNode@@6B@         0000000140094be8     libvcruntime:undname.obj
 0002:00002c18       ??_7pDNameNode@@6B@        0000000140094c18     libvcruntime:undname.obj
 0002:00002c48       ??_7DNameStatusNode@@6B@   0000000140094c48     libvcruntime:undname.obj
 0002:00002c78       ??_7pairNode@@6B@          0000000140094c78     libvcruntime:undname.obj
 0002:00002dd4       ??_C@_04OKOHEJBO@?5?$DP?$DP?5@ 0000000140094dd4     libvcruntime:undname.obj
 0002:00002de0       ?nodes@?1??make@DNameStatusNode@@SAPEBV2@W4DNameStatus@@@Z@4QBV2@B 0000000140094de0     libvcruntime:undname.obj
 0002:00002e50       ??_C@_1DM@KHCHBNEB@?$AAa?$AAp?$AAi?$AA?9?$AAm?$AAs?$AA?9?$AAw?$AAi?$AAn?$AA?9?$AAc?$AAo?$AAr?$AAe@ 0000000140094e50     libvcruntime:winapi_downlevel.obj
 0002:00002e98       ??_C@_1DK@LPPGFMPP@?$AAa?$AAp?$AAi?$AA?9?$AAm?$AAs?$AA?9?$AAw?$AAi?$AAn?$AA?9?$AAc?$AAo?$AAr?$AAe@ 0000000140094e98     libvcruntime:winapi_downlevel.obj
 0002:00002ee0       ??_C@_1BC@GDMECMAK@?$AAk?$AAe?$AAr?$AAn?$AAe?$AAl?$AA3?$AA2@ 0000000140094ee0     libvcruntime:winapi_downlevel.obj
 0002:00002ef8       ??_C@_1BA@PFFKHIOG@?$AAa?$AAp?$AAi?$AA?9?$AAm?$AAs?$AA?9@ 0000000140094ef8     libvcruntime:winapi_downlevel.obj
 0002:00002f20       ??_C@_08KNHFBNJ@FlsAlloc@  0000000140094f20     libvcruntime:winapi_downlevel.obj
 0002:00002f40       ??_C@_07PEJMOBNF@FlsFree@  0000000140094f40     libvcruntime:winapi_downlevel.obj
 0002:00002f60       ??_C@_0M@GDNOONDI@FlsGetValue@ 0000000140094f60     libvcruntime:winapi_downlevel.obj
